GAS LISTING /tmp/ccEWshZI.s 			page 1


   1              		.file	"BlockedQueue.cpp"
   2              		.option pic
   3              		.option norelax
   4              		.text
   5              	.Ltext0:
   6              		.align	2
   7              		.globl	_ZN12BlockedQueue3putEP3TCB
   9              	_ZN12BlockedQueue3putEP3TCB:
  10              	.LFB3:
  11              		.file 1 "src/BlockedQueue.cpp"
   1:src/BlockedQueue.cpp **** #include "../h/BlockedQueue.hpp"
   2:src/BlockedQueue.cpp **** #include "../h/TCB.hpp"
   3:src/BlockedQueue.cpp **** void BlockedQueue::put(TCB * t) {
  12              		.loc 1 3 33
  13              		.cfi_startproc
  14              	.LVL0:
  15 0000 130101FF 		addi	sp,sp,-16
  16              		.cfi_def_cfa_offset 16
  17 0004 23348100 		sd	s0,8(sp)
  18              		.cfi_offset 8, -8
  19 0008 13040101 		addi	s0,sp,16
  20              		.cfi_def_cfa 8, 0
   4:src/BlockedQueue.cpp ****     if(!head){
  21              		.loc 1 4 5
  22              		.loc 1 4 9 is_stmt 0
  23 000c 83370500 		ld	a5,0(a0)
  24              		.loc 1 4 5
  25 0010 63880702 		beqz	a5,.L5
   5:src/BlockedQueue.cpp ****         head=tail=t;
   6:src/BlockedQueue.cpp ****         cnt++;
   7:src/BlockedQueue.cpp ****         return;
   8:src/BlockedQueue.cpp ****     }
   9:src/BlockedQueue.cpp ****     tail->nextBlocked=t;
  26              		.loc 1 9 5 is_stmt 1
  27 0014 83378500 		ld	a5,8(a0)
  28              		.loc 1 9 22 is_stmt 0
  29 0018 23BCB704 		sd	a1,88(a5)
  10:src/BlockedQueue.cpp ****     t->prevBlocked=tail;
  30              		.loc 1 10 5 is_stmt 1
  31              		.loc 1 10 20 is_stmt 0
  32 001c 83378500 		ld	a5,8(a0)
  33              		.loc 1 10 19
  34 0020 23B0F506 		sd	a5,96(a1)
  11:src/BlockedQueue.cpp ****     tail=t;
  35              		.loc 1 11 5 is_stmt 1
  36              		.loc 1 11 9 is_stmt 0
  37 0024 2334B500 		sd	a1,8(a0)
  12:src/BlockedQueue.cpp ****     cnt++;
  38              		.loc 1 12 5 is_stmt 1
  39 0028 83270501 		lw	a5,16(a0)
  40              		.loc 1 12 8 is_stmt 0
  41 002c 9B871700 		addiw	a5,a5,1
  42 0030 2328F500 		sw	a5,16(a0)
  43              	.L1:
  13:src/BlockedQueue.cpp **** }
  44              		.loc 1 13 1
  45 0034 03348100 		ld	s0,8(sp)
GAS LISTING /tmp/ccEWshZI.s 			page 2


  46              		.cfi_remember_state
  47              		.cfi_restore 8
  48              		.cfi_def_cfa 2, 16
  49 0038 13010101 		addi	sp,sp,16
  50              		.cfi_def_cfa_offset 0
  51 003c 67800000 		jr	ra
  52              	.L5:
  53              		.cfi_restore_state
   5:src/BlockedQueue.cpp ****         cnt++;
  54              		.loc 1 5 9 is_stmt 1
   5:src/BlockedQueue.cpp ****         cnt++;
  55              		.loc 1 5 18 is_stmt 0
  56 0040 2334B500 		sd	a1,8(a0)
   5:src/BlockedQueue.cpp ****         cnt++;
  57              		.loc 1 5 13
  58 0044 2330B500 		sd	a1,0(a0)
   6:src/BlockedQueue.cpp ****         return;
  59              		.loc 1 6 9 is_stmt 1
  60 0048 83270501 		lw	a5,16(a0)
   6:src/BlockedQueue.cpp ****         return;
  61              		.loc 1 6 12 is_stmt 0
  62 004c 9B871700 		addiw	a5,a5,1
  63 0050 2328F500 		sw	a5,16(a0)
   7:src/BlockedQueue.cpp ****     }
  64              		.loc 1 7 9 is_stmt 1
  65 0054 6FF01FFE 		j	.L1
  66              		.cfi_endproc
  67              	.LFE3:
  69              		.align	2
  70              		.globl	_ZN12BlockedQueue3getEv
  72              	_ZN12BlockedQueue3getEv:
  73              	.LFB4:
  14:src/BlockedQueue.cpp **** TCB *BlockedQueue::get() {
  74              		.loc 1 14 26
  75              		.cfi_startproc
  76              	.LVL1:
  77 0058 130101FF 		addi	sp,sp,-16
  78              		.cfi_def_cfa_offset 16
  79 005c 23348100 		sd	s0,8(sp)
  80              		.cfi_offset 8, -8
  81 0060 13040101 		addi	s0,sp,16
  82              		.cfi_def_cfa 8, 0
  83 0064 93070500 		mv	a5,a0
  15:src/BlockedQueue.cpp ****     if(!head) return nullptr;
  84              		.loc 1 15 5
  85              		.loc 1 15 9 is_stmt 0
  86 0068 03350500 		ld	a0,0(a0)
  87              	.LVL2:
  88              		.loc 1 15 5
  89 006c 63040502 		beqz	a0,.L6
  16:src/BlockedQueue.cpp ****     TCB* t=head;
  90              		.loc 1 16 5 is_stmt 1
  91              	.LVL3:
  17:src/BlockedQueue.cpp ****     head=head->nextBlocked;
  92              		.loc 1 17 5
  93              		.loc 1 17 16 is_stmt 0
  94 0070 03378505 		ld	a4,88(a0)
GAS LISTING /tmp/ccEWshZI.s 			page 3


  95              		.loc 1 17 9
  96 0074 23B0E700 		sd	a4,0(a5)
  18:src/BlockedQueue.cpp ****     if(head){
  97              		.loc 1 18 5 is_stmt 1
  98 0078 63040700 		beqz	a4,.L8
  19:src/BlockedQueue.cpp ****         head->prevBlocked= nullptr;
  99              		.loc 1 19 9
 100              		.loc 1 19 26 is_stmt 0
 101 007c 23300706 		sd	zero,96(a4)
 102              	.L8:
  20:src/BlockedQueue.cpp ****     }
  21:src/BlockedQueue.cpp ****     t->nextBlocked=nullptr;
 103              		.loc 1 21 5 is_stmt 1
 104              		.loc 1 21 19 is_stmt 0
 105 0080 233C0504 		sd	zero,88(a0)
  22:src/BlockedQueue.cpp ****     t->prevBlocked= nullptr;
 106              		.loc 1 22 5 is_stmt 1
 107              		.loc 1 22 19 is_stmt 0
 108 0084 23300506 		sd	zero,96(a0)
  23:src/BlockedQueue.cpp ****     cnt--;
 109              		.loc 1 23 5 is_stmt 1
 110 0088 03A70701 		lw	a4,16(a5)
 111              		.loc 1 23 8 is_stmt 0
 112 008c 1B07F7FF 		addiw	a4,a4,-1
 113 0090 23A8E700 		sw	a4,16(a5)
  24:src/BlockedQueue.cpp ****     return t;
 114              		.loc 1 24 5 is_stmt 1
 115              	.LVL4:
 116              	.L6:
  25:src/BlockedQueue.cpp **** }
 117              		.loc 1 25 1 is_stmt 0
 118 0094 03348100 		ld	s0,8(sp)
 119              		.cfi_restore 8
 120              		.cfi_def_cfa 2, 16
 121 0098 13010101 		addi	sp,sp,16
 122              		.cfi_def_cfa_offset 0
 123 009c 67800000 		jr	ra
 124              		.cfi_endproc
 125              	.LFE4:
 127              		.align	2
 128              		.globl	_ZN12BlockedQueue12removeAwokenEP3TCB
 130              	_ZN12BlockedQueue12removeAwokenEP3TCB:
 131              	.LFB5:
  26:src/BlockedQueue.cpp **** 
  27:src/BlockedQueue.cpp **** void BlockedQueue::removeAwoken(TCB *thr) {
 132              		.loc 1 27 43 is_stmt 1
 133              		.cfi_startproc
 134              	.LVL5:
 135 00a0 130101FF 		addi	sp,sp,-16
 136              		.cfi_def_cfa_offset 16
 137 00a4 23348100 		sd	s0,8(sp)
 138              		.cfi_offset 8, -8
 139 00a8 13040101 		addi	s0,sp,16
 140              		.cfi_def_cfa 8, 0
  28:src/BlockedQueue.cpp ****     if(thr->prevBlocked) {
 141              		.loc 1 28 5
 142              		.loc 1 28 13 is_stmt 0
GAS LISTING /tmp/ccEWshZI.s 			page 4


 143 00ac 83B70506 		ld	a5,96(a1)
 144              		.loc 1 28 5
 145 00b0 638E0702 		beqz	a5,.L11
  29:src/BlockedQueue.cpp ****         thr->prevBlocked->nextBlocked = thr->nextBlocked;
 146              		.loc 1 29 9 is_stmt 1
 147              		.loc 1 29 46 is_stmt 0
 148 00b4 03B78505 		ld	a4,88(a1)
 149              		.loc 1 29 39
 150 00b8 23BCE704 		sd	a4,88(a5)
 151              	.L12:
  30:src/BlockedQueue.cpp ****     }
  31:src/BlockedQueue.cpp ****     else{
  32:src/BlockedQueue.cpp ****         head=thr->nextBlocked;
  33:src/BlockedQueue.cpp ****     }
  34:src/BlockedQueue.cpp ****     if(thr->nextBlocked){
 152              		.loc 1 34 5 is_stmt 1
 153              		.loc 1 34 13 is_stmt 0
 154 00bc 83B78505 		ld	a5,88(a1)
 155              		.loc 1 34 5
 156 00c0 638C0702 		beqz	a5,.L13
  35:src/BlockedQueue.cpp ****         thr->nextBlocked->prevBlocked=thr->prevBlocked;
 157              		.loc 1 35 9 is_stmt 1
 158              		.loc 1 35 44 is_stmt 0
 159 00c4 03B70506 		ld	a4,96(a1)
 160              		.loc 1 35 38
 161 00c8 23B0E706 		sd	a4,96(a5)
 162              	.L14:
  36:src/BlockedQueue.cpp ****     }
  37:src/BlockedQueue.cpp ****     else{
  38:src/BlockedQueue.cpp ****         tail=thr->prevBlocked;
  39:src/BlockedQueue.cpp ****     }
  40:src/BlockedQueue.cpp ****     thr->prevBlocked=thr->nextBlocked=nullptr;
 163              		.loc 1 40 5 is_stmt 1
 164              		.loc 1 40 38 is_stmt 0
 165 00cc 23BC0504 		sd	zero,88(a1)
 166              		.loc 1 40 21
 167 00d0 23B00506 		sd	zero,96(a1)
  41:src/BlockedQueue.cpp ****     cnt--;
 168              		.loc 1 41 5 is_stmt 1
 169 00d4 83270501 		lw	a5,16(a0)
 170              		.loc 1 41 8 is_stmt 0
 171 00d8 9B87F7FF 		addiw	a5,a5,-1
 172 00dc 2328F500 		sw	a5,16(a0)
  42:src/BlockedQueue.cpp **** }
 173              		.loc 1 42 1
 174 00e0 03348100 		ld	s0,8(sp)
 175              		.cfi_remember_state
 176              		.cfi_restore 8
 177              		.cfi_def_cfa 2, 16
 178 00e4 13010101 		addi	sp,sp,16
 179              		.cfi_def_cfa_offset 0
 180 00e8 67800000 		jr	ra
 181              	.L11:
 182              		.cfi_restore_state
  32:src/BlockedQueue.cpp ****     }
 183              		.loc 1 32 9 is_stmt 1
  32:src/BlockedQueue.cpp ****     }
GAS LISTING /tmp/ccEWshZI.s 			page 5


 184              		.loc 1 32 19 is_stmt 0
 185 00ec 83B78505 		ld	a5,88(a1)
  32:src/BlockedQueue.cpp ****     }
 186              		.loc 1 32 13
 187 00f0 2330F500 		sd	a5,0(a0)
 188 00f4 6FF09FFC 		j	.L12
 189              	.L13:
  38:src/BlockedQueue.cpp ****     }
 190              		.loc 1 38 9 is_stmt 1
  38:src/BlockedQueue.cpp ****     }
 191              		.loc 1 38 19 is_stmt 0
 192 00f8 83B70506 		ld	a5,96(a1)
  38:src/BlockedQueue.cpp ****     }
 193              		.loc 1 38 13
 194 00fc 2334F500 		sd	a5,8(a0)
 195 0100 6FF0DFFC 		j	.L14
 196              		.cfi_endproc
 197              	.LFE5:
 199              		.align	2
 200              		.globl	_ZNK12BlockedQueue15getNumOfBlockedEv
 202              	_ZNK12BlockedQueue15getNumOfBlockedEv:
 203              	.LFB6:
  43:src/BlockedQueue.cpp **** int BlockedQueue::getNumOfBlocked() const {
 204              		.loc 1 43 43 is_stmt 1
 205              		.cfi_startproc
 206              	.LVL6:
 207 0104 130101FF 		addi	sp,sp,-16
 208              		.cfi_def_cfa_offset 16
 209 0108 23348100 		sd	s0,8(sp)
 210              		.cfi_offset 8, -8
 211 010c 13040101 		addi	s0,sp,16
 212              		.cfi_def_cfa 8, 0
  44:src/BlockedQueue.cpp ****     return cnt;
 213              		.loc 1 44 5
  45:src/BlockedQueue.cpp **** }...
 214              		.loc 1 45 1 is_stmt 0
 215 0110 03250501 		lw	a0,16(a0)
 216              	.LVL7:
 217 0114 03348100 		ld	s0,8(sp)
 218              		.cfi_restore 8
 219              		.cfi_def_cfa 2, 16
 220 0118 13010101 		addi	sp,sp,16
 221              		.cfi_def_cfa_offset 0
 222 011c 67800000 		jr	ra
 223              		.cfi_endproc
 224              	.LFE6:
 226              	.Letext0:
 227              		.file 2 "src/../h/../lib/hw.h"
 228              		.file 3 "src/../h/TCB.hpp"
 229              		.file 4 "src/../h/BlockedQueue.hpp"
 230              		.file 5 "src/../h/syscall_c.hpp"
GAS LISTING /tmp/ccEWshZI.s 			page 6


DEFINED SYMBOLS
                            *ABS*:0000000000000000 BlockedQueue.cpp
     /tmp/ccEWshZI.s:9      .text:0000000000000000 _ZN12BlockedQueue3putEP3TCB
     /tmp/ccEWshZI.s:13     .text:0000000000000000 .L0 
     /tmp/ccEWshZI.s:15     .text:0000000000000000 .L0 
     /tmp/ccEWshZI.s:16     .text:0000000000000004 .L0 
     /tmp/ccEWshZI.s:18     .text:0000000000000008 .L0 
     /tmp/ccEWshZI.s:20     .text:000000000000000c .L0 
     /tmp/ccEWshZI.s:22     .text:000000000000000c .L0 
     /tmp/ccEWshZI.s:23     .text:000000000000000c .L0 
     /tmp/ccEWshZI.s:25     .text:0000000000000010 .L0 
     /tmp/ccEWshZI.s:27     .text:0000000000000014 .L0 
     /tmp/ccEWshZI.s:29     .text:0000000000000018 .L0 
     /tmp/ccEWshZI.s:31     .text:000000000000001c .L0 
     /tmp/ccEWshZI.s:32     .text:000000000000001c .L0 
     /tmp/ccEWshZI.s:34     .text:0000000000000020 .L0 
     /tmp/ccEWshZI.s:36     .text:0000000000000024 .L0 
     /tmp/ccEWshZI.s:37     .text:0000000000000024 .L0 
     /tmp/ccEWshZI.s:39     .text:0000000000000028 .L0 
     /tmp/ccEWshZI.s:41     .text:000000000000002c .L0 
     /tmp/ccEWshZI.s:45     .text:0000000000000034 .L0 
     /tmp/ccEWshZI.s:46     .text:0000000000000038 .L0 
     /tmp/ccEWshZI.s:47     .text:0000000000000038 .L0 
     /tmp/ccEWshZI.s:48     .text:0000000000000038 .L0 
     /tmp/ccEWshZI.s:50     .text:000000000000003c .L0 
     /tmp/ccEWshZI.s:53     .text:0000000000000040 .L0 
     /tmp/ccEWshZI.s:55     .text:0000000000000040 .L0 
     /tmp/ccEWshZI.s:56     .text:0000000000000040 .L0 
     /tmp/ccEWshZI.s:58     .text:0000000000000044 .L0 
     /tmp/ccEWshZI.s:60     .text:0000000000000048 .L0 
     /tmp/ccEWshZI.s:62     .text:000000000000004c .L0 
     /tmp/ccEWshZI.s:65     .text:0000000000000054 .L0 
     /tmp/ccEWshZI.s:66     .text:0000000000000058 .L0 
     /tmp/ccEWshZI.s:72     .text:0000000000000058 _ZN12BlockedQueue3getEv
     /tmp/ccEWshZI.s:75     .text:0000000000000058 .L0 
     /tmp/ccEWshZI.s:77     .text:0000000000000058 .L0 
     /tmp/ccEWshZI.s:78     .text:000000000000005c .L0 
     /tmp/ccEWshZI.s:80     .text:0000000000000060 .L0 
     /tmp/ccEWshZI.s:82     .text:0000000000000064 .L0 
     /tmp/ccEWshZI.s:85     .text:0000000000000068 .L0 
     /tmp/ccEWshZI.s:86     .text:0000000000000068 .L0 
     /tmp/ccEWshZI.s:89     .text:000000000000006c .L0 
     /tmp/ccEWshZI.s:92     .text:0000000000000070 .L0 
     /tmp/ccEWshZI.s:93     .text:0000000000000070 .L0 
     /tmp/ccEWshZI.s:94     .text:0000000000000070 .L0 
     /tmp/ccEWshZI.s:96     .text:0000000000000074 .L0 
     /tmp/ccEWshZI.s:98     .text:0000000000000078 .L0 
     /tmp/ccEWshZI.s:100    .text:000000000000007c .L0 
     /tmp/ccEWshZI.s:101    .text:000000000000007c .L0 
     /tmp/ccEWshZI.s:104    .text:0000000000000080 .L0 
     /tmp/ccEWshZI.s:105    .text:0000000000000080 .L0 
     /tmp/ccEWshZI.s:107    .text:0000000000000084 .L0 
     /tmp/ccEWshZI.s:108    .text:0000000000000084 .L0 
     /tmp/ccEWshZI.s:110    .text:0000000000000088 .L0 
     /tmp/ccEWshZI.s:112    .text:000000000000008c .L0 
     /tmp/ccEWshZI.s:117    .text:0000000000000094 .L0 
     /tmp/ccEWshZI.s:118    .text:0000000000000094 .L0 
GAS LISTING /tmp/ccEWshZI.s 			page 7


     /tmp/ccEWshZI.s:119    .text:0000000000000098 .L0 
     /tmp/ccEWshZI.s:120    .text:0000000000000098 .L0 
     /tmp/ccEWshZI.s:122    .text:000000000000009c .L0 
     /tmp/ccEWshZI.s:124    .text:00000000000000a0 .L0 
     /tmp/ccEWshZI.s:130    .text:00000000000000a0 _ZN12BlockedQueue12removeAwokenEP3TCB
     /tmp/ccEWshZI.s:133    .text:00000000000000a0 .L0 
     /tmp/ccEWshZI.s:135    .text:00000000000000a0 .L0 
     /tmp/ccEWshZI.s:136    .text:00000000000000a4 .L0 
     /tmp/ccEWshZI.s:138    .text:00000000000000a8 .L0 
     /tmp/ccEWshZI.s:140    .text:00000000000000ac .L0 
     /tmp/ccEWshZI.s:142    .text:00000000000000ac .L0 
     /tmp/ccEWshZI.s:143    .text:00000000000000ac .L0 
     /tmp/ccEWshZI.s:145    .text:00000000000000b0 .L0 
     /tmp/ccEWshZI.s:147    .text:00000000000000b4 .L0 
     /tmp/ccEWshZI.s:148    .text:00000000000000b4 .L0 
     /tmp/ccEWshZI.s:150    .text:00000000000000b8 .L0 
     /tmp/ccEWshZI.s:153    .text:00000000000000bc .L0 
     /tmp/ccEWshZI.s:154    .text:00000000000000bc .L0 
     /tmp/ccEWshZI.s:156    .text:00000000000000c0 .L0 
     /tmp/ccEWshZI.s:158    .text:00000000000000c4 .L0 
     /tmp/ccEWshZI.s:159    .text:00000000000000c4 .L0 
     /tmp/ccEWshZI.s:161    .text:00000000000000c8 .L0 
     /tmp/ccEWshZI.s:164    .text:00000000000000cc .L0 
     /tmp/ccEWshZI.s:165    .text:00000000000000cc .L0 
     /tmp/ccEWshZI.s:167    .text:00000000000000d0 .L0 
     /tmp/ccEWshZI.s:169    .text:00000000000000d4 .L0 
     /tmp/ccEWshZI.s:171    .text:00000000000000d8 .L0 
     /tmp/ccEWshZI.s:174    .text:00000000000000e0 .L0 
     /tmp/ccEWshZI.s:175    .text:00000000000000e4 .L0 
     /tmp/ccEWshZI.s:176    .text:00000000000000e4 .L0 
     /tmp/ccEWshZI.s:177    .text:00000000000000e4 .L0 
     /tmp/ccEWshZI.s:179    .text:00000000000000e8 .L0 
     /tmp/ccEWshZI.s:182    .text:00000000000000ec .L0 
     /tmp/ccEWshZI.s:184    .text:00000000000000ec .L0 
     /tmp/ccEWshZI.s:185    .text:00000000000000ec .L0 
     /tmp/ccEWshZI.s:187    .text:00000000000000f0 .L0 
     /tmp/ccEWshZI.s:191    .text:00000000000000f8 .L0 
     /tmp/ccEWshZI.s:192    .text:00000000000000f8 .L0 
     /tmp/ccEWshZI.s:194    .text:00000000000000fc .L0 
     /tmp/ccEWshZI.s:196    .text:0000000000000104 .L0 
     /tmp/ccEWshZI.s:202    .text:0000000000000104 _ZNK12BlockedQueue15getNumOfBlockedEv
     /tmp/ccEWshZI.s:205    .text:0000000000000104 .L0 
     /tmp/ccEWshZI.s:207    .text:0000000000000104 .L0 
     /tmp/ccEWshZI.s:208    .text:0000000000000108 .L0 
     /tmp/ccEWshZI.s:210    .text:000000000000010c .L0 
     /tmp/ccEWshZI.s:212    .text:0000000000000110 .L0 
     /tmp/ccEWshZI.s:214    .text:0000000000000110 .L0 
     /tmp/ccEWshZI.s:215    .text:0000000000000110 .L0 
     /tmp/ccEWshZI.s:218    .text:0000000000000118 .L0 
     /tmp/ccEWshZI.s:219    .text:0000000000000118 .L0 
     /tmp/ccEWshZI.s:221    .text:000000000000011c .L0 
     /tmp/ccEWshZI.s:223    .text:0000000000000120 .L0 
     /tmp/ccEWshZI.s:231    .text:0000000000000120 .L0 
     /tmp/ccEWshZI.s:52     .text:0000000000000040 .L5
     /tmp/ccEWshZI.s:43     .text:0000000000000034 .L1
     /tmp/ccEWshZI.s:116    .text:0000000000000094 .L6
     /tmp/ccEWshZI.s:102    .text:0000000000000080 .L8
GAS LISTING /tmp/ccEWshZI.s 			page 8


     /tmp/ccEWshZI.s:181    .text:00000000000000ec .L11
     /tmp/ccEWshZI.s:189    .text:00000000000000f8 .L13
     /tmp/ccEWshZI.s:151    .text:00000000000000bc .L12
     /tmp/ccEWshZI.s:162    .text:00000000000000cc .L14
     /tmp/ccEWshZI.s:985    .debug_abbrev:0000000000000000 .Ldebug_abbrev0
     /tmp/ccEWshZI.s:1816   .debug_str:00000000000004bc .LASF88
     /tmp/ccEWshZI.s:1680   .debug_str:000000000000000a .LASF89
     /tmp/ccEWshZI.s:1762   .debug_str:00000000000002b9 .LASF90
     /tmp/ccEWshZI.s:5      .text:0000000000000000 .Ltext0
     /tmp/ccEWshZI.s:226    .text:0000000000000120 .Letext0
     /tmp/ccEWshZI.s:1676   .debug_line:0000000000000000 .Ldebug_line0
     /tmp/ccEWshZI.s:1766   .debug_str:000000000000030a .LASF0
     /tmp/ccEWshZI.s:1780   .debug_str:0000000000000391 .LASF1
     /tmp/ccEWshZI.s:1754   .debug_str:000000000000027b .LASF2
     /tmp/ccEWshZI.s:1740   .debug_str:000000000000020d .LASF4
     /tmp/ccEWshZI.s:1806   .debug_str:0000000000000469 .LASF3
     /tmp/ccEWshZI.s:1688   .debug_str:0000000000000058 .LASF5
     /tmp/ccEWshZI.s:1714   .debug_str:0000000000000131 .LASF6
     /tmp/ccEWshZI.s:1786   .debug_str:00000000000003be .LASF7
     /tmp/ccEWshZI.s:1764   .debug_str:00000000000002f7 .LASF8
     /tmp/ccEWshZI.s:1830   .debug_str:00000000000005f5 .LASF9
     /tmp/ccEWshZI.s:1732   .debug_str:00000000000001bd .LASF10
     /tmp/ccEWshZI.s:1794   .debug_str:000000000000041c .LASF11
     /tmp/ccEWshZI.s:1818   .debug_str:0000000000000580 .LASF12
     /tmp/ccEWshZI.s:1692   .debug_str:000000000000006b .LASF13
     /tmp/ccEWshZI.s:1682   .debug_str:000000000000001f .LASF14
     /tmp/ccEWshZI.s:1698   .debug_str:00000000000000a3 .LASF15
     /tmp/ccEWshZI.s:1802   .debug_str:000000000000044d .LASF16
     /tmp/ccEWshZI.s:1710   .debug_str:0000000000000116 .LASF17
     /tmp/ccEWshZI.s:1846   .debug_str:0000000000000689 .LASF76
     /tmp/ccEWshZI.s:1838   .debug_str:0000000000000630 .LASF18
     /tmp/ccEWshZI.s:1814   .debug_str:00000000000004b0 .LASF26
     /tmp/ccEWshZI.s:1808   .debug_str:000000000000047b .LASF19
     /tmp/ccEWshZI.s:1800   .debug_str:0000000000000440 .LASF21
     /tmp/ccEWshZI.s:1864   .debug_str:0000000000000713 .LASF36
     /tmp/ccEWshZI.s:1826   .debug_str:00000000000005b9 .LASF38
     /tmp/ccEWshZI.s:1726   .debug_str:0000000000000191 .LASF20
     /tmp/ccEWshZI.s:1772   .debug_str:0000000000000347 .LASF22
     /tmp/ccEWshZI.s:1768   .debug_str:0000000000000317 .LASF32
     /tmp/ccEWshZI.s:1722   .debug_str:0000000000000179 .LASF34
     /tmp/ccEWshZI.s:1804   .debug_str:0000000000000463 .LASF23
     /tmp/ccEWshZI.s:1694   .debug_str:000000000000007b .LASF24
     /tmp/ccEWshZI.s:1848   .debug_str:000000000000069f .LASF25
     /tmp/ccEWshZI.s:1810   .debug_str:000000000000048b .LASF27
     /tmp/ccEWshZI.s:1690   .debug_str:000000000000005f .LASF28
     /tmp/ccEWshZI.s:1860   .debug_str:00000000000006f2 .LASF30
     /tmp/ccEWshZI.s:1750   .debug_str:0000000000000260 .LASF29
     /tmp/ccEWshZI.s:1686   .debug_str:000000000000003f .LASF31
     /tmp/ccEWshZI.s:1696   .debug_str:0000000000000090 .LASF33
     /tmp/ccEWshZI.s:1792   .debug_str:00000000000003fe .LASF35
     /tmp/ccEWshZI.s:1700   .debug_str:00000000000000af .LASF37
     /tmp/ccEWshZI.s:1844   .debug_str:000000000000066b .LASF39
     /tmp/ccEWshZI.s:1748   .debug_str:000000000000024b .LASF40
     /tmp/ccEWshZI.s:1778   .debug_str:0000000000000371 .LASF41
     /tmp/ccEWshZI.s:1776   .debug_str:0000000000000369 .LASF42
     /tmp/ccEWshZI.s:1842   .debug_str:0000000000000659 .LASF43
     /tmp/ccEWshZI.s:1820   .debug_str:000000000000058f .LASF44
GAS LISTING /tmp/ccEWshZI.s 			page 9


     /tmp/ccEWshZI.s:1770   .debug_str:0000000000000320 .LASF45
     /tmp/ccEWshZI.s:1716   .debug_str:0000000000000138 .LASF46
     /tmp/ccEWshZI.s:1704   .debug_str:00000000000000cc .LASF47
     /tmp/ccEWshZI.s:1684   .debug_str:000000000000002f .LASF48
     /tmp/ccEWshZI.s:1744   .debug_str:0000000000000220 .LASF49
     /tmp/ccEWshZI.s:1798   .debug_str:0000000000000430 .LASF50
     /tmp/ccEWshZI.s:1720   .debug_str:000000000000015d .LASF51
     /tmp/ccEWshZI.s:1756   .debug_str:0000000000000289 .LASF52
     /tmp/ccEWshZI.s:1738   .debug_str:00000000000001f1 .LASF53
     /tmp/ccEWshZI.s:1734   .debug_str:00000000000001cb .LASF54
     /tmp/ccEWshZI.s:1788   .debug_str:00000000000003d1 .LASF55
     /tmp/ccEWshZI.s:1728   .debug_str:000000000000019c .LASF56
     /tmp/ccEWshZI.s:1774   .debug_str:000000000000035f .LASF57
     /tmp/ccEWshZI.s:1832   .debug_str:0000000000000605 .LASF58
     /tmp/ccEWshZI.s:1718   .debug_str:0000000000000155 .LASF59
     /tmp/ccEWshZI.s:1752   .debug_str:000000000000026d .LASF91
     /tmp/ccEWshZI.s:1736   .debug_str:00000000000001d8 .LASF92
     /tmp/ccEWshZI.s:1834   .debug_str:0000000000000615 .LASF60
     /tmp/ccEWshZI.s:1858   .debug_str:00000000000006e8 .LASF61
     /tmp/ccEWshZI.s:1812   .debug_str:00000000000004a3 .LASF62
     /tmp/ccEWshZI.s:1862   .debug_str:000000000000070a .LASF63
     /tmp/ccEWshZI.s:1730   .debug_str:00000000000001b4 .LASF64
     /tmp/ccEWshZI.s:1836   .debug_str:0000000000000620 .LASF65
     /tmp/ccEWshZI.s:1746   .debug_str:0000000000000240 .LASF66
     /tmp/ccEWshZI.s:1852   .debug_str:00000000000006bc .LASF67
     /tmp/ccEWshZI.s:1742   .debug_str:0000000000000214 .LASF68
     /tmp/ccEWshZI.s:1706   .debug_str:00000000000000f4 .LASF69
     /tmp/ccEWshZI.s:1854   .debug_str:00000000000006c6 .LASF70
     /tmp/ccEWshZI.s:1822   .debug_str:00000000000005aa .LASF71
     /tmp/ccEWshZI.s:1678   .debug_str:0000000000000000 .LASF72
     /tmp/ccEWshZI.s:1702   .debug_str:00000000000000c2 .LASF73
     /tmp/ccEWshZI.s:1824   .debug_str:00000000000005b4 .LASF85
     /tmp/ccEWshZI.s:1784   .debug_str:00000000000003b1 .LASF74
     /tmp/ccEWshZI.s:1708   .debug_str:0000000000000100 .LASF75
     /tmp/ccEWshZI.s:1856   .debug_str:00000000000006d0 .LASF93
     /tmp/ccEWshZI.s:1840   .debug_str:000000000000063d .LASF77
     /tmp/ccEWshZI.s:1850   .debug_str:00000000000006ac .LASF78
     /tmp/ccEWshZI.s:1828   .debug_str:00000000000005cf .LASF79
     /tmp/ccEWshZI.s:1782   .debug_str:00000000000003a4 .LASF80
     /tmp/ccEWshZI.s:1790   .debug_str:00000000000003d8 .LASF81
     /tmp/ccEWshZI.s:1712   .debug_str:000000000000012c .LASF82
     /tmp/ccEWshZI.s:1758   .debug_str:0000000000000299 .LASF83
     /tmp/ccEWshZI.s:1724   .debug_str:000000000000018c .LASF84
     /tmp/ccEWshZI.s:1760   .debug_str:000000000000029e .LASF86
     /tmp/ccEWshZI.s:203    .text:0000000000000104 .LFB6
     /tmp/ccEWshZI.s:224    .text:0000000000000120 .LFE6
     /tmp/ccEWshZI.s:1796   .debug_str:000000000000042b .LASF87
     /tmp/ccEWshZI.s:1631   .debug_loc:0000000000000000 .LLST2
     /tmp/ccEWshZI.s:131    .text:00000000000000a0 .LFB5
     /tmp/ccEWshZI.s:197    .text:0000000000000104 .LFE5
     /tmp/ccEWshZI.s:73     .text:0000000000000058 .LFB4
     /tmp/ccEWshZI.s:125    .text:00000000000000a0 .LFE4
     /tmp/ccEWshZI.s:1645   .debug_loc:0000000000000039 .LLST0
     /tmp/ccEWshZI.s:1656   .debug_loc:000000000000006f .LLST1
     /tmp/ccEWshZI.s:10     .text:0000000000000000 .LFB3
     /tmp/ccEWshZI.s:67     .text:0000000000000058 .LFE3
     /tmp/ccEWshZI.s:206    .text:0000000000000104 .LVL6
GAS LISTING /tmp/ccEWshZI.s 			page 10


     /tmp/ccEWshZI.s:216    .text:0000000000000114 .LVL7
     /tmp/ccEWshZI.s:76     .text:0000000000000058 .LVL1
     /tmp/ccEWshZI.s:87     .text:000000000000006c .LVL2
     /tmp/ccEWshZI.s:91     .text:0000000000000070 .LVL3
     /tmp/ccEWshZI.s:115    .text:0000000000000094 .LVL4
     /tmp/ccEWshZI.s:232    .debug_info:0000000000000000 .Ldebug_info0

NO UNDEFINED SYMBOLS
