GAS LISTING /tmp/ccOSkcKz.s 			page 1


   1              		.file	"IOBuffer.cpp"
   2              		.option pic
   3              		.option norelax
   4              		.text
   5              	.Ltext0:
   6              		.align	2
   7              		.globl	_ZN8IOBufferC2Ev
   9              	_ZN8IOBufferC2Ev:
  10              	.LFB7:
  11              		.file 1 "src/IOBuffer.cpp"
   1:src/IOBuffer.cpp **** #include "../h/IOBuffer.hpp"
   2:src/IOBuffer.cpp **** IOBuffer::IOBuffer(){
  12              		.loc 1 2 1
  13              		.cfi_startproc
  14              		.cfi_personality 0x9b,DW.ref.__gxx_personality_v0
  15              		.cfi_lsda 0x1b,.LLSDA7
  16              	.LVL0:
  17 0000 130101FE 		addi	sp,sp,-32
  18              		.cfi_def_cfa_offset 32
  19 0004 233C1100 		sd	ra,24(sp)
  20 0008 23388100 		sd	s0,16(sp)
  21 000c 23349100 		sd	s1,8(sp)
  22 0010 23302101 		sd	s2,0(sp)
  23              		.cfi_offset 1, -8
  24              		.cfi_offset 8, -16
  25              		.cfi_offset 9, -24
  26              		.cfi_offset 18, -32
  27 0014 13040102 		addi	s0,sp,32
  28              		.cfi_def_cfa 8, 0
  29 0018 93040500 		mv	s1,a0
  30              	.LBB2:
  31              		.loc 1 2 20 is_stmt 0
  32 001c 23280500 		sw	zero,16(a0)
  33 0020 232A0500 		sw	zero,20(a0)
  34 0024 232C0500 		sw	zero,24(a0)
  35 0028 93070010 		li	a5,256
  36 002c 232EF500 		sw	a5,28(a0)
   3:src/IOBuffer.cpp ****     semIn=new SemC(0);
  37              		.loc 1 3 5 is_stmt 1
  38              		.loc 1 3 21 is_stmt 0
  39 0030 13058002 		li	a0,40
  40              	.LVL1:
  41              	.LEHB0:
  42 0034 97000000 		call	_ZN4SemCnwEm@plt
  42      E7800000 
  43              	.LVL2:
  44              	.LEHE0:
  45 003c 13090500 		mv	s2,a0
  46 0040 93050000 		li	a1,0
  47              	.LEHB1:
  48 0044 97000000 		call	_ZN4SemCC1Ej@plt
  48      E7800000 
  49              	.LVL3:
  50              	.LEHE1:
  51              		.loc 1 3 10 discriminator 2
  52 004c 23B02401 		sd	s2,0(s1)
   4:src/IOBuffer.cpp ****     semOut=new SemC(BUF_SIZE);
GAS LISTING /tmp/ccOSkcKz.s 			page 2


  53              		.loc 1 4 5 is_stmt 1 discriminator 2
  54              		.loc 1 4 29 is_stmt 0 discriminator 2
  55 0050 13058002 		li	a0,40
  56              	.LEHB2:
  57 0054 97000000 		call	_ZN4SemCnwEm@plt
  57      E7800000 
  58              	.LVL4:
  59              	.LEHE2:
  60 005c 13090500 		mv	s2,a0
  61 0060 93050010 		li	a1,256
  62              	.LEHB3:
  63 0064 97000000 		call	_ZN4SemCC1Ej@plt
  63      E7800000 
  64              	.LVL5:
  65              	.LEHE3:
  66              		.loc 1 4 11 discriminator 2
  67 006c 23B42401 		sd	s2,8(s1)
  68              	.LBE2:
   5:src/IOBuffer.cpp **** }
  69              		.loc 1 5 1 discriminator 2
  70 0070 83308101 		ld	ra,24(sp)
  71              		.cfi_remember_state
  72              		.cfi_restore 1
  73 0074 03340101 		ld	s0,16(sp)
  74              		.cfi_restore 8
  75              		.cfi_def_cfa 2, 32
  76 0078 83348100 		ld	s1,8(sp)
  77              		.cfi_restore 9
  78              	.LVL6:
  79 007c 03390100 		ld	s2,0(sp)
  80              		.cfi_restore 18
  81 0080 13010102 		addi	sp,sp,32
  82              		.cfi_def_cfa_offset 0
  83 0084 67800000 		jr	ra
  84              	.LVL7:
  85              	.L4:
  86              		.cfi_restore_state
  87 0088 93040500 		mv	s1,a0
  88              	.LVL8:
  89              	.LBB3:
   3:src/IOBuffer.cpp ****     semIn=new SemC(0);
  90              		.loc 1 3 21
  91 008c 13050900 		mv	a0,s2
  92 0090 97000000 		call	_ZN4SemCdlEPv@plt
  92      E7800000 
  93              	.LVL9:
  94 0098 13850400 		mv	a0,s1
  95              	.LEHB4:
  96 009c 97000000 		call	_Unwind_Resume@plt
  96      E7800000 
  97              	.LVL10:
  98              	.LEHE4:
  99              	.L5:
 100 00a4 93040500 		mv	s1,a0
 101              	.LVL11:
   4:src/IOBuffer.cpp ****     semOut=new SemC(BUF_SIZE);
 102              		.loc 1 4 29
GAS LISTING /tmp/ccOSkcKz.s 			page 3


 103 00a8 13050900 		mv	a0,s2
 104 00ac 97000000 		call	_ZN4SemCdlEPv@plt
 104      E7800000 
 105              	.LVL12:
 106 00b4 13850400 		mv	a0,s1
 107              	.LEHB5:
 108 00b8 97000000 		call	_Unwind_Resume@plt
 108      E7800000 
 109              	.LVL13:
 110              	.LEHE5:
 111              	.LBE3:
 112              		.cfi_endproc
 113              	.LFE7:
 114              		.globl	__gxx_personality_v0
 115              		.section	.gcc_except_table,"a",@progbits
 116              	.LLSDA7:
 117 0000 FF       		.byte	0xff
 118 0001 FF       		.byte	0xff
 119 0002 03       		.byte	0x3
 120 0003 4E       		.byte	0x4e
 121 0004 00000000 		.4byte	.LEHB0-.LFB7
 122 0008 00000000 		.4byte	.LEHE0-.LEHB0
 123 000c 00000000 		.4byte	0
 124 0010 00       		.byte	0
 125 0011 00000000 		.4byte	.LEHB1-.LFB7
 126 0015 00000000 		.4byte	.LEHE1-.LEHB1
 127 0019 00000000 		.4byte	.L4-.LFB7
 128 001d 00       		.byte	0
 129 001e 00000000 		.4byte	.LEHB2-.LFB7
 130 0022 00000000 		.4byte	.LEHE2-.LEHB2
 131 0026 00000000 		.4byte	0
 132 002a 00       		.byte	0
 133 002b 00000000 		.4byte	.LEHB3-.LFB7
 134 002f 00000000 		.4byte	.LEHE3-.LEHB3
 135 0033 00000000 		.4byte	.L5-.LFB7
 136 0037 00       		.byte	0
 137 0038 00000000 		.4byte	.LEHB4-.LFB7
 138 003c 00000000 		.4byte	.LEHE4-.LEHB4
 139 0040 00000000 		.4byte	0
 140 0044 00       		.byte	0
 141 0045 00000000 		.4byte	.LEHB5-.LFB7
 142 0049 00000000 		.4byte	.LEHE5-.LEHB5
 143 004d 00000000 		.4byte	0
 144 0051 00       		.byte	0
 145              		.text
 147              		.globl	_ZN8IOBufferC1Ev
 148              		.set	_ZN8IOBufferC1Ev,_ZN8IOBufferC2Ev
 149              		.align	2
 150              		.globl	_ZN8IOBuffer7putCharEc
 152              	_ZN8IOBuffer7putCharEc:
 153              	.LFB9:
   6:src/IOBuffer.cpp **** 
   7:src/IOBuffer.cpp **** void IOBuffer::putChar(char c) {
 154              		.loc 1 7 32 is_stmt 1
 155              		.cfi_startproc
 156              	.LVL14:
 157 00c0 130101FE 		addi	sp,sp,-32
GAS LISTING /tmp/ccOSkcKz.s 			page 4


 158              		.cfi_def_cfa_offset 32
 159 00c4 233C1100 		sd	ra,24(sp)
 160 00c8 23388100 		sd	s0,16(sp)
 161 00cc 23349100 		sd	s1,8(sp)
 162 00d0 23302101 		sd	s2,0(sp)
 163              		.cfi_offset 1, -8
 164              		.cfi_offset 8, -16
 165              		.cfi_offset 9, -24
 166              		.cfi_offset 18, -32
 167 00d4 13040102 		addi	s0,sp,32
 168              		.cfi_def_cfa 8, 0
 169 00d8 93040500 		mv	s1,a0
 170 00dc 13890500 		mv	s2,a1
   8:src/IOBuffer.cpp ****     semOut->wait();
 171              		.loc 1 8 5
 172              		.loc 1 8 17 is_stmt 0
 173 00e0 03358500 		ld	a0,8(a0)
 174              	.LVL15:
 175 00e4 97000000 		call	_ZN4SemC4waitEv@plt
 175      E7800000 
 176              	.LVL16:
   9:src/IOBuffer.cpp ****     semIn->signal();
 177              		.loc 1 9 5 is_stmt 1
 178              		.loc 1 9 18 is_stmt 0
 179 00ec 03B50400 		ld	a0,0(s1)
 180 00f0 97000000 		call	_ZN4SemC6signalEv@plt
 180      E7800000 
 181              	.LVL17:
  10:src/IOBuffer.cpp ****     buf[head]=c;
 182              		.loc 1 10 5 is_stmt 1
 183              		.loc 1 10 9 is_stmt 0
 184 00f8 83A70401 		lw	a5,16(s1)
 185              		.loc 1 10 14
 186 00fc 3387F400 		add	a4,s1,a5
 187 0100 23002703 		sb	s2,32(a4)
  11:src/IOBuffer.cpp ****     items++;
 188              		.loc 1 11 5 is_stmt 1
 189 0104 03A78401 		lw	a4,24(s1)
 190              		.loc 1 11 10 is_stmt 0
 191 0108 1B071700 		addiw	a4,a4,1
 192 010c 23ACE400 		sw	a4,24(s1)
  12:src/IOBuffer.cpp ****     slots--;
 193              		.loc 1 12 5 is_stmt 1
 194 0110 03A7C401 		lw	a4,28(s1)
 195              		.loc 1 12 10 is_stmt 0
 196 0114 1B07F7FF 		addiw	a4,a4,-1
 197 0118 23AEE400 		sw	a4,28(s1)
  13:src/IOBuffer.cpp ****     head=head>=BUF_SIZE-1?0:head+1;
 198              		.loc 1 13 5 is_stmt 1
 199              		.loc 1 13 26 is_stmt 0
 200 011c 1307E00F 		li	a4,254
 201 0120 6342F702 		bgt	a5,a4,.L10
 202              		.loc 1 13 26 discriminator 1
 203 0124 9B871700 		addiw	a5,a5,1
 204              	.L9:
 205              		.loc 1 13 9 discriminator 4
 206 0128 23A8F400 		sw	a5,16(s1)
GAS LISTING /tmp/ccOSkcKz.s 			page 5


  14:src/IOBuffer.cpp **** }
 207              		.loc 1 14 1 discriminator 4
 208 012c 83308101 		ld	ra,24(sp)
 209              		.cfi_remember_state
 210              		.cfi_restore 1
 211 0130 03340101 		ld	s0,16(sp)
 212              		.cfi_restore 8
 213              		.cfi_def_cfa 2, 32
 214 0134 83348100 		ld	s1,8(sp)
 215              		.cfi_restore 9
 216              	.LVL18:
 217 0138 03390100 		ld	s2,0(sp)
 218              		.cfi_restore 18
 219 013c 13010102 		addi	sp,sp,32
 220              		.cfi_def_cfa_offset 0
 221 0140 67800000 		jr	ra
 222              	.LVL19:
 223              	.L10:
 224              		.cfi_restore_state
  13:src/IOBuffer.cpp ****     head=head>=BUF_SIZE-1?0:head+1;
 225              		.loc 1 13 26
 226 0144 93070000 		li	a5,0
 227 0148 6FF01FFE 		j	.L9
 228              		.cfi_endproc
 229              	.LFE9:
 231              		.align	2
 232              		.globl	_ZN8IOBuffer18putCharNonBlockingEc
 234              	_ZN8IOBuffer18putCharNonBlockingEc:
 235              	.LFB10:
  15:src/IOBuffer.cpp **** 
  16:src/IOBuffer.cpp **** void IOBuffer::putCharNonBlocking(char c) {
 236              		.loc 1 16 43 is_stmt 1
 237              		.cfi_startproc
 238              	.LVL20:
 239 014c 130101FE 		addi	sp,sp,-32
 240              		.cfi_def_cfa_offset 32
 241 0150 233C1100 		sd	ra,24(sp)
 242 0154 23388100 		sd	s0,16(sp)
 243 0158 23349100 		sd	s1,8(sp)
 244 015c 23302101 		sd	s2,0(sp)
 245              		.cfi_offset 1, -8
 246              		.cfi_offset 8, -16
 247              		.cfi_offset 9, -24
 248              		.cfi_offset 18, -32
 249 0160 13040102 		addi	s0,sp,32
 250              		.cfi_def_cfa 8, 0
 251 0164 93040500 		mv	s1,a0
 252 0168 13890500 		mv	s2,a1
  17:src/IOBuffer.cpp ****     semOut->trywait();
 253              		.loc 1 17 5
 254              		.loc 1 17 20 is_stmt 0
 255 016c 03358500 		ld	a0,8(a0)
 256              	.LVL21:
 257 0170 97000000 		call	_ZN4SemC7trywaitEv@plt
 257      E7800000 
 258              	.LVL22:
  18:src/IOBuffer.cpp ****     semIn->signal();
GAS LISTING /tmp/ccOSkcKz.s 			page 6


 259              		.loc 1 18 5 is_stmt 1
 260              		.loc 1 18 18 is_stmt 0
 261 0178 03B50400 		ld	a0,0(s1)
 262 017c 97000000 		call	_ZN4SemC6signalEv@plt
 262      E7800000 
 263              	.LVL23:
  19:src/IOBuffer.cpp ****     buf[head]=c;
 264              		.loc 1 19 5 is_stmt 1
 265              		.loc 1 19 9 is_stmt 0
 266 0184 83A70401 		lw	a5,16(s1)
 267              		.loc 1 19 14
 268 0188 3387F400 		add	a4,s1,a5
 269 018c 23002703 		sb	s2,32(a4)
  20:src/IOBuffer.cpp ****     items++;
 270              		.loc 1 20 5 is_stmt 1
 271 0190 03A78401 		lw	a4,24(s1)
 272              		.loc 1 20 10 is_stmt 0
 273 0194 1B071700 		addiw	a4,a4,1
 274 0198 23ACE400 		sw	a4,24(s1)
  21:src/IOBuffer.cpp ****     slots--;
 275              		.loc 1 21 5 is_stmt 1
 276 019c 03A7C401 		lw	a4,28(s1)
 277              		.loc 1 21 10 is_stmt 0
 278 01a0 1B07F7FF 		addiw	a4,a4,-1
 279 01a4 23AEE400 		sw	a4,28(s1)
  22:src/IOBuffer.cpp ****     head=head>=BUF_SIZE-1?0:head+1;
 280              		.loc 1 22 5 is_stmt 1
 281              		.loc 1 22 26 is_stmt 0
 282 01a8 1307E00F 		li	a4,254
 283 01ac 6342F702 		bgt	a5,a4,.L14
 284              		.loc 1 22 26 discriminator 1
 285 01b0 9B871700 		addiw	a5,a5,1
 286              	.L13:
 287              		.loc 1 22 9 discriminator 4
 288 01b4 23A8F400 		sw	a5,16(s1)
  23:src/IOBuffer.cpp **** }
 289              		.loc 1 23 1 discriminator 4
 290 01b8 83308101 		ld	ra,24(sp)
 291              		.cfi_remember_state
 292              		.cfi_restore 1
 293 01bc 03340101 		ld	s0,16(sp)
 294              		.cfi_restore 8
 295              		.cfi_def_cfa 2, 32
 296 01c0 83348100 		ld	s1,8(sp)
 297              		.cfi_restore 9
 298              	.LVL24:
 299 01c4 03390100 		ld	s2,0(sp)
 300              		.cfi_restore 18
 301 01c8 13010102 		addi	sp,sp,32
 302              		.cfi_def_cfa_offset 0
 303 01cc 67800000 		jr	ra
 304              	.LVL25:
 305              	.L14:
 306              		.cfi_restore_state
  22:src/IOBuffer.cpp ****     head=head>=BUF_SIZE-1?0:head+1;
 307              		.loc 1 22 26
 308 01d0 93070000 		li	a5,0
GAS LISTING /tmp/ccOSkcKz.s 			page 7


 309 01d4 6FF01FFE 		j	.L13
 310              		.cfi_endproc
 311              	.LFE10:
 313              		.align	2
 314              		.globl	_ZN8IOBuffer18getCharNonBlockingEv
 316              	_ZN8IOBuffer18getCharNonBlockingEv:
 317              	.LFB11:
  24:src/IOBuffer.cpp **** 
  25:src/IOBuffer.cpp **** char IOBuffer::getCharNonBlocking() {
 318              		.loc 1 25 37 is_stmt 1
 319              		.cfi_startproc
 320              	.LVL26:
 321 01d8 130101FE 		addi	sp,sp,-32
 322              		.cfi_def_cfa_offset 32
 323 01dc 233C1100 		sd	ra,24(sp)
 324 01e0 23388100 		sd	s0,16(sp)
 325 01e4 23349100 		sd	s1,8(sp)
 326              		.cfi_offset 1, -8
 327              		.cfi_offset 8, -16
 328              		.cfi_offset 9, -24
 329 01e8 13040102 		addi	s0,sp,32
 330              		.cfi_def_cfa 8, 0
 331 01ec 93040500 		mv	s1,a0
  26:src/IOBuffer.cpp ****     semIn->trywait();
 332              		.loc 1 26 5
 333              		.loc 1 26 19 is_stmt 0
 334 01f0 03350500 		ld	a0,0(a0)
 335              	.LVL27:
 336 01f4 97000000 		call	_ZN4SemC7trywaitEv@plt
 336      E7800000 
 337              	.LVL28:
  27:src/IOBuffer.cpp ****     semOut->signal();
 338              		.loc 1 27 5 is_stmt 1
 339              		.loc 1 27 19 is_stmt 0
 340 01fc 03B58400 		ld	a0,8(s1)
 341 0200 97000000 		call	_ZN4SemC6signalEv@plt
 341      E7800000 
 342              	.LVL29:
  28:src/IOBuffer.cpp ****     char ret=buf[tail];
 343              		.loc 1 28 5 is_stmt 1
 344              		.loc 1 28 18 is_stmt 0
 345 0208 83A74401 		lw	a5,20(s1)
 346              		.loc 1 28 10
 347 020c 3387F400 		add	a4,s1,a5
 348 0210 03450702 		lbu	a0,32(a4)
 349              	.LVL30:
  29:src/IOBuffer.cpp ****     items--;
 350              		.loc 1 29 5 is_stmt 1
 351 0214 03A78401 		lw	a4,24(s1)
 352              		.loc 1 29 10 is_stmt 0
 353 0218 1B07F7FF 		addiw	a4,a4,-1
 354 021c 23ACE400 		sw	a4,24(s1)
  30:src/IOBuffer.cpp ****     slots++;
 355              		.loc 1 30 5 is_stmt 1
 356 0220 03A7C401 		lw	a4,28(s1)
 357              		.loc 1 30 10 is_stmt 0
 358 0224 1B071700 		addiw	a4,a4,1
GAS LISTING /tmp/ccOSkcKz.s 			page 8


 359 0228 23AEE400 		sw	a4,28(s1)
  31:src/IOBuffer.cpp ****     tail=tail>=BUF_SIZE-1?0:tail+1;
 360              		.loc 1 31 5 is_stmt 1
 361              		.loc 1 31 26 is_stmt 0
 362 022c 1307E00F 		li	a4,254
 363 0230 6340F702 		bgt	a5,a4,.L18
 364              		.loc 1 31 26 discriminator 1
 365 0234 9B871700 		addiw	a5,a5,1
 366              	.L17:
 367              		.loc 1 31 9 discriminator 4
 368 0238 23AAF400 		sw	a5,20(s1)
  32:src/IOBuffer.cpp ****     return ret;
 369              		.loc 1 32 5 is_stmt 1 discriminator 4
  33:src/IOBuffer.cpp **** }
 370              		.loc 1 33 1 is_stmt 0 discriminator 4
 371 023c 83308101 		ld	ra,24(sp)
 372              		.cfi_remember_state
 373              		.cfi_restore 1
 374 0240 03340101 		ld	s0,16(sp)
 375              		.cfi_restore 8
 376              		.cfi_def_cfa 2, 32
 377 0244 83348100 		ld	s1,8(sp)
 378              		.cfi_restore 9
 379              	.LVL31:
 380 0248 13010102 		addi	sp,sp,32
 381              		.cfi_def_cfa_offset 0
 382 024c 67800000 		jr	ra
 383              	.LVL32:
 384              	.L18:
 385              		.cfi_restore_state
  31:src/IOBuffer.cpp ****     tail=tail>=BUF_SIZE-1?0:tail+1;
 386              		.loc 1 31 26
 387 0250 93070000 		li	a5,0
 388 0254 6FF05FFE 		j	.L17
 389              		.cfi_endproc
 390              	.LFE11:
 392              		.align	2
 393              		.globl	_ZN8IOBuffer7getCharEv
 395              	_ZN8IOBuffer7getCharEv:
 396              	.LFB12:
  34:src/IOBuffer.cpp **** char IOBuffer::getChar() {
 397              		.loc 1 34 26 is_stmt 1
 398              		.cfi_startproc
 399              	.LVL33:
 400 0258 130101FE 		addi	sp,sp,-32
 401              		.cfi_def_cfa_offset 32
 402 025c 233C1100 		sd	ra,24(sp)
 403 0260 23388100 		sd	s0,16(sp)
 404 0264 23349100 		sd	s1,8(sp)
 405              		.cfi_offset 1, -8
 406              		.cfi_offset 8, -16
 407              		.cfi_offset 9, -24
 408 0268 13040102 		addi	s0,sp,32
 409              		.cfi_def_cfa 8, 0
 410 026c 93040500 		mv	s1,a0
  35:src/IOBuffer.cpp ****     semIn->wait();
 411              		.loc 1 35 5
GAS LISTING /tmp/ccOSkcKz.s 			page 9


 412              		.loc 1 35 16 is_stmt 0
 413 0270 03350500 		ld	a0,0(a0)
 414              	.LVL34:
 415 0274 97000000 		call	_ZN4SemC4waitEv@plt
 415      E7800000 
 416              	.LVL35:
  36:src/IOBuffer.cpp ****     semOut->signal();
 417              		.loc 1 36 5 is_stmt 1
 418              		.loc 1 36 19 is_stmt 0
 419 027c 03B58400 		ld	a0,8(s1)
 420 0280 97000000 		call	_ZN4SemC6signalEv@plt
 420      E7800000 
 421              	.LVL36:
  37:src/IOBuffer.cpp ****     char ret=buf[tail];
 422              		.loc 1 37 5 is_stmt 1
 423              		.loc 1 37 18 is_stmt 0
 424 0288 83A74401 		lw	a5,20(s1)
 425              		.loc 1 37 10
 426 028c 3387F400 		add	a4,s1,a5
 427 0290 03450702 		lbu	a0,32(a4)
 428              	.LVL37:
  38:src/IOBuffer.cpp ****     items--;
 429              		.loc 1 38 5 is_stmt 1
 430 0294 03A78401 		lw	a4,24(s1)
 431              		.loc 1 38 10 is_stmt 0
 432 0298 1B07F7FF 		addiw	a4,a4,-1
 433 029c 23ACE400 		sw	a4,24(s1)
  39:src/IOBuffer.cpp ****     slots++;
 434              		.loc 1 39 5 is_stmt 1
 435 02a0 03A7C401 		lw	a4,28(s1)
 436              		.loc 1 39 10 is_stmt 0
 437 02a4 1B071700 		addiw	a4,a4,1
 438 02a8 23AEE400 		sw	a4,28(s1)
  40:src/IOBuffer.cpp ****     tail=tail>=BUF_SIZE-1?0:tail+1;
 439              		.loc 1 40 5 is_stmt 1
 440              		.loc 1 40 26 is_stmt 0
 441 02ac 1307E00F 		li	a4,254
 442 02b0 6340F702 		bgt	a5,a4,.L22
 443              		.loc 1 40 26 discriminator 1
 444 02b4 9B871700 		addiw	a5,a5,1
 445              	.L21:
 446              		.loc 1 40 9 discriminator 4
 447 02b8 23AAF400 		sw	a5,20(s1)
  41:src/IOBuffer.cpp ****     return ret;
 448              		.loc 1 41 5 is_stmt 1 discriminator 4
  42:src/IOBuffer.cpp **** }
 449              		.loc 1 42 1 is_stmt 0 discriminator 4
 450 02bc 83308101 		ld	ra,24(sp)
 451              		.cfi_remember_state
 452              		.cfi_restore 1
 453 02c0 03340101 		ld	s0,16(sp)
 454              		.cfi_restore 8
 455              		.cfi_def_cfa 2, 32
 456 02c4 83348100 		ld	s1,8(sp)
 457              		.cfi_restore 9
 458              	.LVL38:
 459 02c8 13010102 		addi	sp,sp,32
GAS LISTING /tmp/ccOSkcKz.s 			page 10


 460              		.cfi_def_cfa_offset 0
 461 02cc 67800000 		jr	ra
 462              	.LVL39:
 463              	.L22:
 464              		.cfi_restore_state
  40:src/IOBuffer.cpp ****     tail=tail>=BUF_SIZE-1?0:tail+1;
 465              		.loc 1 40 26
 466 02d0 93070000 		li	a5,0
 467 02d4 6FF05FFE 		j	.L21
 468              		.cfi_endproc
 469              	.LFE12:
 471              		.align	2
 472              		.globl	_ZNK8IOBuffer8getItemsEv
 474              	_ZNK8IOBuffer8getItemsEv:
 475              	.LFB13:
  43:src/IOBuffer.cpp **** 
  44:src/IOBuffer.cpp **** int IOBuffer::getItems() const {
 476              		.loc 1 44 32 is_stmt 1
 477              		.cfi_startproc
 478              	.LVL40:
 479 02d8 130101FF 		addi	sp,sp,-16
 480              		.cfi_def_cfa_offset 16
 481 02dc 23348100 		sd	s0,8(sp)
 482              		.cfi_offset 8, -8
 483 02e0 13040101 		addi	s0,sp,16
 484              		.cfi_def_cfa 8, 0
  45:src/IOBuffer.cpp ****     return items;
 485              		.loc 1 45 5
  46:src/IOBuffer.cpp **** }
 486              		.loc 1 46 1 is_stmt 0
 487 02e4 03258501 		lw	a0,24(a0)
 488              	.LVL41:
 489 02e8 03348100 		ld	s0,8(sp)
 490              		.cfi_restore 8
 491              		.cfi_def_cfa 2, 16
 492 02ec 13010101 		addi	sp,sp,16
 493              		.cfi_def_cfa_offset 0
 494 02f0 67800000 		jr	ra
 495              		.cfi_endproc
 496              	.LFE13:
 498              		.align	2
 499              		.globl	_ZNK8IOBuffer8getSlotsEv
 501              	_ZNK8IOBuffer8getSlotsEv:
 502              	.LFB14:
  47:src/IOBuffer.cpp **** 
  48:src/IOBuffer.cpp **** int IOBuffer::getSlots() const {
 503              		.loc 1 48 32 is_stmt 1
 504              		.cfi_startproc
 505              	.LVL42:
 506 02f4 130101FF 		addi	sp,sp,-16
 507              		.cfi_def_cfa_offset 16
 508 02f8 23348100 		sd	s0,8(sp)
 509              		.cfi_offset 8, -8
 510 02fc 13040101 		addi	s0,sp,16
 511              		.cfi_def_cfa 8, 0
  49:src/IOBuffer.cpp ****     return slots;
 512              		.loc 1 49 5
GAS LISTING /tmp/ccOSkcKz.s 			page 11


  50:src/IOBuffer.cpp **** }
 513              		.loc 1 50 1 is_stmt 0
 514 0300 0325C501 		lw	a0,28(a0)
 515              	.LVL43:
 516 0304 03348100 		ld	s0,8(sp)
 517              		.cfi_restore 8
 518              		.cfi_def_cfa 2, 16
 519 0308 13010101 		addi	sp,sp,16
 520              		.cfi_def_cfa_offset 0
 521 030c 67800000 		jr	ra
 522              		.cfi_endproc
 523              	.LFE14:
 525              	.Letext0:
 526              		.file 2 "src/../h/../lib/hw.h"
 527              		.file 3 "src/../h/TCB.hpp"
 528              		.file 4 "src/../h/SemC.hpp"
 529              		.file 5 "src/../h/BlockedQueue.hpp"
 530              		.file 6 "src/../h/IOBuffer.hpp"
 531              		.file 7 "src/../h/syscall_c.hpp"
 3125              		.align	3
 3128              	DW.ref.__gxx_personality_v0:
 3129 0000 00000000 		.dword	__gxx_personality_v0
 3129      00000000 
 3130              		.ident	"GCC: (Ubuntu 9.4.0-1ubuntu1~20.04) 9.4.0"
 3131              		.section	.note.GNU-stack,"",@progbits
GAS LISTING /tmp/ccOSkcKz.s 			page 12

