GAS LISTING /tmp/ccT4iH2I.s 			page 1


   1              		.file	"KernelThreads.cpp"
   2              		.option pic
   3              		.option norelax
   4              		.text
   5              	.Ltext0:
   6              		.align	2
   7              		.globl	_ZN13KernelThreads16IOKernelThreadInEPv
   9              	_ZN13KernelThreads16IOKernelThreadInEPv:
  10              	.LFB32:
  11              		.file 1 "src/KernelThreads.cpp"
   1:src/KernelThreads.cpp **** #include "../h/KernelThreads.hpp"
   2:src/KernelThreads.cpp **** void KernelThreads::IOKernelThreadIn(void *a) {
  12              		.loc 1 2 47
  13              		.cfi_startproc
  14              	.LVL0:
  15 0000 130101FF 		addi	sp,sp,-16
  16              		.cfi_def_cfa_offset 16
  17 0004 23341100 		sd	ra,8(sp)
  18 0008 23308100 		sd	s0,0(sp)
  19              		.cfi_offset 1, -8
  20              		.cfi_offset 8, -16
  21 000c 13040101 		addi	s0,sp,16
  22              		.cfi_def_cfa 8, 0
   3:src/KernelThreads.cpp ****     Riscv::ms_sstatus(Riscv::SSTATUS_SIE);
  23              		.loc 1 3 5
  24              	.LVL1:
  25              	.LBB6:
  26              	.LBB7:
  27              		.file 2 "src/../h/Riscv.hpp"
   1:src/../h/Riscv.hpp **** //
   2:src/../h/Riscv.hpp **** // Created by os on 6/21/24.
   3:src/../h/Riscv.hpp **** //
   4:src/../h/Riscv.hpp **** 
   5:src/../h/Riscv.hpp **** #ifndef PROJECT_BASE_V1_1_2_RISCV_HPP
   6:src/../h/Riscv.hpp **** #define PROJECT_BASE_V1_1_2_RISCV_HPP
   7:src/../h/Riscv.hpp **** #include "../lib/hw.h"
   8:src/../h/Riscv.hpp **** #include "codes.hpp"
   9:src/../h/Riscv.hpp **** class Riscv
  10:src/../h/Riscv.hpp **** {
  11:src/../h/Riscv.hpp **** public:
  12:src/../h/Riscv.hpp **** 
  13:src/../h/Riscv.hpp ****     // pop sstatus.spp and sstatus.spie bits (has to be a non inline function)
  14:src/../h/Riscv.hpp ****     static void popSppSpie();
  15:src/../h/Riscv.hpp ****     static void halt();
  16:src/../h/Riscv.hpp ****     static uint64 r_sie();
  17:src/../h/Riscv.hpp ****     static void w_sie(uint64);
  18:src/../h/Riscv.hpp ****     // read register scause
  19:src/../h/Riscv.hpp ****     static uint64 r_scause();
  20:src/../h/Riscv.hpp **** 
  21:src/../h/Riscv.hpp ****     // write register scause
  22:src/../h/Riscv.hpp ****     static void w_scause(uint64 scause);
  23:src/../h/Riscv.hpp ****     static uint64 r_a0();
  24:src/../h/Riscv.hpp ****     static uint64 r_a1();
  25:src/../h/Riscv.hpp ****     static uint64 r_a2();
  26:src/../h/Riscv.hpp ****     static uint64 r_a3();
  27:src/../h/Riscv.hpp ****     static uint64 r_a4();
  28:src/../h/Riscv.hpp ****     // read register sepc
GAS LISTING /tmp/ccT4iH2I.s 			page 2


  29:src/../h/Riscv.hpp ****     static uint64 r_sepc();
  30:src/../h/Riscv.hpp **** 
  31:src/../h/Riscv.hpp ****     // write register sepc
  32:src/../h/Riscv.hpp ****     static void w_sepc(uint64 sepc);
  33:src/../h/Riscv.hpp **** 
  34:src/../h/Riscv.hpp ****     // read register stvec
  35:src/../h/Riscv.hpp ****     static uint64 r_stvec();
  36:src/../h/Riscv.hpp **** 
  37:src/../h/Riscv.hpp ****     // write register stvec
  38:src/../h/Riscv.hpp ****     static void w_stvec(uint64 stvec);
  39:src/../h/Riscv.hpp **** 
  40:src/../h/Riscv.hpp ****     // read register stval
  41:src/../h/Riscv.hpp ****     static uint64 r_stval();
  42:src/../h/Riscv.hpp **** 
  43:src/../h/Riscv.hpp ****     // write register stval
  44:src/../h/Riscv.hpp ****     static void w_stval(uint64 stval);
  45:src/../h/Riscv.hpp **** 
  46:src/../h/Riscv.hpp ****     enum BitMaskSip
  47:src/../h/Riscv.hpp ****     {
  48:src/../h/Riscv.hpp ****         SIP_SSIP = (1 << 1),
  49:src/../h/Riscv.hpp ****         SIP_STIP = (1 << 5),
  50:src/../h/Riscv.hpp ****         SIP_SEIP = (1 << 9),
  51:src/../h/Riscv.hpp ****     };
  52:src/../h/Riscv.hpp **** 
  53:src/../h/Riscv.hpp ****     // mask set register sip
  54:src/../h/Riscv.hpp ****     static void ms_sip(uint64 mask);
  55:src/../h/Riscv.hpp **** 
  56:src/../h/Riscv.hpp ****     // mask clear register sip
  57:src/../h/Riscv.hpp ****     static void mc_sip(uint64 mask);
  58:src/../h/Riscv.hpp ****     // read register sip
  59:src/../h/Riscv.hpp ****     static uint64 r_sip();
  60:src/../h/Riscv.hpp ****     static void enable_external_interrupts();
  61:src/../h/Riscv.hpp ****     static void disable_external_interrupts();
  62:src/../h/Riscv.hpp ****     // write register sip
  63:src/../h/Riscv.hpp ****     static void w_sip(uint64 sip);
  64:src/../h/Riscv.hpp **** 
  65:src/../h/Riscv.hpp ****     enum BitMaskSstatus
  66:src/../h/Riscv.hpp ****     {
  67:src/../h/Riscv.hpp ****         SSTATUS_SIE = (1 << 1),
  68:src/../h/Riscv.hpp ****         SSTATUS_SPIE = (1 << 5),
  69:src/../h/Riscv.hpp ****         SSTATUS_SPP = (1 << 8),
  70:src/../h/Riscv.hpp ****     };
  71:src/../h/Riscv.hpp **** 
  72:src/../h/Riscv.hpp ****     // mask set register sstatus
  73:src/../h/Riscv.hpp ****     static void ms_sstatus(uint64 mask);
  74:src/../h/Riscv.hpp **** 
  75:src/../h/Riscv.hpp ****     // mask clear register sstatus
  76:src/../h/Riscv.hpp ****     static void mc_sstatus(uint64 mask);
  77:src/../h/Riscv.hpp **** 
  78:src/../h/Riscv.hpp ****     // read register sstatus
  79:src/../h/Riscv.hpp ****     static uint64 r_sstatus();
  80:src/../h/Riscv.hpp **** 
  81:src/../h/Riscv.hpp ****     // write register sstatus
  82:src/../h/Riscv.hpp ****     static void w_sstatus(uint64 sstatus);
  83:src/../h/Riscv.hpp ****     static void trap();
  84:src/../h/Riscv.hpp ****     static void contextHandler();
  85:src/../h/Riscv.hpp **** private:
GAS LISTING /tmp/ccT4iH2I.s 			page 3


  86:src/../h/Riscv.hpp **** 
  87:src/../h/Riscv.hpp ****     static void handleSyscall();
  88:src/../h/Riscv.hpp ****     static void handleTimer();
  89:src/../h/Riscv.hpp ****     static void handleConsole();
  90:src/../h/Riscv.hpp **** };
  91:src/../h/Riscv.hpp **** inline uint64 Riscv::r_sie()
  92:src/../h/Riscv.hpp **** {
  93:src/../h/Riscv.hpp ****     uint64 volatile sie;
  94:src/../h/Riscv.hpp ****     __asm__ volatile ("csrr %[sie], sie" : [sie] "=r"(sie));
  95:src/../h/Riscv.hpp ****     return sie;
  96:src/../h/Riscv.hpp **** }
  97:src/../h/Riscv.hpp **** inline void Riscv::w_sie(uint64 sie)
  98:src/../h/Riscv.hpp **** {
  99:src/../h/Riscv.hpp ****     __asm__ volatile ("csrw sie, %[sie]" : : [sie] "r"(sie));
 100:src/../h/Riscv.hpp **** }
 101:src/../h/Riscv.hpp **** inline uint64 Riscv::r_scause()
 102:src/../h/Riscv.hpp **** {
 103:src/../h/Riscv.hpp ****     uint64 volatile scause;
 104:src/../h/Riscv.hpp ****     __asm__ volatile ("csrr %[scause], scause" : [scause] "=r"(scause));
 105:src/../h/Riscv.hpp ****     return scause;
 106:src/../h/Riscv.hpp **** }
 107:src/../h/Riscv.hpp **** 
 108:src/../h/Riscv.hpp **** inline void Riscv::w_scause(uint64 scause)
 109:src/../h/Riscv.hpp **** {
 110:src/../h/Riscv.hpp ****     __asm__ volatile ("csrw scause, %[scause]" : : [scause] "r"(scause));
 111:src/../h/Riscv.hpp **** }
 112:src/../h/Riscv.hpp **** 
 113:src/../h/Riscv.hpp **** inline uint64 Riscv::r_sepc()
 114:src/../h/Riscv.hpp **** {
 115:src/../h/Riscv.hpp ****     uint64 volatile sepc;
 116:src/../h/Riscv.hpp ****     __asm__ volatile ("csrr %[sepc], sepc" : [sepc] "=r"(sepc));
 117:src/../h/Riscv.hpp ****     return sepc;
 118:src/../h/Riscv.hpp **** }
 119:src/../h/Riscv.hpp **** 
 120:src/../h/Riscv.hpp **** inline void Riscv::w_sepc(uint64 sepc)
 121:src/../h/Riscv.hpp **** {
 122:src/../h/Riscv.hpp ****     __asm__ volatile ("csrw sepc, %[sepc]" : : [sepc] "r"(sepc));
 123:src/../h/Riscv.hpp **** }
 124:src/../h/Riscv.hpp **** 
 125:src/../h/Riscv.hpp **** inline uint64 Riscv::r_stvec()
 126:src/../h/Riscv.hpp **** {
 127:src/../h/Riscv.hpp ****     uint64 volatile stvec;
 128:src/../h/Riscv.hpp ****     __asm__ volatile ("csrr %[stvec], stvec" : [stvec] "=r"(stvec));
 129:src/../h/Riscv.hpp ****     return stvec;
 130:src/../h/Riscv.hpp **** }
 131:src/../h/Riscv.hpp **** 
 132:src/../h/Riscv.hpp **** inline void Riscv::w_stvec(uint64 stvec)
 133:src/../h/Riscv.hpp **** {
 134:src/../h/Riscv.hpp ****     __asm__ volatile ("csrw stvec, %[stvec]" : : [stvec] "r"(stvec));
 135:src/../h/Riscv.hpp **** }
 136:src/../h/Riscv.hpp **** 
 137:src/../h/Riscv.hpp **** inline uint64 Riscv::r_stval()
 138:src/../h/Riscv.hpp **** {
 139:src/../h/Riscv.hpp ****     uint64 volatile stval;
 140:src/../h/Riscv.hpp ****     __asm__ volatile ("csrr %[stval], stval" : [stval] "=r"(stval));
 141:src/../h/Riscv.hpp ****     return stval;
 142:src/../h/Riscv.hpp **** }
GAS LISTING /tmp/ccT4iH2I.s 			page 4


 143:src/../h/Riscv.hpp **** 
 144:src/../h/Riscv.hpp **** inline void Riscv::w_stval(uint64 stval)
 145:src/../h/Riscv.hpp **** {
 146:src/../h/Riscv.hpp ****     __asm__ volatile ("csrw stval, %[stval]" : : [stval] "r"(stval));
 147:src/../h/Riscv.hpp **** }
 148:src/../h/Riscv.hpp **** 
 149:src/../h/Riscv.hpp **** inline void Riscv::ms_sip(uint64 mask)
 150:src/../h/Riscv.hpp **** {
 151:src/../h/Riscv.hpp ****     __asm__ volatile ("csrs sip, %[mask]" : : [mask] "r"(mask));
 152:src/../h/Riscv.hpp **** }
 153:src/../h/Riscv.hpp **** 
 154:src/../h/Riscv.hpp **** inline void Riscv::mc_sip(uint64 mask)
 155:src/../h/Riscv.hpp **** {
 156:src/../h/Riscv.hpp ****     __asm__ volatile ("csrc sip, %[mask]" : : [mask] "r"(mask));
 157:src/../h/Riscv.hpp **** }
 158:src/../h/Riscv.hpp **** 
 159:src/../h/Riscv.hpp **** inline uint64 Riscv::r_sip()
 160:src/../h/Riscv.hpp **** {
 161:src/../h/Riscv.hpp ****     uint64 volatile sip;
 162:src/../h/Riscv.hpp ****     __asm__ volatile ("csrr %[sip], sip" : [sip] "=r"(sip));
 163:src/../h/Riscv.hpp ****     return sip;
 164:src/../h/Riscv.hpp **** }
 165:src/../h/Riscv.hpp **** 
 166:src/../h/Riscv.hpp **** inline void Riscv::w_sip(uint64 sip)
 167:src/../h/Riscv.hpp **** {
 168:src/../h/Riscv.hpp ****     __asm__ volatile ("csrw sip, %[sip]" : : [sip] "r"(sip));
 169:src/../h/Riscv.hpp **** }
 170:src/../h/Riscv.hpp **** 
 171:src/../h/Riscv.hpp **** inline void Riscv::ms_sstatus(uint64 mask)
 172:src/../h/Riscv.hpp **** {
 173:src/../h/Riscv.hpp ****     __asm__ volatile ("csrs sstatus, %[mask]" : : [mask] "r"(mask));
  28              		.loc 2 173 5
  29              		.loc 2 173 68 is_stmt 0
  30 0010 93072000 		li	a5,2
  31              	#APP
  32              	# 173 "src/../h/Riscv.hpp" 1
 174              	}
  33              		csrs sstatus, a5
  34              	# 0 "" 2
  35              	.LVL2:
  36              	#NO_APP
  37              	.L2:
  38              	.LBE7:
  39              	.LBE6:
   4:src/KernelThreads.cpp ****     while(true){
  40              		.loc 1 4 5 is_stmt 1 discriminator 1
   5:src/KernelThreads.cpp ****         Riscv::enable_external_interrupts();
  41              		.loc 1 5 9 discriminator 1
  42              	.LBB8:
  43              	.LBB9:
 175:src/../h/Riscv.hpp **** 
 176:src/../h/Riscv.hpp **** inline void Riscv::mc_sstatus(uint64 mask)
 177:src/../h/Riscv.hpp **** {
 178:src/../h/Riscv.hpp ****     __asm__ volatile ("csrc sstatus, %[mask]" : : [mask] "r"(mask));
 179:src/../h/Riscv.hpp **** }
 180:src/../h/Riscv.hpp **** 
 181:src/../h/Riscv.hpp **** inline uint64 Riscv::r_sstatus()
GAS LISTING /tmp/ccT4iH2I.s 			page 5


 182:src/../h/Riscv.hpp **** {
 183:src/../h/Riscv.hpp ****     uint64 volatile sstatus;
 184:src/../h/Riscv.hpp ****     __asm__ volatile ("csrr %[sstatus], sstatus" : [sstatus] "=r"(sstatus));
 185:src/../h/Riscv.hpp ****     return sstatus;
 186:src/../h/Riscv.hpp **** }
 187:src/../h/Riscv.hpp **** inline void Riscv::enable_external_interrupts(){
 188:src/../h/Riscv.hpp ****     uint64 t=1<<9;
  44              		.loc 2 188 5 discriminator 1
 189:src/../h/Riscv.hpp ****     asm volatile("csrs sie, %0"::"r"(t));
  45              		.loc 2 189 5 discriminator 1
  46              		.loc 2 189 41 is_stmt 0 discriminator 1
  47 0018 93070020 		li	a5,512
  48              	#APP
  49              	# 189 "src/../h/Riscv.hpp" 1
 190              	}
  50              		csrs sie, a5
  51              	# 0 "" 2
  52              	#NO_APP
  53              	.LBE9:
  54              	.LBE8:
   6:src/KernelThreads.cpp ****         thread_dispatch();
  55              		.loc 1 6 9 is_stmt 1 discriminator 1
  56              		.loc 1 6 24 is_stmt 0 discriminator 1
  57 0020 97000000 		call	_Z15thread_dispatchv@plt
  57      E7800000 
  58              	.LVL3:
   4:src/KernelThreads.cpp ****         Riscv::enable_external_interrupts();
  59              		.loc 1 4 5 is_stmt 1 discriminator 1
  60 0028 6FF01FFF 		j	.L2
  61              		.cfi_endproc
  62              	.LFE32:
  64              		.align	2
  65              		.globl	_ZN13KernelThreads17IOKernelThreadOutEPv
  67              	_ZN13KernelThreads17IOKernelThreadOutEPv:
  68              	.LFB33:
   7:src/KernelThreads.cpp ****     }
   8:src/KernelThreads.cpp **** }
   9:src/KernelThreads.cpp **** 
  10:src/KernelThreads.cpp **** void KernelThreads::IOKernelThreadOut(void *a) {
  69              		.loc 1 10 48
  70              		.cfi_startproc
  71              	.LVL4:
  72 002c 130101FE 		addi	sp,sp,-32
  73              		.cfi_def_cfa_offset 32
  74 0030 233C1100 		sd	ra,24(sp)
  75 0034 23388100 		sd	s0,16(sp)
  76 0038 23349100 		sd	s1,8(sp)
  77 003c 23302101 		sd	s2,0(sp)
  78              		.cfi_offset 1, -8
  79              		.cfi_offset 8, -16
  80              		.cfi_offset 9, -24
  81              		.cfi_offset 18, -32
  82 0040 13040102 		addi	s0,sp,32
  83              		.cfi_def_cfa 8, 0
  84              	.LVL5:
  85              	.L5:
  11:src/KernelThreads.cpp ****     while(true){
GAS LISTING /tmp/ccT4iH2I.s 			page 6


  86              		.loc 1 11 5
  87              	.LBB10:
  12:src/KernelThreads.cpp ****         KernelConsole& console=KernelConsole::getConsoleInstance();
  88              		.loc 1 12 9
  89              		.loc 1 12 66 is_stmt 0
  90 0044 97000000 		call	_ZN13KernelConsole18getConsoleInstanceEv@plt
  90      E7800000 
  91              	.LVL6:
  92 004c 13090500 		mv	s2,a0
  93              	.LVL7:
  13:src/KernelThreads.cpp ****         int i=0;
  94              		.loc 1 13 9 is_stmt 1
  95              	.L8:
  96              	.LBE10:
  10:src/KernelThreads.cpp ****     while(true){
  97              		.loc 1 10 48 is_stmt 0
  98 0050 93040000 		li	s1,0
  99 0054 6F000002 		j	.L7
 100              	.LVL8:
 101              	.L6:
 102              	.LBB13:
 103              	.LBB11:
  14:src/KernelThreads.cpp ****         while((*((char*)CONSOLE_STATUS)&CONSOLE_TX_STATUS_BIT)){
  15:src/KernelThreads.cpp ****             char c=console.getCharOut();
  16:src/KernelThreads.cpp ****             if(c==13){
  17:src/KernelThreads.cpp ****                 c='\n';
  18:src/KernelThreads.cpp ****             }
  19:src/KernelThreads.cpp ****             *((char*)(CONSOLE_RX_DATA))=c;
 104              		.loc 1 19 13 is_stmt 1
 105 0058 97070000 		la	a5,CONSOLE_RX_DATA
 105      83B70700 
 106 0060 83B70700 		ld	a5,0(a5)
 107              		.loc 1 19 40 is_stmt 0
 108 0064 2380A700 		sb	a0,0(a5)
  20:src/KernelThreads.cpp ****             i++;
 109              		.loc 1 20 13 is_stmt 1
 110              		.loc 1 20 14 is_stmt 0
 111 0068 9B841400 		addiw	s1,s1,1
 112              	.LVL9:
  21:src/KernelThreads.cpp ****             if(i==32){
 113              		.loc 1 21 13 is_stmt 1
 114 006c 93070002 		li	a5,32
 115 0070 638CF402 		beq	s1,a5,.L11
 116              	.LVL10:
 117              	.L7:
 118              	.LBE11:
  14:src/KernelThreads.cpp ****         while((*((char*)CONSOLE_STATUS)&CONSOLE_TX_STATUS_BIT)){
 119              		.loc 1 14 9
  14:src/KernelThreads.cpp ****         while((*((char*)CONSOLE_STATUS)&CONSOLE_TX_STATUS_BIT)){
 120              		.loc 1 14 62
  14:src/KernelThreads.cpp ****         while((*((char*)CONSOLE_STATUS)&CONSOLE_TX_STATUS_BIT)){
 121              		.loc 1 14 16 is_stmt 0
 122 0074 97070000 		la	a5,CONSOLE_STATUS
 122      83B70700 
 123 007c 83B70700 		ld	a5,0(a5)
 124 0080 83C70700 		lbu	a5,0(a5)
  14:src/KernelThreads.cpp ****         while((*((char*)CONSOLE_STATUS)&CONSOLE_TX_STATUS_BIT)){
GAS LISTING /tmp/ccT4iH2I.s 			page 7


 125              		.loc 1 14 62
 126 0084 93F70702 		andi	a5,a5,32
 127 0088 E38E07FA 		beqz	a5,.L5
 128              	.LBB12:
  15:src/KernelThreads.cpp ****             if(c==13){
 129              		.loc 1 15 13 is_stmt 1
  15:src/KernelThreads.cpp ****             if(c==13){
 130              		.loc 1 15 38 is_stmt 0
 131 008c 13050900 		mv	a0,s2
 132 0090 97000000 		call	_ZN13KernelConsole10getCharOutEv@plt
 132      E7800000 
 133              	.LVL11:
  16:src/KernelThreads.cpp ****                 c='\n';
 134              		.loc 1 16 13 is_stmt 1
 135 0098 9307D000 		li	a5,13
 136 009c E31EF5FA 		bne	a0,a5,.L6
  17:src/KernelThreads.cpp ****             }
 137              		.loc 1 17 18 is_stmt 0
 138 00a0 1305A000 		li	a0,10
 139              	.LVL12:
 140 00a4 6FF05FFB 		j	.L6
 141              	.LVL13:
 142              	.L11:
  22:src/KernelThreads.cpp ****                 time_sleep(1);
 143              		.loc 1 22 17 is_stmt 1
 144              		.loc 1 22 27 is_stmt 0
 145 00a8 13051000 		li	a0,1
 146              	.LVL14:
 147 00ac 97000000 		call	_Z10time_sleepm@plt
 147      E7800000 
 148              	.LVL15:
  23:src/KernelThreads.cpp ****                 i=0;
 149              		.loc 1 23 17 is_stmt 1
 150 00b4 6FF0DFF9 		j	.L8
 151              	.LBE12:
 152              	.LBE13:
 153              		.cfi_endproc
 154              	.LFE33:
 156              		.align	2
 157              		.globl	_ZN13KernelThreads5idleFEPv
 159              	_ZN13KernelThreads5idleFEPv:
 160              	.LFB34:
  24:src/KernelThreads.cpp ****             }
  25:src/KernelThreads.cpp ****         }
  26:src/KernelThreads.cpp ****     }
  27:src/KernelThreads.cpp **** }
  28:src/KernelThreads.cpp **** 
  29:src/KernelThreads.cpp **** void KernelThreads::idleF(void *a) {
 161              		.loc 1 29 36
 162              		.cfi_startproc
 163              	.LVL16:
 164 00b8 130101FF 		addi	sp,sp,-16
 165              		.cfi_def_cfa_offset 16
 166 00bc 23341100 		sd	ra,8(sp)
 167 00c0 23308100 		sd	s0,0(sp)
 168              		.cfi_offset 1, -8
 169              		.cfi_offset 8, -16
GAS LISTING /tmp/ccT4iH2I.s 			page 8


 170 00c4 13040101 		addi	s0,sp,16
 171              		.cfi_def_cfa 8, 0
 172              	.LVL17:
 173              	.L13:
  30:src/KernelThreads.cpp ****     while(true){
 174              		.loc 1 30 5 discriminator 1
  31:src/KernelThreads.cpp ****         thread_dispatch();
 175              		.loc 1 31 9 discriminator 1
 176              		.loc 1 31 24 is_stmt 0 discriminator 1
 177 00c8 97000000 		call	_Z15thread_dispatchv@plt
 177      E7800000 
 178              	.LVL18:
  30:src/KernelThreads.cpp ****     while(true){
 179              		.loc 1 30 5 is_stmt 1 discriminator 1
 180 00d0 6FF09FFF 		j	.L13
 181              		.cfi_endproc
 182              	.LFE34:
 184              	.Letext0:
 185              		.file 3 "src/../h/../lib/hw.h"
 186              		.file 4 "src/../h/codes.hpp"
 187              		.file 5 "src/../h/TCB.hpp"
 188              		.file 6 "src/../h/SemC.hpp"
 189              		.file 7 "src/../h/BlockedQueue.hpp"
 190              		.file 8 "src/../h/IOBuffer.hpp"
 191              		.file 9 "src/../h/KernelConsole.hpp"
 192              		.file 10 "src/../h/KernelThreads.hpp"
 193              		.file 11 "src/../h/syscall_c.hpp"
GAS LISTING /tmp/ccT4iH2I.s 			page 9


DEFINED SYMBOLS
                            *ABS*:0000000000000000 KernelThreads.cpp
     /tmp/ccT4iH2I.s:9      .text:0000000000000000 _ZN13KernelThreads16IOKernelThreadInEPv
     /tmp/ccT4iH2I.s:13     .text:0000000000000000 .L0 
     /tmp/ccT4iH2I.s:15     .text:0000000000000000 .L0 
     /tmp/ccT4iH2I.s:16     .text:0000000000000004 .L0 
     /tmp/ccT4iH2I.s:19     .text:000000000000000c .L0 
     /tmp/ccT4iH2I.s:20     .text:000000000000000c .L0 
     /tmp/ccT4iH2I.s:22     .text:0000000000000010 .L0 
     /tmp/ccT4iH2I.s:28     .text:0000000000000010 .L0 
     /tmp/ccT4iH2I.s:29     .text:0000000000000010 .L0 
     /tmp/ccT4iH2I.s:30     .text:0000000000000010 .L0 
     /tmp/ccT4iH2I.s:41     .text:0000000000000018 .L0 
     /tmp/ccT4iH2I.s:44     .text:0000000000000018 .L0 
     /tmp/ccT4iH2I.s:45     .text:0000000000000018 .L0 
     /tmp/ccT4iH2I.s:46     .text:0000000000000018 .L0 
     /tmp/ccT4iH2I.s:47     .text:0000000000000018 .L0 
     /tmp/ccT4iH2I.s:56     .text:0000000000000020 .L0 
     /tmp/ccT4iH2I.s:57     .text:0000000000000020 .L0 
     /tmp/ccT4iH2I.s:60     .text:0000000000000028 .L0 
     /tmp/ccT4iH2I.s:61     .text:000000000000002c .L0 
     /tmp/ccT4iH2I.s:67     .text:000000000000002c _ZN13KernelThreads17IOKernelThreadOutEPv
     /tmp/ccT4iH2I.s:70     .text:000000000000002c .L0 
     /tmp/ccT4iH2I.s:72     .text:000000000000002c .L0 
     /tmp/ccT4iH2I.s:73     .text:0000000000000030 .L0 
     /tmp/ccT4iH2I.s:78     .text:0000000000000040 .L0 
     /tmp/ccT4iH2I.s:79     .text:0000000000000040 .L0 
     /tmp/ccT4iH2I.s:80     .text:0000000000000040 .L0 
     /tmp/ccT4iH2I.s:81     .text:0000000000000040 .L0 
     /tmp/ccT4iH2I.s:83     .text:0000000000000044 .L0 
     /tmp/ccT4iH2I.s:88     .text:0000000000000044 .L0 
     /tmp/ccT4iH2I.s:89     .text:0000000000000044 .L0 
     /tmp/ccT4iH2I.s:90     .text:0000000000000044 .L0 
     /tmp/ccT4iH2I.s:97     .text:0000000000000050 .L0 
     /tmp/ccT4iH2I.s:98     .text:0000000000000050 .L0 
     /tmp/ccT4iH2I.s:105    .text:0000000000000058 .L0 
     /tmp/ccT4iH2I.s:108    .text:0000000000000064 .L0 
     /tmp/ccT4iH2I.s:110    .text:0000000000000068 .L0 
     /tmp/ccT4iH2I.s:111    .text:0000000000000068 .L0 
     /tmp/ccT4iH2I.s:114    .text:000000000000006c .L0 
     /tmp/ccT4iH2I.s:120    .text:0000000000000074 .L0 
     /tmp/ccT4iH2I.s:121    .text:0000000000000074 .L0 
     /tmp/ccT4iH2I.s:122    .text:0000000000000074 .L0 
     /tmp/ccT4iH2I.s:126    .text:0000000000000084 .L0 
     /tmp/ccT4iH2I.s:130    .text:000000000000008c .L0 
     /tmp/ccT4iH2I.s:131    .text:000000000000008c .L0 
     /tmp/ccT4iH2I.s:135    .text:0000000000000098 .L0 
     /tmp/ccT4iH2I.s:138    .text:00000000000000a0 .L0 
     /tmp/ccT4iH2I.s:144    .text:00000000000000a8 .L0 
     /tmp/ccT4iH2I.s:145    .text:00000000000000a8 .L0 
     /tmp/ccT4iH2I.s:150    .text:00000000000000b4 .L0 
     /tmp/ccT4iH2I.s:153    .text:00000000000000b8 .L0 
     /tmp/ccT4iH2I.s:159    .text:00000000000000b8 _ZN13KernelThreads5idleFEPv
     /tmp/ccT4iH2I.s:162    .text:00000000000000b8 .L0 
     /tmp/ccT4iH2I.s:164    .text:00000000000000b8 .L0 
     /tmp/ccT4iH2I.s:165    .text:00000000000000bc .L0 
     /tmp/ccT4iH2I.s:168    .text:00000000000000c4 .L0 
GAS LISTING /tmp/ccT4iH2I.s 			page 10


     /tmp/ccT4iH2I.s:169    .text:00000000000000c4 .L0 
     /tmp/ccT4iH2I.s:171    .text:00000000000000c8 .L0 
     /tmp/ccT4iH2I.s:175    .text:00000000000000c8 .L0 
     /tmp/ccT4iH2I.s:176    .text:00000000000000c8 .L0 
     /tmp/ccT4iH2I.s:177    .text:00000000000000c8 .L0 
     /tmp/ccT4iH2I.s:180    .text:00000000000000d0 .L0 
     /tmp/ccT4iH2I.s:181    .text:00000000000000d4 .L0 
     /tmp/ccT4iH2I.s:194    .text:00000000000000d4 .L0 
     /tmp/ccT4iH2I.s:105    .text:0000000000000058 .L0 
     /tmp/ccT4iH2I.s:122    .text:0000000000000074 .L0 
     /tmp/ccT4iH2I.s:37     .text:0000000000000018 .L2
     /tmp/ccT4iH2I.s:117    .text:0000000000000074 .L7
     /tmp/ccT4iH2I.s:142    .text:00000000000000a8 .L11
     /tmp/ccT4iH2I.s:85     .text:0000000000000044 .L5
     /tmp/ccT4iH2I.s:101    .text:0000000000000058 .L6
     /tmp/ccT4iH2I.s:95     .text:0000000000000050 .L8
     /tmp/ccT4iH2I.s:173    .text:00000000000000c8 .L13
     /tmp/ccT4iH2I.s:2062   .debug_abbrev:0000000000000000 .Ldebug_abbrev0
     /tmp/ccT4iH2I.s:3585   .debug_str:0000000000000ce3 .LASF255
     /tmp/ccT4iH2I.s:3197   .debug_str:0000000000000029 .LASF256
     /tmp/ccT4iH2I.s:3379   .debug_str:00000000000005fb .LASF257
     /tmp/ccT4iH2I.s:5      .text:0000000000000000 .Ltext0
     /tmp/ccT4iH2I.s:184    .text:00000000000000d4 .Letext0
     /tmp/ccT4iH2I.s:3187   .debug_line:0000000000000000 .Ldebug_line0
     /tmp/ccT4iH2I.s:3349   .debug_str:000000000000051e .LASF0
     /tmp/ccT4iH2I.s:3383   .debug_str:000000000000064c .LASF1
     /tmp/ccT4iH2I.s:3517   .debug_str:0000000000000ad5 .LASF2
     /tmp/ccT4iH2I.s:3319   .debug_str:0000000000000427 .LASF3
     /tmp/ccT4iH2I.s:3523   .debug_str:0000000000000b00 .LASF4
     /tmp/ccT4iH2I.s:3363   .debug_str:000000000000057c .LASF5
     /tmp/ccT4iH2I.s:3199   .debug_str:000000000000003f .LASF6
     /tmp/ccT4iH2I.s:3487   .debug_str:00000000000009d9 .LASF7
     /tmp/ccT4iH2I.s:3475   .debug_str:0000000000000981 .LASF8
     /tmp/ccT4iH2I.s:3371   .debug_str:00000000000005bd .LASF9
     /tmp/ccT4iH2I.s:3315   .debug_str:000000000000040a .LASF10
     /tmp/ccT4iH2I.s:3333   .debug_str:0000000000000494 .LASF11
     /tmp/ccT4iH2I.s:3247   .debug_str:00000000000001eb .LASF12
     /tmp/ccT4iH2I.s:3307   .debug_str:00000000000003ad .LASF13
     /tmp/ccT4iH2I.s:3259   .debug_str:0000000000000244 .LASF14
     /tmp/ccT4iH2I.s:3245   .debug_str:00000000000001db .LASF15
     /tmp/ccT4iH2I.s:3559   .debug_str:0000000000000c07 .LASF16
     /tmp/ccT4iH2I.s:3287   .debug_str:0000000000000323 .LASF17
     /tmp/ccT4iH2I.s:3543   .debug_str:0000000000000b9a .LASF18
     /tmp/ccT4iH2I.s:3389   .debug_str:0000000000000688 .LASF19
     /tmp/ccT4iH2I.s:3367   .debug_str:000000000000059f .LASF20
     /tmp/ccT4iH2I.s:3711   .debug_str:0000000000001180 .LASF21
     /tmp/ccT4iH2I.s:3469   .debug_str:000000000000095d .LASF22
     /tmp/ccT4iH2I.s:3707   .debug_str:0000000000001163 .LASF23
     /tmp/ccT4iH2I.s:3237   .debug_str:0000000000000189 .LASF24
     /tmp/ccT4iH2I.s:3651   .debug_str:0000000000000fce .LASF25
     /tmp/ccT4iH2I.s:3675   .debug_str:000000000000105a .LASF26
     /tmp/ccT4iH2I.s:3303   .debug_str:0000000000000388 .LASF27
     /tmp/ccT4iH2I.s:3223   .debug_str:00000000000000f3 .LASF28
     /tmp/ccT4iH2I.s:3561   .debug_str:0000000000000c13 .LASF29
     /tmp/ccT4iH2I.s:3209   .debug_str:000000000000007c .LASF30
     /tmp/ccT4iH2I.s:3605   .debug_str:0000000000000e2a .LASF31
     /tmp/ccT4iH2I.s:3617   .debug_str:0000000000000e9c .LASF32
GAS LISTING /tmp/ccT4iH2I.s 			page 11


     /tmp/ccT4iH2I.s:3631   .debug_str:0000000000000f03 .LASF33
     /tmp/ccT4iH2I.s:3697   .debug_str:00000000000010fe .LASF34
     /tmp/ccT4iH2I.s:3225   .debug_str:0000000000000106 .LASF35
     /tmp/ccT4iH2I.s:3449   .debug_str:00000000000008ab .LASF36
     /tmp/ccT4iH2I.s:3325   .debug_str:0000000000000456 .LASF37
     /tmp/ccT4iH2I.s:3551   .debug_str:0000000000000be8 .LASF38
     /tmp/ccT4iH2I.s:3351   .debug_str:000000000000052b .LASF39
     /tmp/ccT4iH2I.s:3539   .debug_str:0000000000000b7f .LASF40
     /tmp/ccT4iH2I.s:3357   .debug_str:0000000000000552 .LASF41
     /tmp/ccT4iH2I.s:3655   .debug_str:0000000000000fe7 .LASF109
     /tmp/ccT4iH2I.s:3635   .debug_str:0000000000000f35 .LASF258
     /tmp/ccT4iH2I.s:3299   .debug_str:0000000000000376 .LASF42
     /tmp/ccT4iH2I.s:3583   .debug_str:0000000000000cd6 .LASF43
     /tmp/ccT4iH2I.s:3271   .debug_str:00000000000002ba .LASF44
     /tmp/ccT4iH2I.s:3339   .debug_str:00000000000004dd .LASF45
     /tmp/ccT4iH2I.s:3345   .debug_str:0000000000000500 .LASF47
     /tmp/ccT4iH2I.s:3677   .debug_str:0000000000001068 .LASF46
     /tmp/ccT4iH2I.s:3267   .debug_str:00000000000002a2 .LASF48
     /tmp/ccT4iH2I.s:3507   .debug_str:0000000000000a9e .LASF49
     /tmp/ccT4iH2I.s:3511   .debug_str:0000000000000aaf .LASF51
     /tmp/ccT4iH2I.s:3341   .debug_str:00000000000004e8 .LASF53
     /tmp/ccT4iH2I.s:3265   .debug_str:0000000000000290 .LASF55
     /tmp/ccT4iH2I.s:3623   .debug_str:0000000000000ec0 .LASF50
     /tmp/ccT4iH2I.s:3607   .debug_str:0000000000000e34 .LASF52
     /tmp/ccT4iH2I.s:3513   .debug_str:0000000000000ac1 .LASF54
     /tmp/ccT4iH2I.s:3459   .debug_str:000000000000090d .LASF56
     /tmp/ccT4iH2I.s:3663   .debug_str:0000000000001028 .LASF57
     /tmp/ccT4iH2I.s:3463   .debug_str:000000000000092f .LASF58
     /tmp/ccT4iH2I.s:3665   .debug_str:000000000000102d .LASF59
     /tmp/ccT4iH2I.s:3365   .debug_str:000000000000058e .LASF60
     /tmp/ccT4iH2I.s:3667   .debug_str:0000000000001032 .LASF61
     /tmp/ccT4iH2I.s:3273   .debug_str:00000000000002c6 .LASF62
     /tmp/ccT4iH2I.s:3669   .debug_str:0000000000001037 .LASF63
     /tmp/ccT4iH2I.s:3713   .debug_str:0000000000001193 .LASF64
     /tmp/ccT4iH2I.s:3671   .debug_str:000000000000103c .LASF65
     /tmp/ccT4iH2I.s:3599   .debug_str:0000000000000e06 .LASF66
     /tmp/ccT4iH2I.s:3491   .debug_str:00000000000009f6 .LASF67
     /tmp/ccT4iH2I.s:3499   .debug_str:0000000000000a4d .LASF68
     /tmp/ccT4iH2I.s:3445   .debug_str:000000000000088d .LASF69
     /tmp/ccT4iH2I.s:3375   .debug_str:00000000000005e3 .LASF70
     /tmp/ccT4iH2I.s:3435   .debug_str:0000000000000842 .LASF71
     /tmp/ccT4iH2I.s:3587   .debug_str:0000000000000da7 .LASF72
     /tmp/ccT4iH2I.s:3439   .debug_str:0000000000000869 .LASF73
     /tmp/ccT4iH2I.s:3457   .debug_str:00000000000008f9 .LASF74
     /tmp/ccT4iH2I.s:3391   .debug_str:0000000000000697 .LASF75
     /tmp/ccT4iH2I.s:3501   .debug_str:0000000000000a60 .LASF76
     /tmp/ccT4iH2I.s:3709   .debug_str:0000000000001178 .LASF77
     /tmp/ccT4iH2I.s:3355   .debug_str:000000000000053e .LASF78
     /tmp/ccT4iH2I.s:3555   .debug_str:0000000000000bf8 .LASF79
     /tmp/ccT4iH2I.s:3527   .debug_str:0000000000000b15 .LASF80
     /tmp/ccT4iH2I.s:3529   .debug_str:0000000000000b28 .LASF81
     /tmp/ccT4iH2I.s:3253   .debug_str:0000000000000211 .LASF82
     /tmp/ccT4iH2I.s:3281   .debug_str:0000000000000301 .LASF83
     /tmp/ccT4iH2I.s:3343   .debug_str:00000000000004ee .LASF84
     /tmp/ccT4iH2I.s:3405   .debug_str:000000000000070b .LASF85
     /tmp/ccT4iH2I.s:3337   .debug_str:00000000000004b5 .LASF86
     /tmp/ccT4iH2I.s:3595   .debug_str:0000000000000dd7 .LASF87
GAS LISTING /tmp/ccT4iH2I.s 			page 12


     /tmp/ccT4iH2I.s:3235   .debug_str:0000000000000160 .LASF88
     /tmp/ccT4iH2I.s:3353   .debug_str:0000000000000538 .LASF89
     /tmp/ccT4iH2I.s:3397   .debug_str:00000000000006ba .LASF90
     /tmp/ccT4iH2I.s:3201   .debug_str:0000000000000046 .LASF91
     /tmp/ccT4iH2I.s:3519   .debug_str:0000000000000ae3 .LASF92
     /tmp/ccT4iH2I.s:3515   .debug_str:0000000000000aca .LASF93
     /tmp/ccT4iH2I.s:3701   .debug_str:0000000000001138 .LASF94
     /tmp/ccT4iH2I.s:3659   .debug_str:0000000000001000 .LASF95
     /tmp/ccT4iH2I.s:3683   .debug_str:000000000000108f .LASF96
     /tmp/ccT4iH2I.s:3251   .debug_str:0000000000000207 .LASF97
     /tmp/ccT4iH2I.s:3419   .debug_str:0000000000000788 .LASF98
     /tmp/ccT4iH2I.s:3377   .debug_str:00000000000005f6 .LASF99
     /tmp/ccT4iH2I.s:3417   .debug_str:0000000000000777 .LASF100
     /tmp/ccT4iH2I.s:3359   .debug_str:000000000000055a .LASF101
     /tmp/ccT4iH2I.s:3385   .debug_str:000000000000065f .LASF102
     /tmp/ccT4iH2I.s:3525   .debug_str:0000000000000b07 .LASF103
     /tmp/ccT4iH2I.s:3331   .debug_str:0000000000000479 .LASF105
     /tmp/ccT4iH2I.s:3601   .debug_str:0000000000000e17 .LASF104
     /tmp/ccT4iH2I.s:3673   .debug_str:0000000000001041 .LASF106
     /tmp/ccT4iH2I.s:3473   .debug_str:0000000000000973 .LASF107
     /tmp/ccT4iH2I.s:3615   .debug_str:0000000000000e81 .LASF108
     /tmp/ccT4iH2I.s:3691   .debug_str:00000000000010d6 .LASF196
     /tmp/ccT4iH2I.s:3703   .debug_str:0000000000001150 .LASF110
     /tmp/ccT4iH2I.s:3329   .debug_str:000000000000046d .LASF122
     /tmp/ccT4iH2I.s:3193   .debug_str:0000000000000011 .LASF111
     /tmp/ccT4iH2I.s:3401   .debug_str:00000000000006dd .LASF112
     /tmp/ccT4iH2I.s:3323   .debug_str:000000000000044b .LASF113
     /tmp/ccT4iH2I.s:3541   .debug_str:0000000000000b84 .LASF114
     /tmp/ccT4iH2I.s:3191   .debug_str:0000000000000006 .LASF115
     /tmp/ccT4iH2I.s:3577   .debug_str:0000000000000cad .LASF116
     /tmp/ccT4iH2I.s:3275   .debug_str:00000000000002d7 .LASF117
     /tmp/ccT4iH2I.s:3255   .debug_str:0000000000000224 .LASF118
     /tmp/ccT4iH2I.s:3593   .debug_str:0000000000000dd1 .LASF119
     /tmp/ccT4iH2I.s:3215   .debug_str:00000000000000c0 .LASF120
     /tmp/ccT4iH2I.s:3257   .debug_str:0000000000000237 .LASF121
     /tmp/ccT4iH2I.s:3313   .debug_str:00000000000003f2 .LASF123
     /tmp/ccT4iH2I.s:3591   .debug_str:0000000000000dc5 .LASF124
     /tmp/ccT4iH2I.s:3687   .debug_str:00000000000010ad .LASF126
     /tmp/ccT4iH2I.s:3387   .debug_str:000000000000067b .LASF125
     /tmp/ccT4iH2I.s:3633   .debug_str:0000000000000f1c .LASF127
     /tmp/ccT4iH2I.s:3381   .debug_str:0000000000000639 .LASF128
     /tmp/ccT4iH2I.s:3639   .debug_str:0000000000000f54 .LASF129
     /tmp/ccT4iH2I.s:3373   .debug_str:00000000000005d0 .LASF130
     /tmp/ccT4iH2I.s:3211   .debug_str:0000000000000087 .LASF131
     /tmp/ccT4iH2I.s:3549   .debug_str:0000000000000bd3 .LASF132
     /tmp/ccT4iH2I.s:3535   .debug_str:0000000000000b52 .LASF133
     /tmp/ccT4iH2I.s:3205   .debug_str:0000000000000061 .LASF134
     /tmp/ccT4iH2I.s:3393   .debug_str:000000000000069f .LASF135
     /tmp/ccT4iH2I.s:3213   .debug_str:00000000000000a5 .LASF136
     /tmp/ccT4iH2I.s:3609   .debug_str:0000000000000e49 .LASF137
     /tmp/ccT4iH2I.s:3321   .debug_str:000000000000042e .LASF138
     /tmp/ccT4iH2I.s:3699   .debug_str:0000000000001110 .LASF139
     /tmp/ccT4iH2I.s:3369   .debug_str:00000000000005ad .LASF140
     /tmp/ccT4iH2I.s:3563   .debug_str:0000000000000c24 .LASF141
     /tmp/ccT4iH2I.s:3309   .debug_str:00000000000003bc .LASF142
     /tmp/ccT4iH2I.s:3477   .debug_str:0000000000000994 .LASF143
     /tmp/ccT4iH2I.s:3649   .debug_str:0000000000000fbe .LASF144
GAS LISTING /tmp/ccT4iH2I.s 			page 13


     /tmp/ccT4iH2I.s:3453   .debug_str:00000000000008c4 .LASF145
     /tmp/ccT4iH2I.s:3413   .debug_str:000000000000074f .LASF146
     /tmp/ccT4iH2I.s:3269   .debug_str:00000000000002b3 .LASF147
     /tmp/ccT4iH2I.s:3243   .debug_str:00000000000001c3 .LASF148
     /tmp/ccT4iH2I.s:3589   .debug_str:0000000000000dbb .LASF149
     /tmp/ccT4iH2I.s:3647   .debug_str:0000000000000fae .LASF150
     /tmp/ccT4iH2I.s:3581   .debug_str:0000000000000cce .LASF151
     /tmp/ccT4iH2I.s:3233   .debug_str:0000000000000152 .LASF152
     /tmp/ccT4iH2I.s:3679   .debug_str:000000000000106d .LASF153
     /tmp/ccT4iH2I.s:3229   .debug_str:0000000000000135 .LASF154
     /tmp/ccT4iH2I.s:3429   .debug_str:0000000000000801 .LASF155
     /tmp/ccT4iH2I.s:3241   .debug_str:00000000000001b6 .LASF156
     /tmp/ccT4iH2I.s:3481   .debug_str:00000000000009b6 .LASF157
     /tmp/ccT4iH2I.s:3295   .debug_str:0000000000000362 .LASF158
     /tmp/ccT4iH2I.s:3285   .debug_str:0000000000000313 .LASF159
     /tmp/ccT4iH2I.s:3221   .debug_str:00000000000000e8 .LASF160
     /tmp/ccT4iH2I.s:3643   .debug_str:0000000000000f9a .LASF161
     /tmp/ccT4iH2I.s:3283   .debug_str:0000000000000307 .LASF162
     /tmp/ccT4iH2I.s:3621   .debug_str:0000000000000eb4 .LASF163
     /tmp/ccT4iH2I.s:3545   .debug_str:0000000000000bb0 .LASF164
     /tmp/ccT4iH2I.s:3407   .debug_str:0000000000000726 .LASF165
     /tmp/ccT4iH2I.s:3645   .debug_str:0000000000000fa4 .LASF166
     /tmp/ccT4iH2I.s:3219   .debug_str:00000000000000de .LASF167
     /tmp/ccT4iH2I.s:3471   .debug_str:000000000000096e .LASF168
     /tmp/ccT4iH2I.s:3461   .debug_str:0000000000000922 .LASF169
     /tmp/ccT4iH2I.s:3611   .debug_str:0000000000000e70 .LASF170
     /tmp/ccT4iH2I.s:3207   .debug_str:0000000000000069 .LASF171
     /tmp/ccT4iH2I.s:3537   .debug_str:0000000000000b72 .LASF172
     /tmp/ccT4iH2I.s:3409   .debug_str:0000000000000730 .LASF173
     /tmp/ccT4iH2I.s:3277   .debug_str:00000000000002e0 .LASF174
     /tmp/ccT4iH2I.s:3465   .debug_str:0000000000000940 .LASF175
     /tmp/ccT4iH2I.s:3567   .debug_str:0000000000000c5b .LASF176
     /tmp/ccT4iH2I.s:3231   .debug_str:0000000000000140 .LASF177
     /tmp/ccT4iH2I.s:3467   .debug_str:0000000000000950 .LASF178
     /tmp/ccT4iH2I.s:3425   .debug_str:00000000000007d6 .LASF179
     /tmp/ccT4iH2I.s:3483   .debug_str:00000000000009bf .LASF180
     /tmp/ccT4iH2I.s:3305   .debug_str:0000000000000398 .LASF181
     /tmp/ccT4iH2I.s:3557   .debug_str:0000000000000bff .LASF182
     /tmp/ccT4iH2I.s:3657   .debug_str:0000000000000fed .LASF183
     /tmp/ccT4iH2I.s:3347   .debug_str:0000000000000518 .LASF184
     /tmp/ccT4iH2I.s:3399   .debug_str:00000000000006cc .LASF185
     /tmp/ccT4iH2I.s:3493   .debug_str:00000000000009fd .LASF186
     /tmp/ccT4iH2I.s:3661   .debug_str:000000000000100a .LASF187
     /tmp/ccT4iH2I.s:3195   .debug_str:0000000000000021 .LASF188
     /tmp/ccT4iH2I.s:3361   .debug_str:0000000000000569 .LASF189
     /tmp/ccT4iH2I.s:3695   .debug_str:00000000000010f4 .LASF190
     /tmp/ccT4iH2I.s:3301   .debug_str:0000000000000382 .LASF191
     /tmp/ccT4iH2I.s:3335   .debug_str:00000000000004a2 .LASF192
     /tmp/ccT4iH2I.s:3293   .debug_str:000000000000035d .LASF193
     /tmp/ccT4iH2I.s:3533   .debug_str:0000000000000b37 .LASF204
     /tmp/ccT4iH2I.s:3317   .debug_str:000000000000041a .LASF194
     /tmp/ccT4iH2I.s:3489   .debug_str:00000000000009e0 .LASF195
     /tmp/ccT4iH2I.s:3431   .debug_str:000000000000080b .LASF259
     /tmp/ccT4iH2I.s:3497   .debug_str:0000000000000a31 .LASF197
     /tmp/ccT4iH2I.s:3203   .debug_str:0000000000000051 .LASF198
     /tmp/ccT4iH2I.s:3311   .debug_str:00000000000003cc .LASF199
     /tmp/ccT4iH2I.s:3249   .debug_str:00000000000001fa .LASF200
GAS LISTING /tmp/ccT4iH2I.s 			page 14


     /tmp/ccT4iH2I.s:3495   .debug_str:0000000000000a0b .LASF201
     /tmp/ccT4iH2I.s:3553   .debug_str:0000000000000bf3 .LASF202
     /tmp/ccT4iH2I.s:3441   .debug_str:0000000000000871 .LASF203
     /tmp/ccT4iH2I.s:3227   .debug_str:0000000000000119 .LASF205
     /tmp/ccT4iH2I.s:3395   .debug_str:00000000000006b1 .LASF206
     /tmp/ccT4iH2I.s:3411   .debug_str:000000000000073e .LASF207
     /tmp/ccT4iH2I.s:3531   .debug_str:0000000000000b2f .LASF208
     /tmp/ccT4iH2I.s:3565   .debug_str:0000000000000c44 .LASF209
     /tmp/ccT4iH2I.s:3693   .debug_str:00000000000010ec .LASF210
     /tmp/ccT4iH2I.s:3447   .debug_str:0000000000000894 .LASF211
     /tmp/ccT4iH2I.s:3217   .debug_str:00000000000000d5 .LASF212
     /tmp/ccT4iH2I.s:3455   .debug_str:00000000000008e0 .LASF213
     /tmp/ccT4iH2I.s:3579   .debug_str:0000000000000cc5 .LASF214
     /tmp/ccT4iH2I.s:3547   .debug_str:0000000000000bba .LASF215
     /tmp/ccT4iH2I.s:3261   .debug_str:0000000000000254 .LASF216
     /tmp/ccT4iH2I.s:3505   .debug_str:0000000000000a7b .LASF217
     /tmp/ccT4iH2I.s:3597   .debug_str:0000000000000df3 .LASF218
     /tmp/ccT4iH2I.s:3421   .debug_str:000000000000079e .LASF219
     /tmp/ccT4iH2I.s:3327   .debug_str:0000000000000467 .LASF220
     /tmp/ccT4iH2I.s:3603   .debug_str:0000000000000e23 .LASF221
     /tmp/ccT4iH2I.s:3705   .debug_str:000000000000115d .LASF222
     /tmp/ccT4iH2I.s:3479   .debug_str:00000000000009b0 .LASF223
     /tmp/ccT4iH2I.s:3613   .debug_str:0000000000000e78 .LASF260
     /tmp/ccT4iH2I.s:3571   .debug_str:0000000000000c74 .LASF224
     /tmp/ccT4iH2I.s:3427   .debug_str:00000000000007f3 .LASF225
     /tmp/ccT4iH2I.s:3573   .debug_str:0000000000000c79 .LASF226
     /tmp/ccT4iH2I.s:3263   .debug_str:0000000000000267 .LASF227
     /tmp/ccT4iH2I.s:3627   .debug_str:0000000000000ed4 .LASF228
     /tmp/ccT4iH2I.s:3415   .debug_str:000000000000075c .LASF229
     /tmp/ccT4iH2I.s:3715   .debug_str:00000000000011a4 .LASF230
     /tmp/ccT4iH2I.s:3433   .debug_str:0000000000000823 .LASF231
     /tmp/ccT4iH2I.s:3297   .debug_str:000000000000036b .LASF232
     /tmp/ccT4iH2I.s:3575   .debug_str:0000000000000c8c .LASF233
     /tmp/ccT4iH2I.s:3653   .debug_str:0000000000000fdd .LASF234
     /tmp/ccT4iH2I.s:3437   .debug_str:000000000000084a .LASF235
     /tmp/ccT4iH2I.s:3625   .debug_str:0000000000000ec9 .LASF236
     /tmp/ccT4iH2I.s:3403   .debug_str:00000000000006ea .LASF237
     /tmp/ccT4iH2I.s:3681   .debug_str:0000000000001086 .LASF238
     /tmp/ccT4iH2I.s:3239   .debug_str:0000000000000197 .LASF239
     /tmp/ccT4iH2I.s:3685   .debug_str:00000000000010a5 .LASF240
     /tmp/ccT4iH2I.s:3289   .debug_str:0000000000000339 .LASF241
     /tmp/ccT4iH2I.s:3291   .debug_str:0000000000000357 .LASF242
     /tmp/ccT4iH2I.s:3503   .debug_str:0000000000000a74 .LASF243
     /tmp/ccT4iH2I.s:3443   .debug_str:0000000000000876 .LASF244
     /tmp/ccT4iH2I.s:3619   .debug_str:0000000000000ea6 .LASF245
     /tmp/ccT4iH2I.s:3189   .debug_str:0000000000000000 .LASF246
     /tmp/ccT4iH2I.s:3279   .debug_str:00000000000002e5 .LASF247
     /tmp/ccT4iH2I.s:3569   .debug_str:0000000000000c62 .LASF248
     /tmp/ccT4iH2I.s:3629   .debug_str:0000000000000eda .LASF249
     /tmp/ccT4iH2I.s:3689   .debug_str:00000000000010c5 .LASF261
     /tmp/ccT4iH2I.s:3641   .debug_str:0000000000000f72 .LASF262
     /tmp/ccT4iH2I.s:160    .text:00000000000000b8 .LFB34
     /tmp/ccT4iH2I.s:182    .text:00000000000000d4 .LFE34
     /tmp/ccT4iH2I.s:3074   .debug_loc:0000000000000000 .LLST5
     /tmp/ccT4iH2I.s:178    .text:00000000000000d0 .LVL18
     /tmp/ccT4iH2I.s:68     .text:000000000000002c .LFB33
     /tmp/ccT4iH2I.s:154    .text:00000000000000b8 .LFE33
GAS LISTING /tmp/ccT4iH2I.s 			page 15


     /tmp/ccT4iH2I.s:3088   .debug_loc:0000000000000039 .LLST2
     /tmp/ccT4iH2I.s:3173   .debug_ranges:0000000000000000 .Ldebug_ranges0
     /tmp/ccT4iH2I.s:3451   .debug_str:00000000000008bc .LASF250
     /tmp/ccT4iH2I.s:3102   .debug_loc:0000000000000072 .LLST3
     /tmp/ccT4iH2I.s:3123   .debug_loc:00000000000000d0 .LLST4
     /tmp/ccT4iH2I.s:133    .text:0000000000000098 .LVL11
     /tmp/ccT4iH2I.s:148    .text:00000000000000b4 .LVL15
     /tmp/ccT4iH2I.s:91     .text:000000000000004c .LVL6
     /tmp/ccT4iH2I.s:10     .text:0000000000000000 .LFB32
     /tmp/ccT4iH2I.s:62     .text:000000000000002c .LFE32
     /tmp/ccT4iH2I.s:3138   .debug_loc:0000000000000119 .LLST0
     /tmp/ccT4iH2I.s:25     .text:0000000000000010 .LBB6
     /tmp/ccT4iH2I.s:39     .text:0000000000000018 .LBE6
     /tmp/ccT4iH2I.s:3152   .debug_loc:0000000000000152 .LLST1
     /tmp/ccT4iH2I.s:42     .text:0000000000000018 .LBB8
     /tmp/ccT4iH2I.s:54     .text:0000000000000020 .LBE8
     /tmp/ccT4iH2I.s:58     .text:0000000000000028 .LVL3
     /tmp/ccT4iH2I.s:3521   .debug_str:0000000000000afb .LASF263
     /tmp/ccT4iH2I.s:3423   .debug_str:00000000000007c1 .LASF251
     /tmp/ccT4iH2I.s:3637   .debug_str:0000000000000f44 .LASF253
     /tmp/ccT4iH2I.s:3485   .debug_str:00000000000009c9 .LASF252
     /tmp/ccT4iH2I.s:3509   .debug_str:0000000000000aa4 .LASF254
     /tmp/ccT4iH2I.s:163    .text:00000000000000b8 .LVL16
     /tmp/ccT4iH2I.s:172    .text:00000000000000c8 .LVL17
     /tmp/ccT4iH2I.s:71     .text:000000000000002c .LVL4
     /tmp/ccT4iH2I.s:84     .text:0000000000000044 .LVL5
     /tmp/ccT4iH2I.s:93     .text:0000000000000050 .LVL7
     /tmp/ccT4iH2I.s:100    .text:0000000000000058 .LVL8
     /tmp/ccT4iH2I.s:112    .text:000000000000006c .LVL9
     /tmp/ccT4iH2I.s:116    .text:0000000000000074 .LVL10
     /tmp/ccT4iH2I.s:141    .text:00000000000000a8 .LVL13
     /tmp/ccT4iH2I.s:139    .text:00000000000000a4 .LVL12
     /tmp/ccT4iH2I.s:146    .text:00000000000000ac .LVL14
     /tmp/ccT4iH2I.s:14     .text:0000000000000000 .LVL0
     /tmp/ccT4iH2I.s:35     .text:0000000000000018 .LVL2
     /tmp/ccT4iH2I.s:24     .text:0000000000000010 .LVL1
     /tmp/ccT4iH2I.s:195    .debug_info:0000000000000000 .Ldebug_info0
     /tmp/ccT4iH2I.s:87     .text:0000000000000044 .LBB10
     /tmp/ccT4iH2I.s:96     .text:0000000000000050 .LBE10
     /tmp/ccT4iH2I.s:102    .text:0000000000000058 .LBB13
     /tmp/ccT4iH2I.s:152    .text:00000000000000b8 .LBE13
     /tmp/ccT4iH2I.s:103    .text:0000000000000058 .LBB11
     /tmp/ccT4iH2I.s:118    .text:0000000000000074 .LBE11
     /tmp/ccT4iH2I.s:128    .text:000000000000008c .LBB12
     /tmp/ccT4iH2I.s:151    .text:00000000000000b8 .LBE12

UNDEFINED SYMBOLS
_Z15thread_dispatchv
_ZN13KernelConsole18getConsoleInstanceEv
CONSOLE_RX_DATA
CONSOLE_STATUS
_ZN13KernelConsole10getCharOutEv
_Z10time_sleepm
