GAS LISTING /tmp/cc7AVb44.s 			page 1


   1              		.file	"KernelConsole.cpp"
   2              		.option pic
   3              		.option norelax
   4              		.text
   5              	.Ltext0:
   6              		.align	2
   7              		.globl	_ZN13KernelConsole18getConsoleInstanceEv
   9              	_ZN13KernelConsole18getConsoleInstanceEv:
  10              	.LFB6:
  11              		.file 1 "src/KernelConsole.cpp"
   1:src/KernelConsole.cpp **** #include "../h/KernelConsole.hpp"
   2:src/KernelConsole.cpp **** 
   3:src/KernelConsole.cpp **** KernelConsole &KernelConsole::getConsoleInstance() {
  12              		.loc 1 3 52
  13              		.cfi_startproc
   4:src/KernelConsole.cpp ****     static KernelConsole instance;
  14              		.loc 1 4 5
  15              		.loc 1 4 26 is_stmt 0
  16 0000 97070000 		lbu	a5,.LANCHOR0
  16      83C70700 
  17 0008 63880700 		beqz	a5,.L7
   5:src/KernelConsole.cpp ****     return instance;
  18              		.loc 1 5 5 is_stmt 1
   6:src/KernelConsole.cpp **** }
  19              		.loc 1 6 1 is_stmt 0
  20 000c 17050000 		lla	a0,.LANCHOR0+8
  20      13050500 
  21 0014 67800000 		ret
  22              	.L7:
   3:src/KernelConsole.cpp ****     static KernelConsole instance;
  23              		.loc 1 3 52
  24 0018 130101FF 		addi	sp,sp,-16
  25              		.cfi_def_cfa_offset 16
  26 001c 23341100 		sd	ra,8(sp)
  27 0020 23308100 		sd	s0,0(sp)
  28              		.cfi_offset 1, -8
  29              		.cfi_offset 8, -16
  30 0024 13040101 		addi	s0,sp,16
  31              		.cfi_def_cfa 8, 0
  32              	.LVL0:
  33              	.LBB5:
  34              	.LBB6:
  35              		.file 2 "src/../h/KernelConsole.hpp"
   1:src/../h/KernelConsole.hpp **** #ifndef PROJECT_BASE_V1_1_2_KERNELCONSOLE_HPP
   2:src/../h/KernelConsole.hpp **** #define PROJECT_BASE_V1_1_2_KERNELCONSOLE_HPP
   3:src/../h/KernelConsole.hpp **** #include "IOBuffer.hpp"
   4:src/../h/KernelConsole.hpp **** class KernelConsole final{
   5:src/../h/KernelConsole.hpp **** public:
   6:src/../h/KernelConsole.hpp ****     static KernelConsole& getConsoleInstance();
   7:src/../h/KernelConsole.hpp ****     static void flush();
   8:src/../h/KernelConsole.hpp ****     void putCharIn(char);
   9:src/../h/KernelConsole.hpp ****     void putCharOut(char);
  10:src/../h/KernelConsole.hpp ****     char getCharIn();
  11:src/../h/KernelConsole.hpp ****     char getCharOut();
  12:src/../h/KernelConsole.hpp ****     int itemsOut() const;
  13:src/../h/KernelConsole.hpp ****     int slotsIn() const;
  14:src/../h/KernelConsole.hpp **** private:
GAS LISTING /tmp/cc7AVb44.s 			page 2


  15:src/../h/KernelConsole.hpp ****     IOBuffer input;
  16:src/../h/KernelConsole.hpp ****     IOBuffer output;
  17:src/../h/KernelConsole.hpp ****     KernelConsole()=default;
  36              		.loc 2 17 5
  37 0028 17050000 		lla	a0,.LANCHOR0+8
  37      13050500 
  38 0030 97000000 		call	_ZN8IOBufferC1Ev@plt
  38      E7800000 
  39              	.LVL1:
  40 0038 17050000 		lla	a0,.LANCHOR0+296
  40      13050500 
  41 0040 97000000 		call	_ZN8IOBufferC1Ev@plt
  41      E7800000 
  42              	.LVL2:
  43              	.LBE6:
  44              	.LBE5:
   4:src/KernelConsole.cpp ****     return instance;
  45              		.loc 1 4 26
  46 0048 93071000 		li	a5,1
  47 004c 17070000 		sb	a5,.LANCHOR0,a4
  47      2300F700 
   5:src/KernelConsole.cpp **** }
  48              		.loc 1 5 5 is_stmt 1
  49              		.loc 1 6 1 is_stmt 0
  50 0054 17050000 		lla	a0,.LANCHOR0+8
  50      13050500 
  51 005c 83308100 		ld	ra,8(sp)
  52              		.cfi_restore 1
  53 0060 03340100 		ld	s0,0(sp)
  54              		.cfi_restore 8
  55              		.cfi_def_cfa 2, 16
  56 0064 13010101 		addi	sp,sp,16
  57              		.cfi_def_cfa_offset 0
  58 0068 67800000 		jr	ra
  59              		.cfi_endproc
  60              	.LFE6:
  62              		.align	2
  63              		.globl	_ZN13KernelConsole9putCharInEc
  65              	_ZN13KernelConsole9putCharInEc:
  66              	.LFB10:
   7:src/KernelConsole.cpp **** 
   8:src/KernelConsole.cpp **** void KernelConsole::putCharIn(char c) {
  67              		.loc 1 8 39 is_stmt 1
  68              		.cfi_startproc
  69              	.LVL3:
  70 006c 130101FF 		addi	sp,sp,-16
  71              		.cfi_def_cfa_offset 16
  72 0070 23341100 		sd	ra,8(sp)
  73 0074 23308100 		sd	s0,0(sp)
  74              		.cfi_offset 1, -8
  75              		.cfi_offset 8, -16
  76 0078 13040101 		addi	s0,sp,16
  77              		.cfi_def_cfa 8, 0
   9:src/KernelConsole.cpp ****     input.putCharNonBlocking(c);
  78              		.loc 1 9 5
  79              		.loc 1 9 29 is_stmt 0
  80 007c 97000000 		call	_ZN8IOBuffer18putCharNonBlockingEc@plt
GAS LISTING /tmp/cc7AVb44.s 			page 3


  80      E7800000 
  81              	.LVL4:
  10:src/KernelConsole.cpp **** }
  82              		.loc 1 10 1
  83 0084 83308100 		ld	ra,8(sp)
  84              		.cfi_restore 1
  85 0088 03340100 		ld	s0,0(sp)
  86              		.cfi_restore 8
  87              		.cfi_def_cfa 2, 16
  88 008c 13010101 		addi	sp,sp,16
  89              		.cfi_def_cfa_offset 0
  90 0090 67800000 		jr	ra
  91              		.cfi_endproc
  92              	.LFE10:
  94              		.align	2
  95              		.globl	_ZN13KernelConsole9getCharInEv
  97              	_ZN13KernelConsole9getCharInEv:
  98              	.LFB11:
  11:src/KernelConsole.cpp **** 
  12:src/KernelConsole.cpp **** char KernelConsole::getCharIn() {
  99              		.loc 1 12 33 is_stmt 1
 100              		.cfi_startproc
 101              	.LVL5:
 102 0094 130101FF 		addi	sp,sp,-16
 103              		.cfi_def_cfa_offset 16
 104 0098 23341100 		sd	ra,8(sp)
 105 009c 23308100 		sd	s0,0(sp)
 106              		.cfi_offset 1, -8
 107              		.cfi_offset 8, -16
 108 00a0 13040101 		addi	s0,sp,16
 109              		.cfi_def_cfa 8, 0
  13:src/KernelConsole.cpp ****     return input.getChar();
 110              		.loc 1 13 5
 111              		.loc 1 13 25 is_stmt 0
 112 00a4 97000000 		call	_ZN8IOBuffer7getCharEv@plt
 112      E7800000 
 113              	.LVL6:
  14:src/KernelConsole.cpp **** }
 114              		.loc 1 14 1
 115 00ac 83308100 		ld	ra,8(sp)
 116              		.cfi_restore 1
 117 00b0 03340100 		ld	s0,0(sp)
 118              		.cfi_restore 8
 119              		.cfi_def_cfa 2, 16
 120 00b4 13010101 		addi	sp,sp,16
 121              		.cfi_def_cfa_offset 0
 122 00b8 67800000 		jr	ra
 123              		.cfi_endproc
 124              	.LFE11:
 126              		.align	2
 127              		.globl	_ZN13KernelConsole10getCharOutEv
 129              	_ZN13KernelConsole10getCharOutEv:
 130              	.LFB12:
  15:src/KernelConsole.cpp **** 
  16:src/KernelConsole.cpp **** char KernelConsole::getCharOut() {
 131              		.loc 1 16 34 is_stmt 1
 132              		.cfi_startproc
GAS LISTING /tmp/cc7AVb44.s 			page 4


 133              	.LVL7:
 134 00bc 130101FF 		addi	sp,sp,-16
 135              		.cfi_def_cfa_offset 16
 136 00c0 23341100 		sd	ra,8(sp)
 137 00c4 23308100 		sd	s0,0(sp)
 138              		.cfi_offset 1, -8
 139              		.cfi_offset 8, -16
 140 00c8 13040101 		addi	s0,sp,16
 141              		.cfi_def_cfa 8, 0
  17:src/KernelConsole.cpp ****     return output.getChar();
 142              		.loc 1 17 5
 143              		.loc 1 17 26 is_stmt 0
 144 00cc 13050512 		addi	a0,a0,288
 145              	.LVL8:
 146 00d0 97000000 		call	_ZN8IOBuffer7getCharEv@plt
 146      E7800000 
 147              	.LVL9:
  18:src/KernelConsole.cpp **** }
 148              		.loc 1 18 1
 149 00d8 83308100 		ld	ra,8(sp)
 150              		.cfi_restore 1
 151 00dc 03340100 		ld	s0,0(sp)
 152              		.cfi_restore 8
 153              		.cfi_def_cfa 2, 16
 154 00e0 13010101 		addi	sp,sp,16
 155              		.cfi_def_cfa_offset 0
 156 00e4 67800000 		jr	ra
 157              		.cfi_endproc
 158              	.LFE12:
 160              		.align	2
 161              		.globl	_ZN13KernelConsole10putCharOutEc
 163              	_ZN13KernelConsole10putCharOutEc:
 164              	.LFB13:
  19:src/KernelConsole.cpp **** 
  20:src/KernelConsole.cpp **** void KernelConsole::putCharOut(char c) {
 165              		.loc 1 20 40 is_stmt 1
 166              		.cfi_startproc
 167              	.LVL10:
 168 00e8 130101FF 		addi	sp,sp,-16
 169              		.cfi_def_cfa_offset 16
 170 00ec 23341100 		sd	ra,8(sp)
 171 00f0 23308100 		sd	s0,0(sp)
 172              		.cfi_offset 1, -8
 173              		.cfi_offset 8, -16
 174 00f4 13040101 		addi	s0,sp,16
 175              		.cfi_def_cfa 8, 0
  21:src/KernelConsole.cpp ****     output.putChar(c);
 176              		.loc 1 21 5
 177              		.loc 1 21 19 is_stmt 0
 178 00f8 13050512 		addi	a0,a0,288
 179              	.LVL11:
 180 00fc 97000000 		call	_ZN8IOBuffer7putCharEc@plt
 180      E7800000 
 181              	.LVL12:
  22:src/KernelConsole.cpp **** }
 182              		.loc 1 22 1
 183 0104 83308100 		ld	ra,8(sp)
GAS LISTING /tmp/cc7AVb44.s 			page 5


 184              		.cfi_restore 1
 185 0108 03340100 		ld	s0,0(sp)
 186              		.cfi_restore 8
 187              		.cfi_def_cfa 2, 16
 188 010c 13010101 		addi	sp,sp,16
 189              		.cfi_def_cfa_offset 0
 190 0110 67800000 		jr	ra
 191              		.cfi_endproc
 192              	.LFE13:
 194              		.align	2
 195              		.globl	_ZNK13KernelConsole8itemsOutEv
 197              	_ZNK13KernelConsole8itemsOutEv:
 198              	.LFB14:
  23:src/KernelConsole.cpp **** 
  24:src/KernelConsole.cpp **** int KernelConsole::itemsOut() const {
 199              		.loc 1 24 37 is_stmt 1
 200              		.cfi_startproc
 201              	.LVL13:
 202 0114 130101FF 		addi	sp,sp,-16
 203              		.cfi_def_cfa_offset 16
 204 0118 23341100 		sd	ra,8(sp)
 205 011c 23308100 		sd	s0,0(sp)
 206              		.cfi_offset 1, -8
 207              		.cfi_offset 8, -16
 208 0120 13040101 		addi	s0,sp,16
 209              		.cfi_def_cfa 8, 0
  25:src/KernelConsole.cpp ****     return output.getItems();
 210              		.loc 1 25 5
 211              		.loc 1 25 27 is_stmt 0
 212 0124 13050512 		addi	a0,a0,288
 213              	.LVL14:
 214 0128 97000000 		call	_ZNK8IOBuffer8getItemsEv@plt
 214      E7800000 
 215              	.LVL15:
  26:src/KernelConsole.cpp **** }
 216              		.loc 1 26 1
 217 0130 83308100 		ld	ra,8(sp)
 218              		.cfi_restore 1
 219 0134 03340100 		ld	s0,0(sp)
 220              		.cfi_restore 8
 221              		.cfi_def_cfa 2, 16
 222 0138 13010101 		addi	sp,sp,16
 223              		.cfi_def_cfa_offset 0
 224 013c 67800000 		jr	ra
 225              		.cfi_endproc
 226              	.LFE14:
 228              		.align	2
 229              		.globl	_ZNK13KernelConsole7slotsInEv
 231              	_ZNK13KernelConsole7slotsInEv:
 232              	.LFB15:
  27:src/KernelConsole.cpp **** 
  28:src/KernelConsole.cpp **** int KernelConsole::slotsIn() const {
 233              		.loc 1 28 36 is_stmt 1
 234              		.cfi_startproc
 235              	.LVL16:
 236 0140 130101FF 		addi	sp,sp,-16
 237              		.cfi_def_cfa_offset 16
GAS LISTING /tmp/cc7AVb44.s 			page 6


 238 0144 23341100 		sd	ra,8(sp)
 239 0148 23308100 		sd	s0,0(sp)
 240              		.cfi_offset 1, -8
 241              		.cfi_offset 8, -16
 242 014c 13040101 		addi	s0,sp,16
 243              		.cfi_def_cfa 8, 0
  29:src/KernelConsole.cpp ****     return input.getSlots();
 244              		.loc 1 29 5
 245              		.loc 1 29 26 is_stmt 0
 246 0150 97000000 		call	_ZNK8IOBuffer8getSlotsEv@plt
 246      E7800000 
 247              	.LVL17:
  30:src/KernelConsole.cpp **** }
 248              		.loc 1 30 1
 249 0158 83308100 		ld	ra,8(sp)
 250              		.cfi_restore 1
 251 015c 03340100 		ld	s0,0(sp)
 252              		.cfi_restore 8
 253              		.cfi_def_cfa 2, 16
 254 0160 13010101 		addi	sp,sp,16
 255              		.cfi_def_cfa_offset 0
 256 0164 67800000 		jr	ra
 257              		.cfi_endproc
 258              	.LFE15:
 260              		.align	2
 261              		.globl	_ZN13KernelConsole5flushEv
 263              	_ZN13KernelConsole5flushEv:
 264              	.LFB16:
  31:src/KernelConsole.cpp **** 
  32:src/KernelConsole.cpp **** void KernelConsole::flush() {
 265              		.loc 1 32 29 is_stmt 1
 266              		.cfi_startproc
 267 0168 130101FE 		addi	sp,sp,-32
 268              		.cfi_def_cfa_offset 32
 269 016c 233C1100 		sd	ra,24(sp)
 270 0170 23388100 		sd	s0,16(sp)
 271 0174 23349100 		sd	s1,8(sp)
 272              		.cfi_offset 1, -8
 273              		.cfi_offset 8, -16
 274              		.cfi_offset 9, -24
 275 0178 13040102 		addi	s0,sp,32
 276              		.cfi_def_cfa 8, 0
  33:src/KernelConsole.cpp ****     KernelConsole& console=KernelConsole::getConsoleInstance();
 277              		.loc 1 33 5
 278              		.loc 1 33 62 is_stmt 0
 279 017c 97000000 		call	_ZN13KernelConsole18getConsoleInstanceEv
 279      E7800000 
 280              	.LVL18:
 281 0184 93040500 		mv	s1,a0
 282              	.LVL19:
 283              	.L22:
  34:src/KernelConsole.cpp ****     while(console.itemsOut()){
 284              		.loc 1 34 5 is_stmt 1
 285              		.loc 1 34 28
 286              		.loc 1 34 27 is_stmt 0
 287 0188 13850400 		mv	a0,s1
 288 018c 97000000 		call	_ZNK13KernelConsole8itemsOutEv
GAS LISTING /tmp/cc7AVb44.s 			page 7


 288      E7800000 
 289              	.LVL20:
 290              		.loc 1 34 28
 291 0194 630E0502 		beqz	a0,.L20
  35:src/KernelConsole.cpp ****         if((*((char*)CONSOLE_STATUS)&CONSOLE_TX_STATUS_BIT)){
 292              		.loc 1 35 9 is_stmt 1
 293              	.LBB7:
 294              		.loc 1 35 13 is_stmt 0
 295 0198 97070000 		la	a5,CONSOLE_STATUS
 295      83B70700 
 296 01a0 83B70700 		ld	a5,0(a5)
 297 01a4 83C70700 		lbu	a5,0(a5)
 298              		.loc 1 35 9
 299 01a8 93F70702 		andi	a5,a5,32
 300 01ac E38E07FC 		beqz	a5,.L22
 301              	.LBB8:
  36:src/KernelConsole.cpp ****             char c=console.getCharOut();
 302              		.loc 1 36 13 is_stmt 1
 303              		.loc 1 36 38 is_stmt 0
 304 01b0 13850400 		mv	a0,s1
 305 01b4 97000000 		call	_ZN13KernelConsole10getCharOutEv
 305      E7800000 
 306              	.LVL21:
  37:src/KernelConsole.cpp ****             *((char*)(CONSOLE_RX_DATA))=c;
 307              		.loc 1 37 13 is_stmt 1
 308 01bc 97070000 		la	a5,CONSOLE_RX_DATA
 308      83B70700 
 309 01c4 83B70700 		ld	a5,0(a5)
 310              		.loc 1 37 40 is_stmt 0
 311 01c8 2380A700 		sb	a0,0(a5)
 312              	.LBE8:
 313 01cc 6FF0DFFB 		j	.L22
 314              	.LVL22:
 315              	.L20:
 316              	.LBE7:
  38:src/KernelConsole.cpp ****         }
  39:src/KernelConsole.cpp ****     }
  40:src/KernelConsole.cpp **** }...
 317              		.loc 1 40 1
 318 01d0 83308101 		ld	ra,24(sp)
 319              		.cfi_restore 1
 320 01d4 03340101 		ld	s0,16(sp)
 321              		.cfi_restore 8
 322              		.cfi_def_cfa 2, 32
 323 01d8 83348100 		ld	s1,8(sp)
 324              		.cfi_restore 9
 325              	.LVL23:
 326 01dc 13010102 		addi	sp,sp,32
 327              		.cfi_def_cfa_offset 0
 328 01e0 67800000 		jr	ra
 329              		.cfi_endproc
 330              	.LFE16:
 332              		.bss
 333              		.align	3
 334              		.set	.LANCHOR0,. + 0
 337              	_ZGVZN13KernelConsole18getConsoleInstanceEvE8instance:
 338 0000 00000000 		.zero	8
GAS LISTING /tmp/cc7AVb44.s 			page 8


 338      00000000 
 341              	_ZZN13KernelConsole18getConsoleInstanceEvE8instance:
 342 0008 00000000 		.zero	576
 342      00000000 
 342      00000000 
 342      00000000 
 342      00000000 
 343              		.text
 344              	.Letext0:
 345              		.file 3 "src/../h/../lib/hw.h"
 346              		.file 4 "src/../h/TCB.hpp"
 347              		.file 5 "src/../h/SemC.hpp"
 348              		.file 6 "src/../h/BlockedQueue.hpp"
 349              		.file 7 "src/../h/IOBuffer.hpp"
 350              		.file 8 "src/../h/syscall_c.hpp"
GAS LISTING /tmp/cc7AVb44.s 			page 9

