GAS LISTING /tmp/ccixOztB.s 			page 1


   1              		.file	"main.cpp"
   2              		.option pic
   3              		.option norelax
   4              		.text
   5              	.Ltext0:
   6              		.align	2
   7              		.globl	_Z15userMainWrapperPv
   9              	_Z15userMainWrapperPv:
  10              	.LFB34:
  11              		.file 1 "src/main.cpp"
   1:src/main.cpp  **** #include "../lib/hw.h"
   2:src/main.cpp  **** #include "../h/syscall_cpp.hpp"
   3:src/main.cpp  **** #include "../h/TCB.hpp"
   4:src/main.cpp  **** #include "../h/userMain.hpp"
   5:src/main.cpp  **** #include "../h/Riscv.hpp"
   6:src/main.cpp  **** #include "../h/KernelConsole.hpp"
   7:src/main.cpp  **** #include "../h/KernelThreads.hpp"
   8:src/main.cpp  **** static sem_t mainSem;
   9:src/main.cpp  **** extern "C" void contextHandler();
  10:src/main.cpp  **** void userMainWrapper(void* arg){
  12              		.loc 1 10 32
  13              		.cfi_startproc
  14              	.LVL0:
  15 0000 130101FF 		addi	sp,sp,-16
  16              		.cfi_def_cfa_offset 16
  17 0004 23341100 		sd	ra,8(sp)
  18 0008 23308100 		sd	s0,0(sp)
  19              		.cfi_offset 1, -8
  20              		.cfi_offset 8, -16
  21 000c 13040101 		addi	s0,sp,16
  22              		.cfi_def_cfa 8, 0
  11:src/main.cpp  ****     userMain();
  23              		.loc 1 11 5
  24              		.loc 1 11 13 is_stmt 0
  25 0010 97000000 		call	_Z8userMainv@plt
  25      E7800000 
  26              	.LVL1:
  12:src/main.cpp  ****     mainSem->signal();
  27              		.loc 1 12 5 is_stmt 1
  28              		.loc 1 12 20 is_stmt 0
  29 0018 17050000 		ld	a0,.LANCHOR0
  29      03350500 
  30 0020 97000000 		call	_ZN4SemC6signalEv@plt
  30      E7800000 
  31              	.LVL2:
  13:src/main.cpp  **** }
  32              		.loc 1 13 1
  33 0028 83308100 		ld	ra,8(sp)
  34              		.cfi_restore 1
  35 002c 03340100 		ld	s0,0(sp)
  36              		.cfi_restore 8
  37              		.cfi_def_cfa 2, 16
  38 0030 13010101 		addi	sp,sp,16
  39              		.cfi_def_cfa_offset 0
  40 0034 67800000 		jr	ra
  41              		.cfi_endproc
  42              	.LFE34:
GAS LISTING /tmp/ccixOztB.s 			page 2


  44              		.align	2
  45              		.globl	_Z22switchFromSModeToUModev
  47              	_Z22switchFromSModeToUModev:
  48              	.LFB35:
  14:src/main.cpp  **** void switchFromSModeToUMode(){
  49              		.loc 1 14 30 is_stmt 1
  50              		.cfi_startproc
  51 0038 130101FF 		addi	sp,sp,-16
  52              		.cfi_def_cfa_offset 16
  53 003c 23348100 		sd	s0,8(sp)
  54              		.cfi_offset 8, -8
  55 0040 13040101 		addi	s0,sp,16
  56              		.cfi_def_cfa 8, 0
  15:src/main.cpp  ****     Riscv::mc_sstatus(Riscv::SSTATUS_SPP);
  57              		.loc 1 15 5
  58              	.LVL3:
  59              	.LBB12:
  60              	.LBB13:
  61              		.file 2 "src/../h/Riscv.hpp"
   1:src/../h/Riscv.hpp **** //
   2:src/../h/Riscv.hpp **** // Created by os on 6/21/24.
   3:src/../h/Riscv.hpp **** //
   4:src/../h/Riscv.hpp **** 
   5:src/../h/Riscv.hpp **** #ifndef PROJECT_BASE_V1_1_2_RISCV_HPP
   6:src/../h/Riscv.hpp **** #define PROJECT_BASE_V1_1_2_RISCV_HPP
   7:src/../h/Riscv.hpp **** #include "../lib/hw.h"
   8:src/../h/Riscv.hpp **** #include "codes.hpp"
   9:src/../h/Riscv.hpp **** class Riscv
  10:src/../h/Riscv.hpp **** {
  11:src/../h/Riscv.hpp **** public:
  12:src/../h/Riscv.hpp **** 
  13:src/../h/Riscv.hpp ****     // pop sstatus.spp and sstatus.spie bits (has to be a non inline function)
  14:src/../h/Riscv.hpp ****     static void popSppSpie();
  15:src/../h/Riscv.hpp ****     static void halt();
  16:src/../h/Riscv.hpp ****     static uint64 r_sie();
  17:src/../h/Riscv.hpp ****     static void w_sie(uint64);
  18:src/../h/Riscv.hpp ****     // read register scause
  19:src/../h/Riscv.hpp ****     static uint64 r_scause();
  20:src/../h/Riscv.hpp **** 
  21:src/../h/Riscv.hpp ****     // write register scause
  22:src/../h/Riscv.hpp ****     static void w_scause(uint64 scause);
  23:src/../h/Riscv.hpp ****     static uint64 r_a0();
  24:src/../h/Riscv.hpp ****     static uint64 r_a1();
  25:src/../h/Riscv.hpp ****     static uint64 r_a2();
  26:src/../h/Riscv.hpp ****     static uint64 r_a3();
  27:src/../h/Riscv.hpp ****     static uint64 r_a4();
  28:src/../h/Riscv.hpp ****     // read register sepc
  29:src/../h/Riscv.hpp ****     static uint64 r_sepc();
  30:src/../h/Riscv.hpp **** 
  31:src/../h/Riscv.hpp ****     // write register sepc
  32:src/../h/Riscv.hpp ****     static void w_sepc(uint64 sepc);
  33:src/../h/Riscv.hpp **** 
  34:src/../h/Riscv.hpp ****     // read register stvec
  35:src/../h/Riscv.hpp ****     static uint64 r_stvec();
  36:src/../h/Riscv.hpp **** 
  37:src/../h/Riscv.hpp ****     // write register stvec
  38:src/../h/Riscv.hpp ****     static void w_stvec(uint64 stvec);
GAS LISTING /tmp/ccixOztB.s 			page 3


  39:src/../h/Riscv.hpp **** 
  40:src/../h/Riscv.hpp ****     // read register stval
  41:src/../h/Riscv.hpp ****     static uint64 r_stval();
  42:src/../h/Riscv.hpp **** 
  43:src/../h/Riscv.hpp ****     // write register stval
  44:src/../h/Riscv.hpp ****     static void w_stval(uint64 stval);
  45:src/../h/Riscv.hpp **** 
  46:src/../h/Riscv.hpp ****     enum BitMaskSip
  47:src/../h/Riscv.hpp ****     {
  48:src/../h/Riscv.hpp ****         SIP_SSIP = (1 << 1),
  49:src/../h/Riscv.hpp ****         SIP_STIP = (1 << 5),
  50:src/../h/Riscv.hpp ****         SIP_SEIP = (1 << 9),
  51:src/../h/Riscv.hpp ****     };
  52:src/../h/Riscv.hpp **** 
  53:src/../h/Riscv.hpp ****     // mask set register sip
  54:src/../h/Riscv.hpp ****     static void ms_sip(uint64 mask);
  55:src/../h/Riscv.hpp **** 
  56:src/../h/Riscv.hpp ****     // mask clear register sip
  57:src/../h/Riscv.hpp ****     static void mc_sip(uint64 mask);
  58:src/../h/Riscv.hpp ****     // read register sip
  59:src/../h/Riscv.hpp ****     static uint64 r_sip();
  60:src/../h/Riscv.hpp ****     static void enable_external_interrupts();
  61:src/../h/Riscv.hpp ****     static void disable_external_interrupts();
  62:src/../h/Riscv.hpp ****     // write register sip
  63:src/../h/Riscv.hpp ****     static void w_sip(uint64 sip);
  64:src/../h/Riscv.hpp **** 
  65:src/../h/Riscv.hpp ****     enum BitMaskSstatus
  66:src/../h/Riscv.hpp ****     {
  67:src/../h/Riscv.hpp ****         SSTATUS_SIE = (1 << 1),
  68:src/../h/Riscv.hpp ****         SSTATUS_SPIE = (1 << 5),
  69:src/../h/Riscv.hpp ****         SSTATUS_SPP = (1 << 8),
  70:src/../h/Riscv.hpp ****     };
  71:src/../h/Riscv.hpp **** 
  72:src/../h/Riscv.hpp ****     // mask set register sstatus
  73:src/../h/Riscv.hpp ****     static void ms_sstatus(uint64 mask);
  74:src/../h/Riscv.hpp **** 
  75:src/../h/Riscv.hpp ****     // mask clear register sstatus
  76:src/../h/Riscv.hpp ****     static void mc_sstatus(uint64 mask);
  77:src/../h/Riscv.hpp **** 
  78:src/../h/Riscv.hpp ****     // read register sstatus
  79:src/../h/Riscv.hpp ****     static uint64 r_sstatus();
  80:src/../h/Riscv.hpp **** 
  81:src/../h/Riscv.hpp ****     // write register sstatus
  82:src/../h/Riscv.hpp ****     static void w_sstatus(uint64 sstatus);
  83:src/../h/Riscv.hpp ****     static void trap();
  84:src/../h/Riscv.hpp ****     static void contextHandler();
  85:src/../h/Riscv.hpp **** private:
  86:src/../h/Riscv.hpp **** 
  87:src/../h/Riscv.hpp ****     static void handleSyscall();
  88:src/../h/Riscv.hpp ****     static void handleTimer();
  89:src/../h/Riscv.hpp ****     static void handleConsole();
  90:src/../h/Riscv.hpp **** };
  91:src/../h/Riscv.hpp **** inline uint64 Riscv::r_sie()
  92:src/../h/Riscv.hpp **** {
  93:src/../h/Riscv.hpp ****     uint64 volatile sie;
  94:src/../h/Riscv.hpp ****     __asm__ volatile ("csrr %[sie], sie" : [sie] "=r"(sie));
  95:src/../h/Riscv.hpp ****     return sie;
GAS LISTING /tmp/ccixOztB.s 			page 4


  96:src/../h/Riscv.hpp **** }
  97:src/../h/Riscv.hpp **** inline void Riscv::w_sie(uint64 sie)
  98:src/../h/Riscv.hpp **** {
  99:src/../h/Riscv.hpp ****     __asm__ volatile ("csrw sie, %[sie]" : : [sie] "r"(sie));
 100:src/../h/Riscv.hpp **** }
 101:src/../h/Riscv.hpp **** inline uint64 Riscv::r_scause()
 102:src/../h/Riscv.hpp **** {
 103:src/../h/Riscv.hpp ****     uint64 volatile scause;
 104:src/../h/Riscv.hpp ****     __asm__ volatile ("csrr %[scause], scause" : [scause] "=r"(scause));
 105:src/../h/Riscv.hpp ****     return scause;
 106:src/../h/Riscv.hpp **** }
 107:src/../h/Riscv.hpp **** 
 108:src/../h/Riscv.hpp **** inline void Riscv::w_scause(uint64 scause)
 109:src/../h/Riscv.hpp **** {
 110:src/../h/Riscv.hpp ****     __asm__ volatile ("csrw scause, %[scause]" : : [scause] "r"(scause));
 111:src/../h/Riscv.hpp **** }
 112:src/../h/Riscv.hpp **** 
 113:src/../h/Riscv.hpp **** inline uint64 Riscv::r_sepc()
 114:src/../h/Riscv.hpp **** {
 115:src/../h/Riscv.hpp ****     uint64 volatile sepc;
 116:src/../h/Riscv.hpp ****     __asm__ volatile ("csrr %[sepc], sepc" : [sepc] "=r"(sepc));
 117:src/../h/Riscv.hpp ****     return sepc;
 118:src/../h/Riscv.hpp **** }
 119:src/../h/Riscv.hpp **** 
 120:src/../h/Riscv.hpp **** inline void Riscv::w_sepc(uint64 sepc)
 121:src/../h/Riscv.hpp **** {
 122:src/../h/Riscv.hpp ****     __asm__ volatile ("csrw sepc, %[sepc]" : : [sepc] "r"(sepc));
 123:src/../h/Riscv.hpp **** }
 124:src/../h/Riscv.hpp **** 
 125:src/../h/Riscv.hpp **** inline uint64 Riscv::r_stvec()
 126:src/../h/Riscv.hpp **** {
 127:src/../h/Riscv.hpp ****     uint64 volatile stvec;
 128:src/../h/Riscv.hpp ****     __asm__ volatile ("csrr %[stvec], stvec" : [stvec] "=r"(stvec));
 129:src/../h/Riscv.hpp ****     return stvec;
 130:src/../h/Riscv.hpp **** }
 131:src/../h/Riscv.hpp **** 
 132:src/../h/Riscv.hpp **** inline void Riscv::w_stvec(uint64 stvec)
 133:src/../h/Riscv.hpp **** {
 134:src/../h/Riscv.hpp ****     __asm__ volatile ("csrw stvec, %[stvec]" : : [stvec] "r"(stvec));
 135:src/../h/Riscv.hpp **** }
 136:src/../h/Riscv.hpp **** 
 137:src/../h/Riscv.hpp **** inline uint64 Riscv::r_stval()
 138:src/../h/Riscv.hpp **** {
 139:src/../h/Riscv.hpp ****     uint64 volatile stval;
 140:src/../h/Riscv.hpp ****     __asm__ volatile ("csrr %[stval], stval" : [stval] "=r"(stval));
 141:src/../h/Riscv.hpp ****     return stval;
 142:src/../h/Riscv.hpp **** }
 143:src/../h/Riscv.hpp **** 
 144:src/../h/Riscv.hpp **** inline void Riscv::w_stval(uint64 stval)
 145:src/../h/Riscv.hpp **** {
 146:src/../h/Riscv.hpp ****     __asm__ volatile ("csrw stval, %[stval]" : : [stval] "r"(stval));
 147:src/../h/Riscv.hpp **** }
 148:src/../h/Riscv.hpp **** 
 149:src/../h/Riscv.hpp **** inline void Riscv::ms_sip(uint64 mask)
 150:src/../h/Riscv.hpp **** {
 151:src/../h/Riscv.hpp ****     __asm__ volatile ("csrs sip, %[mask]" : : [mask] "r"(mask));
 152:src/../h/Riscv.hpp **** }
GAS LISTING /tmp/ccixOztB.s 			page 5


 153:src/../h/Riscv.hpp **** 
 154:src/../h/Riscv.hpp **** inline void Riscv::mc_sip(uint64 mask)
 155:src/../h/Riscv.hpp **** {
 156:src/../h/Riscv.hpp ****     __asm__ volatile ("csrc sip, %[mask]" : : [mask] "r"(mask));
 157:src/../h/Riscv.hpp **** }
 158:src/../h/Riscv.hpp **** 
 159:src/../h/Riscv.hpp **** inline uint64 Riscv::r_sip()
 160:src/../h/Riscv.hpp **** {
 161:src/../h/Riscv.hpp ****     uint64 volatile sip;
 162:src/../h/Riscv.hpp ****     __asm__ volatile ("csrr %[sip], sip" : [sip] "=r"(sip));
 163:src/../h/Riscv.hpp ****     return sip;
 164:src/../h/Riscv.hpp **** }
 165:src/../h/Riscv.hpp **** 
 166:src/../h/Riscv.hpp **** inline void Riscv::w_sip(uint64 sip)
 167:src/../h/Riscv.hpp **** {
 168:src/../h/Riscv.hpp ****     __asm__ volatile ("csrw sip, %[sip]" : : [sip] "r"(sip));
 169:src/../h/Riscv.hpp **** }
 170:src/../h/Riscv.hpp **** 
 171:src/../h/Riscv.hpp **** inline void Riscv::ms_sstatus(uint64 mask)
 172:src/../h/Riscv.hpp **** {
 173:src/../h/Riscv.hpp ****     __asm__ volatile ("csrs sstatus, %[mask]" : : [mask] "r"(mask));
 174:src/../h/Riscv.hpp **** }
 175:src/../h/Riscv.hpp **** 
 176:src/../h/Riscv.hpp **** inline void Riscv::mc_sstatus(uint64 mask)
 177:src/../h/Riscv.hpp **** {
 178:src/../h/Riscv.hpp ****     __asm__ volatile ("csrc sstatus, %[mask]" : : [mask] "r"(mask));
  62              		.loc 2 178 5
  63              		.loc 2 178 68 is_stmt 0
  64 0044 93070010 		li	a5,256
  65              	#APP
  66              	# 178 "src/../h/Riscv.hpp" 1
 179              	}
  67              		csrc sstatus, a5
  68              	# 0 "" 2
  69              	.LVL4:
  70              	#NO_APP
  71              	.LBE13:
  72              	.LBE12:
  16:src/main.cpp  ****     asm volatile("csrw sepc, ra");
  73              		.loc 1 16 5 is_stmt 1
  74              		.loc 1 16 34 is_stmt 0
  75              	#APP
  76              	# 16 "src/main.cpp" 1
  17              	    asm volatile("sret");
  77              		csrw sepc, ra
  78              	# 0 "" 2
  79              		.loc 1 17 5 is_stmt 1
  80              		.loc 1 17 25 is_stmt 0
  81              	# 17 "src/main.cpp" 1
  18              	}
  82              		sret
  83              	# 0 "" 2
  84              		.loc 1 18 1
  85              	#NO_APP
  86 0054 03348100 		ld	s0,8(sp)
  87              		.cfi_restore 8
  88              		.cfi_def_cfa 2, 16
GAS LISTING /tmp/ccixOztB.s 			page 6


  89 0058 13010101 		addi	sp,sp,16
  90              		.cfi_def_cfa_offset 0
  91 005c 67800000 		jr	ra
  92              		.cfi_endproc
  93              	.LFE35:
  95              		.align	2
  96              		.globl	main
  98              	main:
  99              	.LFB36:
  19:src/main.cpp  **** void main(){
 100              		.loc 1 19 12 is_stmt 1
 101              		.cfi_startproc
 102 0060 130101FB 		addi	sp,sp,-80
 103              		.cfi_def_cfa_offset 80
 104 0064 23341104 		sd	ra,72(sp)
 105 0068 23308104 		sd	s0,64(sp)
 106 006c 233C9102 		sd	s1,56(sp)
 107              		.cfi_offset 1, -8
 108              		.cfi_offset 8, -16
 109              		.cfi_offset 9, -24
 110 0070 13040105 		addi	s0,sp,80
 111              		.cfi_def_cfa 8, 0
  20:src/main.cpp  ****     Riscv::w_stvec((uint64)Riscv::contextHandler);
 112              		.loc 1 20 5
 113              		.loc 1 20 19 is_stmt 0
 114 0074 97070000 		la	a5,_ZN5Riscv14contextHandlerEv
 114      83B70700 
 115              	.LVL5:
 116              	.LBB14:
 117              	.LBB15:
 134:src/../h/Riscv.hpp **** }
 118              		.loc 2 134 5 is_stmt 1
 134:src/../h/Riscv.hpp **** }
 119              		.loc 2 134 69 is_stmt 0
 120              	#APP
 121              	# 134 "src/../h/Riscv.hpp" 1
 122              		csrw stvec, a5
 123              	# 0 "" 2
 124              	.LVL6:
 125              	#NO_APP
 126              	.LBE15:
 127              	.LBE14:
  21:src/main.cpp  ****     thread_t outputKernelThread;
 128              		.loc 1 21 5 is_stmt 1
  22:src/main.cpp  ****     thread_t inputKernelThread;
 129              		.loc 1 22 5
  23:src/main.cpp  ****     thread_t userMainThread;
 130              		.loc 1 23 5
  24:src/main.cpp  ****     thread_t mainThread;
 131              		.loc 1 24 5
  25:src/main.cpp  ****     thread_create(&mainThread,nullptr,nullptr);
 132              		.loc 1 25 5
 133              		.loc 1 25 18 is_stmt 0
 134 0080 13060000 		li	a2,0
 135 0084 93050000 		li	a1,0
 136 0088 130504FC 		addi	a0,s0,-64
 137 008c 97000000 		call	_Z13thread_createPP3TCBPFvPvES2_@plt
GAS LISTING /tmp/ccixOztB.s 			page 7


 137      E7800000 
 138              	.LVL7:
  26:src/main.cpp  ****     thread_create(&userMainThread, userMainWrapper,nullptr);
 139              		.loc 1 26 5 is_stmt 1
 140              		.loc 1 26 18 is_stmt 0
 141 0094 13060000 		li	a2,0
 142 0098 97050000 		lla	a1,_Z15userMainWrapperPv
 142      93850500 
 143 00a0 130584FC 		addi	a0,s0,-56
 144 00a4 97000000 		call	_Z13thread_createPP3TCBPFvPvES2_@plt
 144      E7800000 
 145              	.LVL8:
  27:src/main.cpp  ****     userMainThread->setMain();
 146              		.loc 1 27 5 is_stmt 1
 147              		.loc 1 27 28 is_stmt 0
 148 00ac 033584FC 		ld	a0,-56(s0)
 149 00b0 97000000 		call	_ZN3TCB7setMainEv@plt
 149      E7800000 
 150              	.LVL9:
  28:src/main.cpp  ****     sem_open(&mainSem,0);
 151              		.loc 1 28 5 is_stmt 1
 152              		.loc 1 28 13 is_stmt 0
 153 00b8 97040000 		lla	s1,.LANCHOR0
 153      93840400 
 154 00c0 93050000 		li	a1,0
 155 00c4 13850400 		mv	a0,s1
 156 00c8 97000000 		call	_Z8sem_openPP4SemCj@plt
 156      E7800000 
 157              	.LVL10:
  29:src/main.cpp  ****     thread_create(&outputKernelThread,KernelThreads::IOKernelThreadOut,nullptr);
 158              		.loc 1 29 5 is_stmt 1
 159              		.loc 1 29 18 is_stmt 0
 160 00d0 13060000 		li	a2,0
 161 00d4 97050000 		la	a1,_ZN13KernelThreads17IOKernelThreadOutEPv
 161      83B50500 
 162 00dc 130584FD 		addi	a0,s0,-40
 163 00e0 97000000 		call	_Z13thread_createPP3TCBPFvPvES2_@plt
 163      E7800000 
 164              	.LVL11:
  30:src/main.cpp  ****     thread_create(&inputKernelThread,KernelThreads::IOKernelThreadIn,nullptr);
 165              		.loc 1 30 5 is_stmt 1
 166              		.loc 1 30 18 is_stmt 0
 167 00e8 13060000 		li	a2,0
 168 00ec 97050000 		la	a1,_ZN13KernelThreads16IOKernelThreadInEPv
 168      83B50500 
 169 00f4 130504FD 		addi	a0,s0,-48
 170 00f8 97000000 		call	_Z13thread_createPP3TCBPFvPvES2_@plt
 170      E7800000 
 171              	.LVL12:
  31:src/main.cpp  ****     TCB::setRunning(mainThread);
 172              		.loc 1 31 5 is_stmt 1
 173              		.loc 1 31 20 is_stmt 0
 174 0100 033504FC 		ld	a0,-64(s0)
 175 0104 97000000 		call	_ZN3TCB10setRunningEPS_@plt
 175      E7800000 
 176              	.LVL13:
  32:src/main.cpp  ****     Riscv::disable_external_interrupts();
GAS LISTING /tmp/ccixOztB.s 			page 8


 177              		.loc 1 32 5 is_stmt 1
 178              	.LBB16:
 179              	.LBB17:
 180:src/../h/Riscv.hpp **** 
 181:src/../h/Riscv.hpp **** inline uint64 Riscv::r_sstatus()
 182:src/../h/Riscv.hpp **** {
 183:src/../h/Riscv.hpp ****     uint64 volatile sstatus;
 184:src/../h/Riscv.hpp ****     __asm__ volatile ("csrr %[sstatus], sstatus" : [sstatus] "=r"(sstatus));
 185:src/../h/Riscv.hpp ****     return sstatus;
 186:src/../h/Riscv.hpp **** }
 187:src/../h/Riscv.hpp **** inline void Riscv::enable_external_interrupts(){
 188:src/../h/Riscv.hpp ****     uint64 t=1<<9;
 189:src/../h/Riscv.hpp ****     asm volatile("csrs sie, %0"::"r"(t));
 190:src/../h/Riscv.hpp **** }
 191:src/../h/Riscv.hpp **** inline void Riscv::disable_external_interrupts(){
 192:src/../h/Riscv.hpp ****     uint64 t=1<<9;
 180              		.loc 2 192 5
 193:src/../h/Riscv.hpp ****     asm volatile("csrc sie, %0"::"r"(t));
 181              		.loc 2 193 5
 182              		.loc 2 193 41 is_stmt 0
 183 010c 93070020 		li	a5,512
 184              	#APP
 185              	# 193 "src/../h/Riscv.hpp" 1
 194              	}
 186              		csrc sie, a5
 187              	# 0 "" 2
 188              	#NO_APP
 189              	.LBE17:
 190              	.LBE16:
  33:src/main.cpp  ****     Riscv::mc_sstatus(Riscv::SSTATUS_SPP);
 191              		.loc 1 33 5 is_stmt 1
 192              	.LVL14:
 193              	.LBB18:
 194              	.LBB19:
 178:src/../h/Riscv.hpp **** }
 195              		.loc 2 178 5
 178:src/../h/Riscv.hpp **** }
 196              		.loc 2 178 68 is_stmt 0
 197 0114 93070010 		li	a5,256
 198              	#APP
 199              	# 178 "src/../h/Riscv.hpp" 1
 200              		csrc sstatus, a5
 201              	# 0 "" 2
 202              	.LVL15:
 203              	#NO_APP
 204              	.LBE19:
 205              	.LBE18:
  34:src/main.cpp  ****     Riscv::popSppSpie();
 206              		.loc 1 34 5 is_stmt 1
 207              		.loc 1 34 22 is_stmt 0
 208 011c 97000000 		call	_ZN5Riscv10popSppSpieEv@plt
 208      E7800000 
 209              	.LVL16:
  35:src/main.cpp  ****     asm volatile("addi sp, sp, 16");
 210              		.loc 1 35 5 is_stmt 1
 211              		.loc 1 35 36 is_stmt 0
 212              	#APP
GAS LISTING /tmp/ccixOztB.s 			page 9


 213              	# 35 "src/main.cpp" 1
  36              	    asm volatile("addi fp, fp, 80");
 214              		addi sp, sp, 16
 215              	# 0 "" 2
 216              		.loc 1 36 5 is_stmt 1
 217              		.loc 1 36 36 is_stmt 0
 218              	# 36 "src/main.cpp" 1
  37              	    thread_t idleHandle;
 219              		addi fp, fp, 80
 220              	# 0 "" 2
 221              		.loc 1 37 5 is_stmt 1
  38:src/main.cpp  ****     thread_create(&idleHandle, KernelThreads::idleF,nullptr);
 222              		.loc 1 38 5
 223              		.loc 1 38 18 is_stmt 0
 224              	#NO_APP
 225 012c 13060000 		li	a2,0
 226 0130 97050000 		la	a1,_ZN13KernelThreads5idleFEPv
 226      83B50500 
 227 0138 130584FB 		addi	a0,s0,-72
 228 013c 97000000 		call	_Z13thread_createPP3TCBPFvPvES2_@plt
 228      E7800000 
 229              	.LVL17:
  39:src/main.cpp  ****     mainSem->wait();
 230              		.loc 1 39 5 is_stmt 1
 231              		.loc 1 39 18 is_stmt 0
 232 0144 03B50400 		ld	a0,0(s1)
 233 0148 97000000 		call	_ZN4SemC4waitEv@plt
 233      E7800000 
 234              	.LVL18:
  40:src/main.cpp  ****     KernelConsole::flush();
 235              		.loc 1 40 5 is_stmt 1
 236              		.loc 1 40 25 is_stmt 0
 237 0150 97000000 		call	_ZN13KernelConsole5flushEv@plt
 237      E7800000 
 238              	.LVL19:
  41:src/main.cpp  ****     Riscv::halt();
 239              		.loc 1 41 5 is_stmt 1
 240              	.LBB20:
 241              	.LBB21:
 195:src/../h/Riscv.hpp **** inline void Riscv::w_sstatus(uint64 sstatus)
 196:src/../h/Riscv.hpp **** {
 197:src/../h/Riscv.hpp ****     __asm__ volatile ("csrw sstatus, %[sstatus]" : : [sstatus] "r"(sstatus));
 198:src/../h/Riscv.hpp **** }
 199:src/../h/Riscv.hpp **** inline uint64 Riscv::r_a0() {
 200:src/../h/Riscv.hpp ****     uint64 volatile a0;
 201:src/../h/Riscv.hpp ****     __asm__ volatile ("mv %0, a0" :"=r"(a0));
 202:src/../h/Riscv.hpp ****     return a0;
 203:src/../h/Riscv.hpp **** }
 204:src/../h/Riscv.hpp **** inline uint64 Riscv::r_a1() {
 205:src/../h/Riscv.hpp ****     uint64 volatile a1;
 206:src/../h/Riscv.hpp ****     __asm__ volatile ("mv %0, a1" :"=r"(a1));
 207:src/../h/Riscv.hpp ****     return a1;
 208:src/../h/Riscv.hpp **** }
 209:src/../h/Riscv.hpp **** inline uint64 Riscv::r_a2() {
 210:src/../h/Riscv.hpp ****     uint64 volatile a2;
 211:src/../h/Riscv.hpp ****     __asm__ volatile ("mv %0, a2" :"=r"(a2));
 212:src/../h/Riscv.hpp ****     return a2;
GAS LISTING /tmp/ccixOztB.s 			page 10


 213:src/../h/Riscv.hpp **** }
 214:src/../h/Riscv.hpp **** inline uint64 Riscv::r_a3() {
 215:src/../h/Riscv.hpp ****     uint64 volatile a3;
 216:src/../h/Riscv.hpp ****     __asm__ volatile ("mv %0, a3" :"=r"(a3));
 217:src/../h/Riscv.hpp ****     return a3;
 218:src/../h/Riscv.hpp **** }
 219:src/../h/Riscv.hpp **** inline uint64 Riscv::r_a4() {
 220:src/../h/Riscv.hpp ****     uint64 volatile a4;
 221:src/../h/Riscv.hpp ****     __asm__ volatile ("mv %0, a4" :"=r"(a4));
 222:src/../h/Riscv.hpp ****     return a4;
 223:src/../h/Riscv.hpp **** }
 224:src/../h/Riscv.hpp **** inline void Riscv::halt() {
 225:src/../h/Riscv.hpp ****     uint32* ptr=(uint32*)STOPADR;
 242              		.loc 2 225 5
 226:src/../h/Riscv.hpp ****     *ptr=STOP;
 243              		.loc 2 226 5
 244              		.loc 2 226 9 is_stmt 0
 245 0158 37071000 		li	a4,1048576
 246 015c B7570000 		li	a5,20480
 247 0160 9B875755 		addiw	a5,a5,1365
 248 0164 2320F700 		sw	a5,0(a4)
 249              	.LBE21:
 250              	.LBE20:
  42:src/main.cpp  **** }
 251              		.loc 1 42 1
 252 0168 83308104 		ld	ra,72(sp)
 253              		.cfi_restore 1
 254 016c 03340104 		ld	s0,64(sp)
 255              		.cfi_restore 8
 256              		.cfi_def_cfa 2, 80
 257 0170 83348103 		ld	s1,56(sp)
 258              		.cfi_restore 9
 259 0174 13010105 		addi	sp,sp,80
 260              		.cfi_def_cfa_offset 0
 261 0178 67800000 		jr	ra
 262              		.cfi_endproc
 263              	.LFE36:
 265              		.bss
 266              		.align	3
 267              		.set	.LANCHOR0,. + 0
 270              	_ZL7mainSem:
 271 0000 00000000 		.zero	8
 271      00000000 
 272              		.text
 273              	.Letext0:
 274              		.file 3 "src/../lib/hw.h"
 275              		.file 4 "src/../h/syscall_c.hpp"
 276              		.file 5 "src/../h/TCB.hpp"
 277              		.file 6 "src/../h/SemC.hpp"
 278              		.file 7 "src/../h/codes.hpp"
 279              		.file 8 "src/../h/BlockedQueue.hpp"
 280              		.file 9 "src/../h/IOBuffer.hpp"
 281              		.file 10 "src/../h/KernelConsole.hpp"
 282              		.file 11 "src/../h/userMain.hpp"
GAS LISTING /tmp/ccixOztB.s 			page 11


DEFINED SYMBOLS
                            *ABS*:0000000000000000 main.cpp
     /tmp/ccixOztB.s:9      .text:0000000000000000 _Z15userMainWrapperPv
     /tmp/ccixOztB.s:13     .text:0000000000000000 .L0 
     /tmp/ccixOztB.s:15     .text:0000000000000000 .L0 
     /tmp/ccixOztB.s:16     .text:0000000000000004 .L0 
     /tmp/ccixOztB.s:19     .text:000000000000000c .L0 
     /tmp/ccixOztB.s:20     .text:000000000000000c .L0 
     /tmp/ccixOztB.s:22     .text:0000000000000010 .L0 
     /tmp/ccixOztB.s:24     .text:0000000000000010 .L0 
     /tmp/ccixOztB.s:25     .text:0000000000000010 .L0 
     /tmp/ccixOztB.s:28     .text:0000000000000018 .L0 
     /tmp/ccixOztB.s:29     .text:0000000000000018 .L0 
     /tmp/ccixOztB.s:33     .text:0000000000000028 .L0 
     /tmp/ccixOztB.s:34     .text:000000000000002c .L0 
     /tmp/ccixOztB.s:36     .text:0000000000000030 .L0 
     /tmp/ccixOztB.s:37     .text:0000000000000030 .L0 
     /tmp/ccixOztB.s:39     .text:0000000000000034 .L0 
     /tmp/ccixOztB.s:41     .text:0000000000000038 .L0 
     /tmp/ccixOztB.s:47     .text:0000000000000038 _Z22switchFromSModeToUModev
     /tmp/ccixOztB.s:50     .text:0000000000000038 .L0 
     /tmp/ccixOztB.s:51     .text:0000000000000038 .L0 
     /tmp/ccixOztB.s:52     .text:000000000000003c .L0 
     /tmp/ccixOztB.s:54     .text:0000000000000040 .L0 
     /tmp/ccixOztB.s:56     .text:0000000000000044 .L0 
     /tmp/ccixOztB.s:62     .text:0000000000000044 .L0 
     /tmp/ccixOztB.s:63     .text:0000000000000044 .L0 
     /tmp/ccixOztB.s:64     .text:0000000000000044 .L0 
     /tmp/ccixOztB.s:74     .text:000000000000004c .L0 
        src/main.cpp:16     .text:000000000000004c .L0 
     /tmp/ccixOztB.s:80     .text:0000000000000050 .L0 
        src/main.cpp:17     .text:0000000000000050 .L0 
     /tmp/ccixOztB.s:86     .text:0000000000000054 .L0 
     /tmp/ccixOztB.s:87     .text:0000000000000058 .L0 
     /tmp/ccixOztB.s:88     .text:0000000000000058 .L0 
     /tmp/ccixOztB.s:90     .text:000000000000005c .L0 
     /tmp/ccixOztB.s:92     .text:0000000000000060 .L0 
     /tmp/ccixOztB.s:98     .text:0000000000000060 main
     /tmp/ccixOztB.s:101    .text:0000000000000060 .L0 
     /tmp/ccixOztB.s:102    .text:0000000000000060 .L0 
     /tmp/ccixOztB.s:103    .text:0000000000000064 .L0 
     /tmp/ccixOztB.s:107    .text:0000000000000070 .L0 
     /tmp/ccixOztB.s:108    .text:0000000000000070 .L0 
     /tmp/ccixOztB.s:109    .text:0000000000000070 .L0 
     /tmp/ccixOztB.s:111    .text:0000000000000074 .L0 
     /tmp/ccixOztB.s:113    .text:0000000000000074 .L0 
     /tmp/ccixOztB.s:114    .text:0000000000000074 .L0 
     /tmp/ccixOztB.s:119    .text:000000000000007c .L0 
  src/../h/Riscv.hpp:134    .text:000000000000007c .L0 
     /tmp/ccixOztB.s:129    .text:0000000000000080 .L0 
     /tmp/ccixOztB.s:130    .text:0000000000000080 .L0 
     /tmp/ccixOztB.s:131    .text:0000000000000080 .L0 
     /tmp/ccixOztB.s:132    .text:0000000000000080 .L0 
     /tmp/ccixOztB.s:133    .text:0000000000000080 .L0 
     /tmp/ccixOztB.s:134    .text:0000000000000080 .L0 
     /tmp/ccixOztB.s:140    .text:0000000000000094 .L0 
     /tmp/ccixOztB.s:141    .text:0000000000000094 .L0 
GAS LISTING /tmp/ccixOztB.s 			page 12


     /tmp/ccixOztB.s:147    .text:00000000000000ac .L0 
     /tmp/ccixOztB.s:148    .text:00000000000000ac .L0 
     /tmp/ccixOztB.s:152    .text:00000000000000b8 .L0 
     /tmp/ccixOztB.s:153    .text:00000000000000b8 .L0 
     /tmp/ccixOztB.s:159    .text:00000000000000d0 .L0 
     /tmp/ccixOztB.s:160    .text:00000000000000d0 .L0 
     /tmp/ccixOztB.s:166    .text:00000000000000e8 .L0 
     /tmp/ccixOztB.s:167    .text:00000000000000e8 .L0 
     /tmp/ccixOztB.s:173    .text:0000000000000100 .L0 
     /tmp/ccixOztB.s:174    .text:0000000000000100 .L0 
     /tmp/ccixOztB.s:180    .text:000000000000010c .L0 
     /tmp/ccixOztB.s:181    .text:000000000000010c .L0 
     /tmp/ccixOztB.s:182    .text:000000000000010c .L0 
     /tmp/ccixOztB.s:183    .text:000000000000010c .L0 
     /tmp/ccixOztB.s:195    .text:0000000000000114 .L0 
     /tmp/ccixOztB.s:196    .text:0000000000000114 .L0 
     /tmp/ccixOztB.s:197    .text:0000000000000114 .L0 
     /tmp/ccixOztB.s:207    .text:000000000000011c .L0 
     /tmp/ccixOztB.s:208    .text:000000000000011c .L0 
     /tmp/ccixOztB.s:211    .text:0000000000000124 .L0 
        src/main.cpp:35     .text:0000000000000124 .L0 
     /tmp/ccixOztB.s:217    .text:0000000000000128 .L0 
        src/main.cpp:36     .text:0000000000000128 .L0 
     /tmp/ccixOztB.s:222    .text:000000000000012c .L0 
     /tmp/ccixOztB.s:223    .text:000000000000012c .L0 
     /tmp/ccixOztB.s:225    .text:000000000000012c .L0 
     /tmp/ccixOztB.s:231    .text:0000000000000144 .L0 
     /tmp/ccixOztB.s:232    .text:0000000000000144 .L0 
     /tmp/ccixOztB.s:236    .text:0000000000000150 .L0 
     /tmp/ccixOztB.s:237    .text:0000000000000150 .L0 
     /tmp/ccixOztB.s:242    .text:0000000000000158 .L0 
     /tmp/ccixOztB.s:243    .text:0000000000000158 .L0 
     /tmp/ccixOztB.s:244    .text:0000000000000158 .L0 
     /tmp/ccixOztB.s:245    .text:0000000000000158 .L0 
     /tmp/ccixOztB.s:252    .text:0000000000000168 .L0 
     /tmp/ccixOztB.s:253    .text:000000000000016c .L0 
     /tmp/ccixOztB.s:255    .text:0000000000000170 .L0 
     /tmp/ccixOztB.s:256    .text:0000000000000170 .L0 
     /tmp/ccixOztB.s:258    .text:0000000000000174 .L0 
     /tmp/ccixOztB.s:260    .text:0000000000000178 .L0 
     /tmp/ccixOztB.s:262    .text:000000000000017c .L0 
     /tmp/ccixOztB.s:267    .bss:0000000000000000 .LANCHOR0
     /tmp/ccixOztB.s:270    .bss:0000000000000000 _ZL7mainSem
     /tmp/ccixOztB.s:283    .text:000000000000017c .L0 
     /tmp/ccixOztB.s:29     .text:0000000000000018 .L0 
     /tmp/ccixOztB.s:114    .text:0000000000000074 .L0 
     /tmp/ccixOztB.s:142    .text:0000000000000098 .L0 
     /tmp/ccixOztB.s:153    .text:00000000000000b8 .L0 
     /tmp/ccixOztB.s:161    .text:00000000000000d4 .L0 
     /tmp/ccixOztB.s:168    .text:00000000000000ec .L0 
     /tmp/ccixOztB.s:226    .text:0000000000000130 .L0 
     /tmp/ccixOztB.s:2304   .debug_abbrev:0000000000000000 .Ldebug_abbrev0
     /tmp/ccixOztB.s:3776   .debug_str:0000000000000d38 .LASF266
     /tmp/ccixOztB.s:3470   .debug_str:000000000000032b .LASF267
     /tmp/ccixOztB.s:3552   .debug_str:00000000000005c9 .LASF268
     /tmp/ccixOztB.s:5      .text:0000000000000000 .Ltext0
     /tmp/ccixOztB.s:273    .text:000000000000017c .Letext0
GAS LISTING /tmp/ccixOztB.s 			page 13


     /tmp/ccixOztB.s:3360   .debug_line:0000000000000000 .Ldebug_line0
     /tmp/ccixOztB.s:3520   .debug_str:00000000000004b7 .LASF0
     /tmp/ccixOztB.s:3556   .debug_str:000000000000061a .LASF1
     /tmp/ccixOztB.s:3698   .debug_str:0000000000000ac4 .LASF2
     /tmp/ccixOztB.s:3484   .debug_str:0000000000000396 .LASF3
     /tmp/ccixOztB.s:3704   .debug_str:0000000000000aef .LASF4
     /tmp/ccixOztB.s:3536   .debug_str:000000000000054a .LASF5
     /tmp/ccixOztB.s:3368   .debug_str:0000000000000023 .LASF6
     /tmp/ccixOztB.s:3668   .debug_str:00000000000009e7 .LASF7
     /tmp/ccixOztB.s:3654   .debug_str:0000000000000978 .LASF8
     /tmp/ccixOztB.s:3544   .debug_str:000000000000058b .LASF9
     /tmp/ccixOztB.s:3480   .debug_str:0000000000000379 .LASF10
     /tmp/ccixOztB.s:3498   .debug_str:0000000000000403 .LASF11
     /tmp/ccixOztB.s:3414   .debug_str:000000000000019e .LASF12
     /tmp/ccixOztB.s:3468   .debug_str:000000000000031c .LASF13
     /tmp/ccixOztB.s:3426   .debug_str:0000000000000200 .LASF14
     /tmp/ccixOztB.s:3412   .debug_str:000000000000018e .LASF15
     /tmp/ccixOztB.s:3748   .debug_str:0000000000000c44 .LASF16
     /tmp/ccixOztB.s:3452   .debug_str:00000000000002ba .LASF17
     /tmp/ccixOztB.s:3728   .debug_str:0000000000000bb7 .LASF18
     /tmp/ccixOztB.s:3836   .debug_str:0000000000001019 .LASF19
     /tmp/ccixOztB.s:3876   .debug_str:00000000000010ef .LASF199
     /tmp/ccixOztB.s:3890   .debug_str:000000000000116f .LASF20
     /tmp/ccixOztB.s:3494   .debug_str:00000000000003dc .LASF28
     /tmp/ccixOztB.s:3364   .debug_str:000000000000000b .LASF21
     /tmp/ccixOztB.s:3574   .debug_str:00000000000006a2 .LASF23
     /tmp/ccixOztB.s:3488   .debug_str:00000000000003ba .LASF38
     /tmp/ccixOztB.s:3726   .debug_str:0000000000000ba1 .LASF40
     /tmp/ccixOztB.s:3362   .debug_str:0000000000000000 .LASF22
     /tmp/ccixOztB.s:3768   .debug_str:0000000000000d02 .LASF24
     /tmp/ccixOztB.s:3442   .debug_str:000000000000028a .LASF34
     /tmp/ccixOztB.s:3420   .debug_str:00000000000001ca .LASF36
     /tmp/ccixOztB.s:3558   .debug_str:000000000000062d .LASF25
     /tmp/ccixOztB.s:3386   .debug_str:00000000000000af .LASF26
     /tmp/ccixOztB.s:3422   .debug_str:00000000000001dd .LASF27
     /tmp/ccixOztB.s:3402   .debug_str:000000000000011e .LASF29
     /tmp/ccixOztB.s:3782   .debug_str:0000000000000e27 .LASF30
     /tmp/ccixOztB.s:3874   .debug_str:00000000000010d7 .LASF32
     /tmp/ccixOztB.s:3560   .debug_str:0000000000000633 .LASF31
     /tmp/ccixOztB.s:3820   .debug_str:0000000000000f7a .LASF33
     /tmp/ccixOztB.s:3554   .debug_str:0000000000000607 .LASF35
     /tmp/ccixOztB.s:3528   .debug_str:0000000000000502 .LASF37
     /tmp/ccixOztB.s:3546   .debug_str:000000000000059e .LASF39
     /tmp/ccixOztB.s:3382   .debug_str:0000000000000076 .LASF41
     /tmp/ccixOztB.s:3734   .debug_str:0000000000000bf0 .LASF42
     /tmp/ccixOztB.s:3720   .debug_str:0000000000000b68 .LASF43
     /tmp/ccixOztB.s:3376   .debug_str:0000000000000050 .LASF44
     /tmp/ccixOztB.s:3566   .debug_str:0000000000000664 .LASF45
     /tmp/ccixOztB.s:3384   .debug_str:0000000000000094 .LASF46
     /tmp/ccixOztB.s:3802   .debug_str:0000000000000ecb .LASF47
     /tmp/ccixOztB.s:3486   .debug_str:000000000000039d .LASF48
     /tmp/ccixOztB.s:3526   .debug_str:00000000000004da .LASF49
     /tmp/ccixOztB.s:3542   .debug_str:000000000000057b .LASF50
     /tmp/ccixOztB.s:3752   .debug_str:0000000000000c61 .LASF51
     /tmp/ccixOztB.s:3472   .debug_str:0000000000000338 .LASF52
     /tmp/ccixOztB.s:3658   .debug_str:00000000000009a9 .LASF53
     /tmp/ccixOztB.s:3434   .debug_str:000000000000025e .LASF54
GAS LISTING /tmp/ccixOztB.s 			page 14


     /tmp/ccixOztB.s:3648   .debug_str:0000000000000949 .LASF55
     /tmp/ccixOztB.s:3586   .debug_str:0000000000000714 .LASF56
     /tmp/ccixOztB.s:3436   .debug_str:000000000000026e .LASF57
     /tmp/ccixOztB.s:3408   .debug_str:0000000000000163 .LASF58
     /tmp/ccixOztB.s:3784   .debug_str:0000000000000e33 .LASF59
     /tmp/ccixOztB.s:3592   .debug_str:000000000000074b .LASF60
     /tmp/ccixOztB.s:3772   .debug_str:0000000000000d23 .LASF61
     /tmp/ccixOztB.s:3400   .debug_str:0000000000000110 .LASF189
     /tmp/ccixOztB.s:3562   .debug_str:0000000000000640 .LASF191
     /tmp/ccixOztB.s:3398   .debug_str:0000000000000105 .LASF62
     /tmp/ccixOztB.s:3608   .debug_str:00000000000007e5 .LASF63
     /tmp/ccixOztB.s:3630   .debug_str:000000000000089e .LASF64
     /tmp/ccixOztB.s:3694   .debug_str:0000000000000ab0 .LASF65
     /tmp/ccixOztB.s:3440   .debug_str:0000000000000281 .LASF66
     /tmp/ccixOztB.s:3450   .debug_str:00000000000002aa .LASF67
     /tmp/ccixOztB.s:3564   .debug_str:0000000000000659 .LASF68
     /tmp/ccixOztB.s:3830   .debug_str:0000000000000ff8 .LASF69
     /tmp/ccixOztB.s:3448   .debug_str:000000000000029e .LASF70
     /tmp/ccixOztB.s:3724   .debug_str:0000000000000b95 .LASF71
     /tmp/ccixOztB.s:3730   .debug_str:0000000000000bcd .LASF72
     /tmp/ccixOztB.s:3580   .debug_str:00000000000006eb .LASF73
     /tmp/ccixOztB.s:3832   .debug_str:0000000000001002 .LASF74
     /tmp/ccixOztB.s:3390   .debug_str:00000000000000cd .LASF75
     /tmp/ccixOztB.s:3868   .debug_str:00000000000010b8 .LASF76
     /tmp/ccixOztB.s:3650   .debug_str:0000000000000965 .LASF77
     /tmp/ccixOztB.s:3640   .debug_str:00000000000008fa .LASF78
     /tmp/ccixOztB.s:3804   .debug_str:0000000000000ef2 .LASF79
     /tmp/ccixOztB.s:3378   .debug_str:0000000000000058 .LASF80
     /tmp/ccixOztB.s:3722   .debug_str:0000000000000b88 .LASF81
     /tmp/ccixOztB.s:3582   .debug_str:00000000000006f5 .LASF82
     /tmp/ccixOztB.s:3444   .debug_str:0000000000000293 .LASF83
     /tmp/ccixOztB.s:3646   .debug_str:0000000000000939 .LASF84
     /tmp/ccixOztB.s:3756   .debug_str:0000000000000c98 .LASF85
     /tmp/ccixOztB.s:3794   .debug_str:0000000000000e93 .LASF86
     /tmp/ccixOztB.s:3632   .debug_str:00000000000008ab .LASF87
     /tmp/ccixOztB.s:3604   .debug_str:00000000000007ba .LASF88
     /tmp/ccixOztB.s:3666   .debug_str:00000000000009dd .LASF89
     /tmp/ccixOztB.s:3394   .debug_str:00000000000000ea .LASF90
     /tmp/ccixOztB.s:3744   .debug_str:0000000000000c2e .LASF91
     /tmp/ccixOztB.s:3844   .debug_str:0000000000001041 .LASF92
     /tmp/ccixOztB.s:3518   .debug_str:00000000000004b1 .LASF93
     /tmp/ccixOztB.s:3572   .debug_str:0000000000000691 .LASF94
     /tmp/ccixOztB.s:3676   .debug_str:0000000000000a34 .LASF95
     /tmp/ccixOztB.s:3818   .debug_str:0000000000000f5c .LASF96
     /tmp/ccixOztB.s:3366   .debug_str:000000000000001b .LASF97
     /tmp/ccixOztB.s:3534   .debug_str:0000000000000537 .LASF98
     /tmp/ccixOztB.s:3880   .debug_str:000000000000110d .LASF99
     /tmp/ccixOztB.s:3462   .debug_str:00000000000002fe .LASF100
     /tmp/ccixOztB.s:3502   .debug_str:0000000000000417 .LASF101
     /tmp/ccixOztB.s:3762   .debug_str:0000000000000cc9 .LASF102
     /tmp/ccixOztB.s:3686   .debug_str:0000000000000a8c .LASF103
     /tmp/ccixOztB.s:3714   .debug_str:0000000000000b32 .LASF207
     /tmp/ccixOztB.s:3622   .debug_str:000000000000085a .LASF104
     /tmp/ccixOztB.s:3540   .debug_str:000000000000056d .LASF105
     /tmp/ccixOztB.s:3900   .debug_str:00000000000011b2 .LASF106
     /tmp/ccixOztB.s:3454   .debug_str:00000000000002d0 .LASF107
     /tmp/ccixOztB.s:3896   .debug_str:0000000000001195 .LASF108
GAS LISTING /tmp/ccixOztB.s 			page 15


     /tmp/ccixOztB.s:3404   .debug_str:0000000000000136 .LASF109
     /tmp/ccixOztB.s:3838   .debug_str:0000000000001022 .LASF110
     /tmp/ccixOztB.s:3862   .debug_str:000000000000109c .LASF111
     /tmp/ccixOztB.s:3464   .debug_str:0000000000000304 .LASF112
     /tmp/ccixOztB.s:3392   .debug_str:00000000000000d7 .LASF113
     /tmp/ccixOztB.s:3750   .debug_str:0000000000000c50 .LASF114
     /tmp/ccixOztB.s:3380   .debug_str:000000000000006b .LASF115
     /tmp/ccixOztB.s:3798   .debug_str:0000000000000eac .LASF116
     /tmp/ccixOztB.s:3808   .debug_str:0000000000000f15 .LASF117
     /tmp/ccixOztB.s:3758   .debug_str:0000000000000c9f .LASF118
     /tmp/ccixOztB.s:3882   .debug_str:0000000000001117 .LASF119
     /tmp/ccixOztB.s:3410   .debug_str:000000000000017b .LASF120
     /tmp/ccixOztB.s:3644   .debug_str:0000000000000928 .LASF121
     /tmp/ccixOztB.s:3490   .debug_str:00000000000003c5 .LASF122
     /tmp/ccixOztB.s:3736   .debug_str:0000000000000c05 .LASF123
     /tmp/ccixOztB.s:3522   .debug_str:00000000000004c4 .LASF124
     /tmp/ccixOztB.s:3692   .debug_str:0000000000000aab .LASF125
     /tmp/ccixOztB.s:3530   .debug_str:0000000000000520 .LASF126
     /tmp/ccixOztB.s:3842   .debug_str:000000000000103b .LASF127
     /tmp/ccixOztB.s:3824   .debug_str:0000000000000fa7 .LASF269
     /tmp/ccixOztB.s:3460   .debug_str:00000000000002f2 .LASF128
     /tmp/ccixOztB.s:3774   .debug_str:0000000000000d2b .LASF129
     /tmp/ccixOztB.s:3438   .debug_str:0000000000000275 .LASF130
     /tmp/ccixOztB.s:3506   .debug_str:0000000000000452 .LASF131
     /tmp/ccixOztB.s:3514   .debug_str:000000000000047d .LASF132
     /tmp/ccixOztB.s:3864   .debug_str:00000000000010aa .LASF133
     /tmp/ccixOztB.s:3690   .debug_str:0000000000000a9a .LASF134
     /tmp/ccixOztB.s:3396   .debug_str:00000000000000ff .LASF135
     /tmp/ccixOztB.s:3884   .debug_str:0000000000001129 .LASF136
     /tmp/ccixOztB.s:3510   .debug_str:0000000000000465 .LASF137
     /tmp/ccixOztB.s:3432   .debug_str:000000000000024c .LASF138
     /tmp/ccixOztB.s:3812   .debug_str:0000000000000f42 .LASF139
     /tmp/ccixOztB.s:3800   .debug_str:0000000000000eb6 .LASF140
     /tmp/ccixOztB.s:3524   .debug_str:00000000000004d1 .LASF141
     /tmp/ccixOztB.s:3638   .debug_str:00000000000008e5 .LASF142
     /tmp/ccixOztB.s:3850   .debug_str:000000000000106a .LASF143
     /tmp/ccixOztB.s:3760   .debug_str:0000000000000cb8 .LASF144
     /tmp/ccixOztB.s:3852   .debug_str:000000000000106f .LASF145
     /tmp/ccixOztB.s:3538   .debug_str:000000000000055c .LASF146
     /tmp/ccixOztB.s:3854   .debug_str:0000000000001074 .LASF147
     /tmp/ccixOztB.s:3870   .debug_str:00000000000010be .LASF148
     /tmp/ccixOztB.s:3856   .debug_str:0000000000001079 .LASF149
     /tmp/ccixOztB.s:3902   .debug_str:00000000000011c5 .LASF150
     /tmp/ccixOztB.s:3858   .debug_str:000000000000107e .LASF151
     /tmp/ccixOztB.s:3792   .debug_str:0000000000000e82 .LASF152
     /tmp/ccixOztB.s:3674   .debug_str:0000000000000a2d .LASF153
     /tmp/ccixOztB.s:3680   .debug_str:0000000000000a5e .LASF154
     /tmp/ccixOztB.s:3626   .debug_str:0000000000000880 .LASF155
     /tmp/ccixOztB.s:3548   .debug_str:00000000000005b1 .LASF156
     /tmp/ccixOztB.s:3614   .debug_str:0000000000000826 .LASF157
     /tmp/ccixOztB.s:3780   .debug_str:0000000000000e13 .LASF158
     /tmp/ccixOztB.s:3618   .debug_str:000000000000084d .LASF159
     /tmp/ccixOztB.s:3636   .debug_str:00000000000008d1 .LASF160
     /tmp/ccixOztB.s:3602   .debug_str:00000000000007b2 .LASF161
     /tmp/ccixOztB.s:3682   .debug_str:0000000000000a71 .LASF162
     /tmp/ccixOztB.s:3898   .debug_str:00000000000011aa .LASF163
     /tmp/ccixOztB.s:3822   .debug_str:0000000000000f93 .LASF164
GAS LISTING /tmp/ccixOztB.s 			page 16


     /tmp/ccixOztB.s:3742   .debug_str:0000000000000c27 .LASF165
     /tmp/ccixOztB.s:3708   .debug_str:0000000000000b04 .LASF166
     /tmp/ccixOztB.s:3710   .debug_str:0000000000000b17 .LASF167
     /tmp/ccixOztB.s:3418   .debug_str:00000000000001b7 .LASF168
     /tmp/ccixOztB.s:3446   .debug_str:0000000000000298 .LASF169
     /tmp/ccixOztB.s:3512   .debug_str:000000000000046b .LASF170
     /tmp/ccixOztB.s:3578   .debug_str:00000000000006d0 .LASF171
     /tmp/ccixOztB.s:3504   .debug_str:000000000000042a .LASF172
     /tmp/ccixOztB.s:3786   .debug_str:0000000000000e3d .LASF173
     /tmp/ccixOztB.s:3672   .debug_str:0000000000000a04 .LASF174
     /tmp/ccixOztB.s:3500   .debug_str:0000000000000411 .LASF175
     /tmp/ccixOztB.s:3570   .debug_str:000000000000067f .LASF176
     /tmp/ccixOztB.s:3370   .debug_str:000000000000002a .LASF177
     /tmp/ccixOztB.s:3700   .debug_str:0000000000000ad2 .LASF178
     /tmp/ccixOztB.s:3696   .debug_str:0000000000000ab9 .LASF179
     /tmp/ccixOztB.s:3888   .debug_str:0000000000001157 .LASF180
     /tmp/ccixOztB.s:3846   .debug_str:0000000000001054 .LASF181
     /tmp/ccixOztB.s:3424   .debug_str:00000000000001ea .LASF182
     /tmp/ccixOztB.s:3416   .debug_str:00000000000001ad .LASF183
     /tmp/ccixOztB.s:3594   .debug_str:000000000000075b .LASF184
     /tmp/ccixOztB.s:3550   .debug_str:00000000000005c4 .LASF185
     /tmp/ccixOztB.s:3600   .debug_str:00000000000007a1 .LASF186
     /tmp/ccixOztB.s:3532   .debug_str:0000000000000528 .LASF187
     /tmp/ccixOztB.s:3516   .debug_str:0000000000000495 .LASF188
     /tmp/ccixOztB.s:3706   .debug_str:0000000000000af6 .LASF190
     /tmp/ccixOztB.s:3496   .debug_str:00000000000003e8 .LASF192
     /tmp/ccixOztB.s:3848   .debug_str:000000000000105e .LASF193
     /tmp/ccixOztB.s:3860   .debug_str:0000000000001083 .LASF194
     /tmp/ccixOztB.s:3652   .debug_str:000000000000096a .LASF195
     /tmp/ccixOztB.s:3806   .debug_str:0000000000000efa .LASF196
     /tmp/ccixOztB.s:3482   .debug_str:0000000000000389 .LASF197
     /tmp/ccixOztB.s:3670   .debug_str:00000000000009ee .LASF198
     /tmp/ccixOztB.s:3610   .debug_str:00000000000007ef .LASF270
     /tmp/ccixOztB.s:3678   .debug_str:0000000000000a42 .LASF200
     /tmp/ccixOztB.s:3372   .debug_str:0000000000000035 .LASF201
     /tmp/ccixOztB.s:3476   .debug_str:000000000000034d .LASF202
     /tmp/ccixOztB.s:3834   .debug_str:000000000000100c .LASF203
     /tmp/ccixOztB.s:3826   .debug_str:0000000000000fb6 .LASF204
     /tmp/ccixOztB.s:3738   .debug_str:0000000000000c10 .LASF205
     /tmp/ccixOztB.s:3620   .debug_str:0000000000000855 .LASF206
     /tmp/ccixOztB.s:3886   .debug_str:000000000000113b .LASF208
     /tmp/ccixOztB.s:3568   .debug_str:0000000000000676 .LASF209
     /tmp/ccixOztB.s:3584   .debug_str:0000000000000703 .LASF210
     /tmp/ccixOztB.s:3466   .debug_str:0000000000000314 .LASF211
     /tmp/ccixOztB.s:3754   .debug_str:0000000000000c81 .LASF212
     /tmp/ccixOztB.s:3878   .debug_str:0000000000001105 .LASF213
     /tmp/ccixOztB.s:3628   .debug_str:0000000000000887 .LASF214
     /tmp/ccixOztB.s:3388   .debug_str:00000000000000c4 .LASF215
     /tmp/ccixOztB.s:3634   .debug_str:00000000000008b8 .LASF216
     /tmp/ccixOztB.s:3770   .debug_str:0000000000000d1a .LASF217
     /tmp/ccixOztB.s:3732   .debug_str:0000000000000bd7 .LASF218
     /tmp/ccixOztB.s:3428   .debug_str:0000000000000210 .LASF219
     /tmp/ccixOztB.s:3810   .debug_str:0000000000000f1f .LASF220
     /tmp/ccixOztB.s:3790   .debug_str:0000000000000e6f .LASF221
     /tmp/ccixOztB.s:3598   .debug_str:000000000000077e .LASF222
     /tmp/ccixOztB.s:3492   .debug_str:00000000000003d6 .LASF223
     /tmp/ccixOztB.s:3796   .debug_str:0000000000000ea5 .LASF224
GAS LISTING /tmp/ccixOztB.s 			page 17


     /tmp/ccixOztB.s:3894   .debug_str:000000000000118f .LASF225
     /tmp/ccixOztB.s:3660   .debug_str:00000000000009c5 .LASF226
     /tmp/ccixOztB.s:3664   .debug_str:00000000000009d4 .LASF271
     /tmp/ccixOztB.s:3606   .debug_str:00000000000007d7 .LASF227
     /tmp/ccixOztB.s:3764   .debug_str:0000000000000cce .LASF228
     /tmp/ccixOztB.s:3430   .debug_str:0000000000000223 .LASF229
     /tmp/ccixOztB.s:3816   .debug_str:0000000000000f56 .LASF230
     /tmp/ccixOztB.s:3588   .debug_str:0000000000000721 .LASF231
     /tmp/ccixOztB.s:3904   .debug_str:00000000000011d6 .LASF232
     /tmp/ccixOztB.s:3612   .debug_str:0000000000000807 .LASF233
     /tmp/ccixOztB.s:3458   .debug_str:00000000000002e7 .LASF234
     /tmp/ccixOztB.s:3766   .debug_str:0000000000000ce1 .LASF235
     /tmp/ccixOztB.s:3840   .debug_str:0000000000001031 .LASF236
     /tmp/ccixOztB.s:3616   .debug_str:000000000000082e .LASF237
     /tmp/ccixOztB.s:3814   .debug_str:0000000000000f4b .LASF238
     /tmp/ccixOztB.s:3576   .debug_str:00000000000006af .LASF239
     /tmp/ccixOztB.s:3866   .debug_str:00000000000010af .LASF240
     /tmp/ccixOztB.s:3406   .debug_str:0000000000000144 .LASF241
     /tmp/ccixOztB.s:3872   .debug_str:00000000000010cf .LASF242
     /tmp/ccixOztB.s:3656   .debug_str:000000000000098b .LASF243
     /tmp/ccixOztB.s:3456   .debug_str:00000000000002e1 .LASF244
     /tmp/ccixOztB.s:3684   .debug_str:0000000000000a85 .LASF245
     /tmp/ccixOztB.s:3624   .debug_str:0000000000000869 .LASF246
     /tmp/ccixOztB.s:3508   .debug_str:000000000000045d .LASF247
     /tmp/ccixOztB.s:3474   .debug_str:0000000000000348 .LASF248
     /tmp/ccixOztB.s:99     .text:0000000000000060 .LFB36
     /tmp/ccixOztB.s:263    .text:000000000000017c .LFE36
     /tmp/ccixOztB.s:3892   .debug_str:000000000000117c .LASF249
     /tmp/ccixOztB.s:3740   .debug_str:0000000000000c15 .LASF250
     /tmp/ccixOztB.s:3590   .debug_str:000000000000073c .LASF251
     /tmp/ccixOztB.s:3716   .debug_str:0000000000000b4d .LASF252
     /tmp/ccixOztB.s:3374   .debug_str:0000000000000045 .LASF253
     /tmp/ccixOztB.s:116    .text:000000000000007c .LBB14
     /tmp/ccixOztB.s:127    .text:0000000000000080 .LBE14
     /tmp/ccixOztB.s:178    .text:000000000000010c .LBB16
     /tmp/ccixOztB.s:190    .text:0000000000000114 .LBE16
     /tmp/ccixOztB.s:193    .text:0000000000000114 .LBB18
     /tmp/ccixOztB.s:205    .text:000000000000011c .LBE18
     /tmp/ccixOztB.s:3315   .debug_loc:0000000000000000 .LLST2
     /tmp/ccixOztB.s:240    .text:0000000000000158 .LBB20
     /tmp/ccixOztB.s:250    .text:0000000000000168 .LBE20
     /tmp/ccixOztB.s:138    .text:0000000000000094 .LVL7
     /tmp/ccixOztB.s:145    .text:00000000000000ac .LVL8
     /tmp/ccixOztB.s:150    .text:00000000000000b8 .LVL9
     /tmp/ccixOztB.s:157    .text:00000000000000d0 .LVL10
     /tmp/ccixOztB.s:164    .text:00000000000000e8 .LVL11
     /tmp/ccixOztB.s:171    .text:0000000000000100 .LVL12
     /tmp/ccixOztB.s:176    .text:000000000000010c .LVL13
     /tmp/ccixOztB.s:209    .text:0000000000000124 .LVL16
     /tmp/ccixOztB.s:229    .text:0000000000000144 .LVL17
     /tmp/ccixOztB.s:234    .text:0000000000000150 .LVL18
     /tmp/ccixOztB.s:238    .text:0000000000000158 .LVL19
     /tmp/ccixOztB.s:3778   .debug_str:0000000000000dfc .LASF254
     /tmp/ccixOztB.s:3828   .debug_str:0000000000000fdc .LASF255
     /tmp/ccixOztB.s:48     .text:0000000000000038 .LFB35
     /tmp/ccixOztB.s:93     .text:0000000000000060 .LFE35
     /tmp/ccixOztB.s:59     .text:0000000000000044 .LBB12
GAS LISTING /tmp/ccixOztB.s 			page 18


     /tmp/ccixOztB.s:72     .text:000000000000004c .LBE12
     /tmp/ccixOztB.s:3324   .debug_loc:0000000000000026 .LLST1
     /tmp/ccixOztB.s:3718   .debug_str:0000000000000b58 .LASF256
     /tmp/ccixOztB.s:3788   .debug_str:0000000000000e59 .LASF257
     /tmp/ccixOztB.s:10     .text:0000000000000000 .LFB34
     /tmp/ccixOztB.s:42     .text:0000000000000038 .LFE34
     /tmp/ccixOztB.s:3333   .debug_loc:000000000000004c .LLST0
     /tmp/ccixOztB.s:26     .text:0000000000000018 .LVL1
     /tmp/ccixOztB.s:31     .text:0000000000000028 .LVL2
     /tmp/ccixOztB.s:3702   .debug_str:0000000000000aea .LASF258
     /tmp/ccixOztB.s:3478   .debug_str:0000000000000373 .LASF259
     /tmp/ccixOztB.s:3642   .debug_str:0000000000000907 .LASF260
     /tmp/ccixOztB.s:3746   .debug_str:0000000000000c36 .LASF262
     /tmp/ccixOztB.s:3712   .debug_str:0000000000000b1e .LASF261
     /tmp/ccixOztB.s:3688   .debug_str:0000000000000a91 .LASF263
     /tmp/ccixOztB.s:3596   .debug_str:0000000000000771 .LASF264
     /tmp/ccixOztB.s:3662   .debug_str:00000000000009cb .LASF265
     /tmp/ccixOztB.s:192    .text:0000000000000114 .LVL14
     /tmp/ccixOztB.s:202    .text:000000000000011c .LVL15
     /tmp/ccixOztB.s:58     .text:0000000000000044 .LVL3
     /tmp/ccixOztB.s:69     .text:000000000000004c .LVL4
     /tmp/ccixOztB.s:14     .text:0000000000000000 .LVL0
     /tmp/ccixOztB.s:284    .debug_info:0000000000000000 .Ldebug_info0

UNDEFINED SYMBOLS
_Z8userMainv
_ZN4SemC6signalEv
_ZN5Riscv14contextHandlerEv
_Z13thread_createPP3TCBPFvPvES2_
_ZN3TCB7setMainEv
_Z8sem_openPP4SemCj
_ZN13KernelThreads17IOKernelThreadOutEPv
_ZN13KernelThreads16IOKernelThreadInEPv
_ZN3TCB10setRunningEPS_
_ZN5Riscv10popSppSpieEv
_ZN13KernelThreads5idleFEPv
_ZN4SemC4waitEv
_ZN13KernelConsole5flushEv
