GAS LISTING /tmp/ccULmWmu.s 			page 1


   1              		.file	"MemoryAllocator.cpp"
   2              		.option pic
   3              		.option norelax
   4              		.text
   5              	.Ltext0:
   6              		.align	2
   7              		.globl	_ZN15MemoryAllocatorC2Ev
   9              	_ZN15MemoryAllocatorC2Ev:
  10              	.LFB2:
  11              		.file 1 "src/MemoryAllocator.cpp"
   1:src/MemoryAllocator.cpp **** #include "../h/MemoryAllocator.hpp"
   2:src/MemoryAllocator.cpp **** MemoryAllocator &MemoryAllocator::getAllocatorInstance() {
   3:src/MemoryAllocator.cpp ****     static MemoryAllocator instance;
   4:src/MemoryAllocator.cpp ****     return instance;
   5:src/MemoryAllocator.cpp **** }
   6:src/MemoryAllocator.cpp **** MemoryAllocator::MemoryAllocator() {
  12              		.loc 1 6 1
  13              		.cfi_startproc
  14              	.LVL0:
  15 0000 130101FF 		addi	sp,sp,-16
  16              		.cfi_def_cfa_offset 16
  17 0004 23348100 		sd	s0,8(sp)
  18              		.cfi_offset 8, -8
  19 0008 13040101 		addi	s0,sp,16
  20              		.cfi_def_cfa 8, 0
  21              	.LBB2:
  22              		.loc 1 6 34 is_stmt 0
  23 000c 97070000 		la	a5,HEAP_START_ADDR
  23      83B70700 
  24 0014 83B70700 		ld	a5,0(a5)
  25 0018 2330F500 		sd	a5,0(a0)
   7:src/MemoryAllocator.cpp ****     head->blocksTaken=1;
  26              		.loc 1 7 5 is_stmt 1
  27              		.loc 1 7 22 is_stmt 0
  28 001c 13071000 		li	a4,1
  29 0020 23B0E700 		sd	a4,0(a5)
   8:src/MemoryAllocator.cpp ****     head->nextBlock= 0;
  30              		.loc 1 8 5 is_stmt 1
  31 0024 83370500 		ld	a5,0(a0)
  32              		.loc 1 8 20 is_stmt 0
  33 0028 23B40700 		sd	zero,8(a5)
  34              	.LBE2:
   9:src/MemoryAllocator.cpp **** }
  35              		.loc 1 9 1
  36 002c 03348100 		ld	s0,8(sp)
  37              		.cfi_restore 8
  38              		.cfi_def_cfa 2, 16
  39 0030 13010101 		addi	sp,sp,16
  40              		.cfi_def_cfa_offset 0
  41 0034 67800000 		jr	ra
  42              		.cfi_endproc
  43              	.LFE2:
  45              		.globl	_ZN15MemoryAllocatorC1Ev
  46              		.set	_ZN15MemoryAllocatorC1Ev,_ZN15MemoryAllocatorC2Ev
  47              		.align	2
  48              		.globl	_ZN15MemoryAllocator20getAllocatorInstanceEv
  50              	_ZN15MemoryAllocator20getAllocatorInstanceEv:
GAS LISTING /tmp/ccULmWmu.s 			page 2


  51              	.LFB0:
   2:src/MemoryAllocator.cpp ****     static MemoryAllocator instance;
  52              		.loc 1 2 58 is_stmt 1
  53              		.cfi_startproc
   3:src/MemoryAllocator.cpp ****     return instance;
  54              		.loc 1 3 5
   3:src/MemoryAllocator.cpp ****     return instance;
  55              		.loc 1 3 28 is_stmt 0
  56 0038 97070000 		lbu	a5,.LANCHOR0
  56      83C70700 
  57 0040 63880700 		beqz	a5,.L9
   4:src/MemoryAllocator.cpp **** }
  58              		.loc 1 4 5 is_stmt 1
   5:src/MemoryAllocator.cpp **** MemoryAllocator::MemoryAllocator() {
  59              		.loc 1 5 1 is_stmt 0
  60 0044 17050000 		lla	a0,.LANCHOR0+8
  60      13050500 
  61 004c 67800000 		ret
  62              	.L9:
   2:src/MemoryAllocator.cpp ****     static MemoryAllocator instance;
  63              		.loc 1 2 58 discriminator 1
  64 0050 130101FF 		addi	sp,sp,-16
  65              		.cfi_def_cfa_offset 16
  66 0054 23341100 		sd	ra,8(sp)
  67 0058 23308100 		sd	s0,0(sp)
  68              		.cfi_offset 1, -8
  69              		.cfi_offset 8, -16
  70 005c 13040101 		addi	s0,sp,16
  71              		.cfi_def_cfa 8, 0
   3:src/MemoryAllocator.cpp ****     return instance;
  72              		.loc 1 3 28 discriminator 1
  73 0060 17050000 		lla	a0,.LANCHOR0+8
  73      13050500 
  74 0068 97000000 		call	_ZN15MemoryAllocatorC1Ev
  74      E7800000 
  75              	.LVL1:
  76 0070 93071000 		li	a5,1
  77 0074 17070000 		sb	a5,.LANCHOR0,a4
  77      2300F700 
   4:src/MemoryAllocator.cpp **** }
  78              		.loc 1 4 5 is_stmt 1 discriminator 1
   5:src/MemoryAllocator.cpp **** MemoryAllocator::MemoryAllocator() {
  79              		.loc 1 5 1 is_stmt 0 discriminator 1
  80 007c 17050000 		lla	a0,.LANCHOR0+8
  80      13050500 
  81 0084 83308100 		ld	ra,8(sp)
  82              		.cfi_restore 1
  83 0088 03340100 		ld	s0,0(sp)
  84              		.cfi_restore 8
  85              		.cfi_def_cfa 2, 16
  86 008c 13010101 		addi	sp,sp,16
  87              		.cfi_def_cfa_offset 0
  88 0090 67800000 		jr	ra
  89              		.cfi_endproc
  90              	.LFE0:
  92              		.align	2
  93              		.globl	_ZN15MemoryAllocator8allocateEi
GAS LISTING /tmp/ccULmWmu.s 			page 3


  95              	_ZN15MemoryAllocator8allocateEi:
  96              	.LFB4:
  10:src/MemoryAllocator.cpp **** 
  11:src/MemoryAllocator.cpp **** void *MemoryAllocator::allocate(int blocks) {
  97              		.loc 1 11 45 is_stmt 1
  98              		.cfi_startproc
  99              	.LVL2:
 100 0094 130101FF 		addi	sp,sp,-16
 101              		.cfi_def_cfa_offset 16
 102 0098 23348100 		sd	s0,8(sp)
 103              		.cfi_offset 8, -8
 104 009c 13040101 		addi	s0,sp,16
 105              		.cfi_def_cfa 8, 0
  12:src/MemoryAllocator.cpp ****     BlockDescriptor *elem=head;
 106              		.loc 1 12 5
 107              		.loc 1 12 22 is_stmt 0
 108 00a0 03370500 		ld	a4,0(a0)
 109              	.LVL3:
 110              	.L14:
  13:src/MemoryAllocator.cpp ****     while(elem->nextBlock){
 111              		.loc 1 13 5 is_stmt 1
 112              		.loc 1 13 17
 113 00a4 83368700 		ld	a3,8(a4)
 114 00a8 63820604 		beqz	a3,.L11
 115              	.LBB3:
  14:src/MemoryAllocator.cpp ****         int freeblocks=(elem->nextBlock-((uint64)elem+elem->blocksTaken*MEM_BLOCK_SIZE))/MEM_BLOCK_
 116              		.loc 1 14 9
 117              		.loc 1 14 61 is_stmt 0
 118 00ac 03350700 		ld	a0,0(a4)
 119              		.loc 1 14 72
 120 00b0 13156500 		slli	a0,a0,6
 121              		.loc 1 14 54
 122 00b4 3305A700 		add	a0,a4,a0
 123              		.loc 1 14 40
 124 00b8 B387A640 		sub	a5,a3,a0
 125              		.loc 1 14 89
 126 00bc 93D76700 		srli	a5,a5,6
 127              		.loc 1 14 13
 128 00c0 9B870700 		sext.w	a5,a5
 129              	.LVL4:
  15:src/MemoryAllocator.cpp ****         if(freeblocks>=blocks){
 130              		.loc 1 15 9 is_stmt 1
 131              	.LBB4:
 132 00c4 63D6B700 		bge	a5,a1,.L17
 133              	.LBE4:
  16:src/MemoryAllocator.cpp ****             BlockDescriptor* nelem=(BlockDescriptor*)((uint64)elem+elem->blocksTaken*MEM_BLOCK_SIZE
  17:src/MemoryAllocator.cpp ****             nelem->nextBlock=elem->nextBlock;
  18:src/MemoryAllocator.cpp ****             nelem->blocksTaken=blocks;
  19:src/MemoryAllocator.cpp ****             elem->nextBlock=(uint64)nelem;
  20:src/MemoryAllocator.cpp ****             return nelem+1;
  21:src/MemoryAllocator.cpp ****         }
  22:src/MemoryAllocator.cpp ****         elem=(BlockDescriptor*)elem->nextBlock;
 134              		.loc 1 22 9
 135              		.loc 1 22 13 is_stmt 0
 136 00c8 13870600 		mv	a4,a3
 137              	.LVL5:
 138              	.LBE3:
GAS LISTING /tmp/ccULmWmu.s 			page 4


  13:src/MemoryAllocator.cpp ****         int freeblocks=(elem->nextBlock-((uint64)elem+elem->blocksTaken*MEM_BLOCK_SIZE))/MEM_BLOCK_
 139              		.loc 1 13 5
 140 00cc 6FF09FFD 		j	.L14
 141              	.LVL6:
 142              	.L17:
 143              	.LBB7:
 144              	.LBB6:
 145              	.LBB5:
  16:src/MemoryAllocator.cpp ****             BlockDescriptor* nelem=(BlockDescriptor*)((uint64)elem+elem->blocksTaken*MEM_BLOCK_SIZE
 146              		.loc 1 16 13 is_stmt 1
  17:src/MemoryAllocator.cpp ****             nelem->blocksTaken=blocks;
 147              		.loc 1 17 13
  17:src/MemoryAllocator.cpp ****             nelem->blocksTaken=blocks;
 148              		.loc 1 17 29 is_stmt 0
 149 00d0 2334D500 		sd	a3,8(a0)
  18:src/MemoryAllocator.cpp ****             elem->nextBlock=(uint64)nelem;
 150              		.loc 1 18 13 is_stmt 1
  18:src/MemoryAllocator.cpp ****             elem->nextBlock=(uint64)nelem;
 151              		.loc 1 18 31 is_stmt 0
 152 00d4 2330B500 		sd	a1,0(a0)
  19:src/MemoryAllocator.cpp ****             return nelem+1;
 153              		.loc 1 19 13 is_stmt 1
  19:src/MemoryAllocator.cpp ****             return nelem+1;
 154              		.loc 1 19 28 is_stmt 0
 155 00d8 2334A700 		sd	a0,8(a4)
  20:src/MemoryAllocator.cpp ****         }
 156              		.loc 1 20 13 is_stmt 1
  20:src/MemoryAllocator.cpp ****         }
 157              		.loc 1 20 26 is_stmt 0
 158 00dc 13050501 		addi	a0,a0,16
 159              	.LVL7:
 160              	.L10:
 161              	.LBE5:
 162              	.LBE6:
 163              	.LBE7:
  23:src/MemoryAllocator.cpp ****     }
  24:src/MemoryAllocator.cpp ****     if(((uint64)HEAP_END_ADDR-((uint64)elem+elem->blocksTaken*MEM_BLOCK_SIZE))/MEM_BLOCK_SIZE>=(uin
  25:src/MemoryAllocator.cpp ****         BlockDescriptor* nelem=(BlockDescriptor*)((uint64)elem+elem->blocksTaken*MEM_BLOCK_SIZE);
  26:src/MemoryAllocator.cpp ****         nelem->nextBlock=0;
  27:src/MemoryAllocator.cpp ****         nelem->blocksTaken=blocks;
  28:src/MemoryAllocator.cpp ****         elem->nextBlock=(uint64)nelem;
  29:src/MemoryAllocator.cpp ****         return nelem+1;
  30:src/MemoryAllocator.cpp ****     }
  31:src/MemoryAllocator.cpp ****     return nullptr;
  32:src/MemoryAllocator.cpp **** }
 164              		.loc 1 32 1
 165 00e0 03348100 		ld	s0,8(sp)
 166              		.cfi_remember_state
 167              		.cfi_restore 8
 168              		.cfi_def_cfa 2, 16
 169 00e4 13010101 		addi	sp,sp,16
 170              		.cfi_def_cfa_offset 0
 171 00e8 67800000 		jr	ra
 172              	.L11:
 173              		.cfi_restore_state
  24:src/MemoryAllocator.cpp ****         BlockDescriptor* nelem=(BlockDescriptor*)((uint64)elem+elem->blocksTaken*MEM_BLOCK_SIZE);
 174              		.loc 1 24 5 is_stmt 1
GAS LISTING /tmp/ccULmWmu.s 			page 5


 175              	.LBB8:
  24:src/MemoryAllocator.cpp ****         BlockDescriptor* nelem=(BlockDescriptor*)((uint64)elem+elem->blocksTaken*MEM_BLOCK_SIZE);
 176              		.loc 1 24 51 is_stmt 0
 177 00ec 03350700 		ld	a0,0(a4)
  24:src/MemoryAllocator.cpp ****         BlockDescriptor* nelem=(BlockDescriptor*)((uint64)elem+elem->blocksTaken*MEM_BLOCK_SIZE);
 178              		.loc 1 24 62
 179 00f0 13156500 		slli	a0,a0,6
  24:src/MemoryAllocator.cpp ****         BlockDescriptor* nelem=(BlockDescriptor*)((uint64)elem+elem->blocksTaken*MEM_BLOCK_SIZE);
 180              		.loc 1 24 44
 181 00f4 3305A700 		add	a0,a4,a0
  24:src/MemoryAllocator.cpp ****         BlockDescriptor* nelem=(BlockDescriptor*)((uint64)elem+elem->blocksTaken*MEM_BLOCK_SIZE);
 182              		.loc 1 24 30
 183 00f8 97070000 		la	a5,HEAP_END_ADDR
 183      83B70700 
 184 0100 83B70700 		ld	a5,0(a5)
 185 0104 B387A740 		sub	a5,a5,a0
  24:src/MemoryAllocator.cpp ****         BlockDescriptor* nelem=(BlockDescriptor*)((uint64)elem+elem->blocksTaken*MEM_BLOCK_SIZE);
 186              		.loc 1 24 79
 187 0108 93D76700 		srli	a5,a5,6
  24:src/MemoryAllocator.cpp ****         BlockDescriptor* nelem=(BlockDescriptor*)((uint64)elem+elem->blocksTaken*MEM_BLOCK_SIZE);
 188              		.loc 1 24 5
 189 010c 63ECB700 		bltu	a5,a1,.L15
 190              	.LBB9:
  25:src/MemoryAllocator.cpp ****         nelem->nextBlock=0;
 191              		.loc 1 25 9 is_stmt 1
 192              	.LVL8:
  26:src/MemoryAllocator.cpp ****         nelem->blocksTaken=blocks;
 193              		.loc 1 26 9
  26:src/MemoryAllocator.cpp ****         nelem->blocksTaken=blocks;
 194              		.loc 1 26 25 is_stmt 0
 195 0110 23340500 		sd	zero,8(a0)
  27:src/MemoryAllocator.cpp ****         elem->nextBlock=(uint64)nelem;
 196              		.loc 1 27 9 is_stmt 1
  27:src/MemoryAllocator.cpp ****         elem->nextBlock=(uint64)nelem;
 197              		.loc 1 27 27 is_stmt 0
 198 0114 2330B500 		sd	a1,0(a0)
  28:src/MemoryAllocator.cpp ****         return nelem+1;
 199              		.loc 1 28 9 is_stmt 1
  28:src/MemoryAllocator.cpp ****         return nelem+1;
 200              		.loc 1 28 24 is_stmt 0
 201 0118 2334A700 		sd	a0,8(a4)
  29:src/MemoryAllocator.cpp ****     }
 202              		.loc 1 29 9 is_stmt 1
  29:src/MemoryAllocator.cpp ****     }
 203              		.loc 1 29 22 is_stmt 0
 204 011c 13050501 		addi	a0,a0,16
 205              	.LVL9:
 206 0120 6FF01FFC 		j	.L10
 207              	.LVL10:
 208              	.L15:
 209              	.LBE9:
 210              	.LBE8:
  31:src/MemoryAllocator.cpp **** }
 211              		.loc 1 31 12
 212 0124 13050000 		li	a0,0
 213 0128 6FF09FFB 		j	.L10
 214              		.cfi_endproc
GAS LISTING /tmp/ccULmWmu.s 			page 6


 215              	.LFE4:
 217              		.align	2
 218              		.globl	_ZN15MemoryAllocator10deallocateEPv
 220              	_ZN15MemoryAllocator10deallocateEPv:
 221              	.LFB5:
  33:src/MemoryAllocator.cpp **** 
  34:src/MemoryAllocator.cpp **** int MemoryAllocator::deallocate(void *addr) {
 222              		.loc 1 34 45 is_stmt 1
 223              		.cfi_startproc
 224              	.LVL11:
 225 012c 130101FF 		addi	sp,sp,-16
 226              		.cfi_def_cfa_offset 16
 227 0130 23348100 		sd	s0,8(sp)
 228              		.cfi_offset 8, -8
 229 0134 13040101 		addi	s0,sp,16
 230              		.cfi_def_cfa 8, 0
  35:src/MemoryAllocator.cpp ****     BlockDescriptor* prev=head;
 231              		.loc 1 35 5
 232              		.loc 1 35 22 is_stmt 0
 233 0138 83360500 		ld	a3,0(a0)
 234              	.LVL12:
  36:src/MemoryAllocator.cpp ****     BlockDescriptor* curr=(BlockDescriptor*)head->nextBlock;
 235              		.loc 1 36 5 is_stmt 1
 236              		.loc 1 36 51 is_stmt 0
 237 013c 83B78600 		ld	a5,8(a3)
 238              	.LVL13:
 239              	.L21:
  37:src/MemoryAllocator.cpp ****     while(curr){
 240              		.loc 1 37 5 is_stmt 1
 241              		.loc 1 37 11
 242 0140 63840702 		beqz	a5,.L22
  38:src/MemoryAllocator.cpp ****         if(curr+1==addr){
 243              		.loc 1 38 9
 244              		.loc 1 38 16 is_stmt 0
 245 0144 13870701 		addi	a4,a5,16
 246              		.loc 1 38 9
 247 0148 6308B700 		beq	a4,a1,.L24
  39:src/MemoryAllocator.cpp ****             prev->nextBlock=curr->nextBlock;
  40:src/MemoryAllocator.cpp ****             return 0;
  41:src/MemoryAllocator.cpp ****         }
  42:src/MemoryAllocator.cpp ****         prev=curr;
 248              		.loc 1 42 9 is_stmt 1
 249              	.LVL14:
  43:src/MemoryAllocator.cpp ****         curr=(BlockDescriptor*)curr->nextBlock;
 250              		.loc 1 43 9
  42:src/MemoryAllocator.cpp ****         curr=(BlockDescriptor*)curr->nextBlock;
 251              		.loc 1 42 13 is_stmt 0
 252 014c 93860700 		mv	a3,a5
 253              		.loc 1 43 13
 254 0150 83B78700 		ld	a5,8(a5)
 255              	.LVL15:
  37:src/MemoryAllocator.cpp ****         if(curr+1==addr){
 256              		.loc 1 37 5
 257 0154 6FF0DFFE 		j	.L21
 258              	.L24:
  39:src/MemoryAllocator.cpp ****             return 0;
 259              		.loc 1 39 13 is_stmt 1
GAS LISTING /tmp/ccULmWmu.s 			page 7


  39:src/MemoryAllocator.cpp ****             return 0;
 260              		.loc 1 39 35 is_stmt 0
 261 0158 83B78700 		ld	a5,8(a5)
 262              	.LVL16:
  39:src/MemoryAllocator.cpp ****             return 0;
 263              		.loc 1 39 28
 264 015c 23B4F600 		sd	a5,8(a3)
  40:src/MemoryAllocator.cpp ****         }
 265              		.loc 1 40 13 is_stmt 1
  40:src/MemoryAllocator.cpp ****         }
 266              		.loc 1 40 20 is_stmt 0
 267 0160 13050000 		li	a0,0
 268              	.LVL17:
 269 0164 6F008000 		j	.L19
 270              	.LVL18:
 271              	.L22:
  44:src/MemoryAllocator.cpp ****     }
  45:src/MemoryAllocator.cpp ****     return -1;
 272              		.loc 1 45 13
 273 0168 1305F0FF 		li	a0,-1
 274              	.LVL19:
 275              	.L19:
  46:src/MemoryAllocator.cpp **** }
 276              		.loc 1 46 1
 277 016c 03348100 		ld	s0,8(sp)
 278              		.cfi_restore 8
 279              		.cfi_def_cfa 2, 16
 280 0170 13010101 		addi	sp,sp,16
 281              		.cfi_def_cfa_offset 0
 282 0174 67800000 		jr	ra
 283              		.cfi_endproc
 284              	.LFE5:
 286              		.align	2
 287              		.globl	_ZN15MemoryAllocator4copyEPvS0_m
 289              	_ZN15MemoryAllocator4copyEPvS0_m:
 290              	.LFB7:
  47:src/MemoryAllocator.cpp **** 
  48:src/MemoryAllocator.cpp **** void *MemoryAllocator::reallocate(int blocks, void* addr) {
  49:src/MemoryAllocator.cpp ****     BlockDescriptor* curr=((BlockDescriptor*)addr)-1;
  50:src/MemoryAllocator.cpp ****     int freeblocks;
  51:src/MemoryAllocator.cpp ****     if(curr->nextBlock){
  52:src/MemoryAllocator.cpp ****         freeblocks=(curr->nextBlock-((uint64)curr+curr->blocksTaken*MEM_BLOCK_SIZE))/MEM_BLOCK_SIZE
  53:src/MemoryAllocator.cpp ****     }
  54:src/MemoryAllocator.cpp ****     else{
  55:src/MemoryAllocator.cpp ****         freeblocks=((uint64)(HEAP_END_ADDR)-((uint64)curr+curr->blocksTaken*MEM_BLOCK_SIZE))/MEM_BL
  56:src/MemoryAllocator.cpp ****     }
  57:src/MemoryAllocator.cpp ****     if(freeblocks>=blocks){
  58:src/MemoryAllocator.cpp ****         curr->blocksTaken+=blocks;
  59:src/MemoryAllocator.cpp ****         return curr+1;
  60:src/MemoryAllocator.cpp ****     }
  61:src/MemoryAllocator.cpp ****     else{
  62:src/MemoryAllocator.cpp ****         void* newAddr=allocate(curr->blocksTaken+blocks);
  63:src/MemoryAllocator.cpp ****         if(!newAddr){
  64:src/MemoryAllocator.cpp ****             return nullptr;
  65:src/MemoryAllocator.cpp ****         }
  66:src/MemoryAllocator.cpp ****         copy(newAddr,addr,curr->blocksTaken);
  67:src/MemoryAllocator.cpp ****         deallocate(addr);
GAS LISTING /tmp/ccULmWmu.s 			page 8


  68:src/MemoryAllocator.cpp ****         return newAddr;
  69:src/MemoryAllocator.cpp ****     }
  70:src/MemoryAllocator.cpp **** }
  71:src/MemoryAllocator.cpp **** 
  72:src/MemoryAllocator.cpp **** void MemoryAllocator::copy(void *d, void *s, uint64 cnt) {
 291              		.loc 1 72 58 is_stmt 1
 292              		.cfi_startproc
 293              	.LVL20:
 294 0178 130101FF 		addi	sp,sp,-16
 295              		.cfi_def_cfa_offset 16
 296 017c 23348100 		sd	s0,8(sp)
 297              		.cfi_offset 8, -8
 298 0180 13040101 		addi	s0,sp,16
 299              		.cfi_def_cfa 8, 0
  73:src/MemoryAllocator.cpp ****     uint64* dst=(uint64*)d;
 300              		.loc 1 73 5
 301              	.LVL21:
  74:src/MemoryAllocator.cpp ****     uint64* src=(uint64*)s;
 302              		.loc 1 74 5
  75:src/MemoryAllocator.cpp ****     for(uint64 i=0;i<cnt*MEM_BLOCK_SIZE;i++){
 303              		.loc 1 75 5
 304              	.LBB10:
 305              		.loc 1 75 16 is_stmt 0
 306 0184 93070000 		li	a5,0
 307              	.LVL22:
 308              	.L27:
 309              		.loc 1 75 21 is_stmt 1 discriminator 3
 310              		.loc 1 75 25 is_stmt 0 discriminator 3
 311 0188 13976600 		slli	a4,a3,6
 312              		.loc 1 75 21 discriminator 3
 313 018c 63FEE700 		bleu	a4,a5,.L25
  76:src/MemoryAllocator.cpp ****         *dst=*src;
 314              		.loc 1 76 9 is_stmt 1 discriminator 2
 315              		.loc 1 76 14 is_stmt 0 discriminator 2
 316 0190 03370600 		ld	a4,0(a2)
 317              		.loc 1 76 13 discriminator 2
 318 0194 23B0E500 		sd	a4,0(a1)
  77:src/MemoryAllocator.cpp ****         dst++;
 319              		.loc 1 77 9 is_stmt 1 discriminator 2
 320              		.loc 1 77 12 is_stmt 0 discriminator 2
 321 0198 93858500 		addi	a1,a1,8
 322              	.LVL23:
  78:src/MemoryAllocator.cpp ****         src++;
 323              		.loc 1 78 9 is_stmt 1 discriminator 2
 324              		.loc 1 78 12 is_stmt 0 discriminator 2
 325 019c 13068600 		addi	a2,a2,8
 326              	.LVL24:
  75:src/MemoryAllocator.cpp ****         *dst=*src;
 327              		.loc 1 75 5 is_stmt 1 discriminator 2
 328 01a0 93871700 		addi	a5,a5,1
 329              	.LVL25:
 330 01a4 6FF05FFE 		j	.L27
 331              	.L25:
 332              	.LBE10:
  79:src/MemoryAllocator.cpp ****     }
  80:src/MemoryAllocator.cpp **** }...
 333              		.loc 1 80 1 is_stmt 0
GAS LISTING /tmp/ccULmWmu.s 			page 9


 334 01a8 03348100 		ld	s0,8(sp)
 335              		.cfi_restore 8
 336              		.cfi_def_cfa 2, 16
 337 01ac 13010101 		addi	sp,sp,16
 338              		.cfi_def_cfa_offset 0
 339 01b0 67800000 		jr	ra
 340              		.cfi_endproc
 341              	.LFE7:
 343              		.align	2
 344              		.globl	_ZN15MemoryAllocator10reallocateEiPv
 346              	_ZN15MemoryAllocator10reallocateEiPv:
 347              	.LFB6:
  48:src/MemoryAllocator.cpp **** void *MemoryAllocator::reallocate(int blocks, void* addr) {
 348              		.loc 1 48 59 is_stmt 1
 349              		.cfi_startproc
 350              	.LVL26:
 351 01b4 130101FD 		addi	sp,sp,-48
 352              		.cfi_def_cfa_offset 48
 353 01b8 23341102 		sd	ra,40(sp)
 354 01bc 23308102 		sd	s0,32(sp)
 355 01c0 233C9100 		sd	s1,24(sp)
 356 01c4 23382101 		sd	s2,16(sp)
 357 01c8 23343101 		sd	s3,8(sp)
 358              		.cfi_offset 1, -8
 359              		.cfi_offset 8, -16
 360              		.cfi_offset 9, -24
 361              		.cfi_offset 18, -32
 362              		.cfi_offset 19, -40
 363 01cc 13040103 		addi	s0,sp,48
 364              		.cfi_def_cfa 8, 0
 365 01d0 13090500 		mv	s2,a0
 366 01d4 93040600 		mv	s1,a2
  49:src/MemoryAllocator.cpp ****     BlockDescriptor* curr=((BlockDescriptor*)addr)-1;
 367              		.loc 1 49 5
  49:src/MemoryAllocator.cpp ****     BlockDescriptor* curr=((BlockDescriptor*)addr)-1;
 368              		.loc 1 49 22 is_stmt 0
 369 01d8 130706FF 		addi	a4,a2,-16
 370              	.LVL27:
  50:src/MemoryAllocator.cpp ****     int freeblocks;
 371              		.loc 1 50 5 is_stmt 1
  51:src/MemoryAllocator.cpp ****     if(curr->nextBlock){
 372              		.loc 1 51 5
  51:src/MemoryAllocator.cpp ****     if(curr->nextBlock){
 373              		.loc 1 51 14 is_stmt 0
 374 01dc 833786FF 		ld	a5,-8(a2)
  51:src/MemoryAllocator.cpp ****     if(curr->nextBlock){
 375              		.loc 1 51 5
 376 01e0 63880704 		beqz	a5,.L30
  52:src/MemoryAllocator.cpp ****         freeblocks=(curr->nextBlock-((uint64)curr+curr->blocksTaken*MEM_BLOCK_SIZE))/MEM_BLOCK_SIZE
 377              		.loc 1 52 9 is_stmt 1
  52:src/MemoryAllocator.cpp ****         freeblocks=(curr->nextBlock-((uint64)curr+curr->blocksTaken*MEM_BLOCK_SIZE))/MEM_BLOCK_SIZE
 378              		.loc 1 52 57 is_stmt 0
 379 01e4 833606FF 		ld	a3,-16(a2)
  52:src/MemoryAllocator.cpp ****         freeblocks=(curr->nextBlock-((uint64)curr+curr->blocksTaken*MEM_BLOCK_SIZE))/MEM_BLOCK_SIZE
 380              		.loc 1 52 68
 381 01e8 93966600 		slli	a3,a3,6
  52:src/MemoryAllocator.cpp ****         freeblocks=(curr->nextBlock-((uint64)curr+curr->blocksTaken*MEM_BLOCK_SIZE))/MEM_BLOCK_SIZE
GAS LISTING /tmp/ccULmWmu.s 			page 10


 382              		.loc 1 52 50
 383 01ec 3307D700 		add	a4,a4,a3
 384              	.LVL28:
  52:src/MemoryAllocator.cpp ****         freeblocks=(curr->nextBlock-((uint64)curr+curr->blocksTaken*MEM_BLOCK_SIZE))/MEM_BLOCK_SIZE
 385              		.loc 1 52 36
 386 01f0 B387E740 		sub	a5,a5,a4
  52:src/MemoryAllocator.cpp ****         freeblocks=(curr->nextBlock-((uint64)curr+curr->blocksTaken*MEM_BLOCK_SIZE))/MEM_BLOCK_SIZE
 387              		.loc 1 52 85
 388 01f4 93D76700 		srli	a5,a5,6
  52:src/MemoryAllocator.cpp ****         freeblocks=(curr->nextBlock-((uint64)curr+curr->blocksTaken*MEM_BLOCK_SIZE))/MEM_BLOCK_SIZE
 389              		.loc 1 52 19
 390 01f8 9B870700 		sext.w	a5,a5
 391              	.LVL29:
 392              	.L31:
  57:src/MemoryAllocator.cpp ****     if(freeblocks>=blocks){
 393              		.loc 1 57 5 is_stmt 1
 394              	.LBB11:
 395 01fc 63CEB704 		blt	a5,a1,.L32
  58:src/MemoryAllocator.cpp ****         curr->blocksTaken+=blocks;
 396              		.loc 1 58 9
  58:src/MemoryAllocator.cpp ****         curr->blocksTaken+=blocks;
 397              		.loc 1 58 26 is_stmt 0
 398 0200 83B704FF 		ld	a5,-16(s1)
 399              	.LVL30:
 400 0204 B385B700 		add	a1,a5,a1
 401              	.LVL31:
 402 0208 23B8B4FE 		sd	a1,-16(s1)
  59:src/MemoryAllocator.cpp ****         return curr+1;
 403              		.loc 1 59 9 is_stmt 1
  59:src/MemoryAllocator.cpp ****         return curr+1;
 404              		.loc 1 59 21 is_stmt 0
 405 020c 93890400 		mv	s3,s1
 406              	.LVL32:
 407              	.L29:
 408              	.LBE11:
  70:src/MemoryAllocator.cpp **** }
 409              		.loc 1 70 1
 410 0210 13850900 		mv	a0,s3
 411 0214 83308102 		ld	ra,40(sp)
 412              		.cfi_remember_state
 413              		.cfi_restore 1
 414 0218 03340102 		ld	s0,32(sp)
 415              		.cfi_restore 8
 416              		.cfi_def_cfa 2, 48
 417 021c 83348101 		ld	s1,24(sp)
 418              		.cfi_restore 9
 419              	.LVL33:
 420 0220 03390101 		ld	s2,16(sp)
 421              		.cfi_restore 18
 422              	.LVL34:
 423 0224 83398100 		ld	s3,8(sp)
 424              		.cfi_restore 19
 425 0228 13010103 		addi	sp,sp,48
 426              		.cfi_def_cfa_offset 0
 427 022c 67800000 		jr	ra
 428              	.LVL35:
 429              	.L30:
GAS LISTING /tmp/ccULmWmu.s 			page 11


 430              		.cfi_restore_state
  55:src/MemoryAllocator.cpp ****         freeblocks=((uint64)(HEAP_END_ADDR)-((uint64)curr+curr->blocksTaken*MEM_BLOCK_SIZE))/MEM_BL
 431              		.loc 1 55 9 is_stmt 1
  55:src/MemoryAllocator.cpp ****         freeblocks=((uint64)(HEAP_END_ADDR)-((uint64)curr+curr->blocksTaken*MEM_BLOCK_SIZE))/MEM_BL
 432              		.loc 1 55 65 is_stmt 0
 433 0230 833706FF 		ld	a5,-16(a2)
  55:src/MemoryAllocator.cpp ****         freeblocks=((uint64)(HEAP_END_ADDR)-((uint64)curr+curr->blocksTaken*MEM_BLOCK_SIZE))/MEM_BL
 434              		.loc 1 55 76
 435 0234 93976700 		slli	a5,a5,6
  55:src/MemoryAllocator.cpp ****         freeblocks=((uint64)(HEAP_END_ADDR)-((uint64)curr+curr->blocksTaken*MEM_BLOCK_SIZE))/MEM_BL
 436              		.loc 1 55 58
 437 0238 3307F700 		add	a4,a4,a5
 438              	.LVL36:
  55:src/MemoryAllocator.cpp ****         freeblocks=((uint64)(HEAP_END_ADDR)-((uint64)curr+curr->blocksTaken*MEM_BLOCK_SIZE))/MEM_BL
 439              		.loc 1 55 44
 440 023c 97070000 		la	a5,HEAP_END_ADDR
 440      83B70700 
 441 0244 83B70700 		ld	a5,0(a5)
 442 0248 B387E740 		sub	a5,a5,a4
  55:src/MemoryAllocator.cpp ****         freeblocks=((uint64)(HEAP_END_ADDR)-((uint64)curr+curr->blocksTaken*MEM_BLOCK_SIZE))/MEM_BL
 443              		.loc 1 55 93
 444 024c 93D76700 		srli	a5,a5,6
  55:src/MemoryAllocator.cpp ****         freeblocks=((uint64)(HEAP_END_ADDR)-((uint64)curr+curr->blocksTaken*MEM_BLOCK_SIZE))/MEM_BL
 445              		.loc 1 55 19
 446 0250 9B870700 		sext.w	a5,a5
 447              	.LVL37:
 448 0254 6FF09FFA 		j	.L31
 449              	.L32:
 450              	.LBB13:
 451              	.LBB12:
  62:src/MemoryAllocator.cpp ****         void* newAddr=allocate(curr->blocksTaken+blocks);
 452              		.loc 1 62 9 is_stmt 1
  62:src/MemoryAllocator.cpp ****         void* newAddr=allocate(curr->blocksTaken+blocks);
 453              		.loc 1 62 38 is_stmt 0
 454 0258 83B704FF 		ld	a5,-16(s1)
 455              	.LVL38:
  62:src/MemoryAllocator.cpp ****         void* newAddr=allocate(curr->blocksTaken+blocks);
 456              		.loc 1 62 31
 457 025c BB85B700 		addw	a1,a5,a1
 458              	.LVL39:
 459 0260 13050900 		mv	a0,s2
 460              	.LVL40:
 461 0264 97000000 		call	_ZN15MemoryAllocator8allocateEi
 461      E7800000 
 462              	.LVL41:
 463 026c 93090500 		mv	s3,a0
 464              	.LVL42:
  63:src/MemoryAllocator.cpp ****         if(!newAddr){
 465              		.loc 1 63 9 is_stmt 1
 466 0270 E30005FA 		beqz	a0,.L29
  66:src/MemoryAllocator.cpp ****         copy(newAddr,addr,curr->blocksTaken);
 467              		.loc 1 66 9
  66:src/MemoryAllocator.cpp ****         copy(newAddr,addr,curr->blocksTaken);
 468              		.loc 1 66 13 is_stmt 0
 469 0274 83B604FF 		ld	a3,-16(s1)
 470 0278 13860400 		mv	a2,s1
 471 027c 93050500 		mv	a1,a0
GAS LISTING /tmp/ccULmWmu.s 			page 12


 472 0280 13050900 		mv	a0,s2
 473              	.LVL43:
 474 0284 97000000 		call	_ZN15MemoryAllocator4copyEPvS0_m
 474      E7800000 
 475              	.LVL44:
  67:src/MemoryAllocator.cpp ****         deallocate(addr);
 476              		.loc 1 67 9 is_stmt 1
  67:src/MemoryAllocator.cpp ****         deallocate(addr);
 477              		.loc 1 67 19 is_stmt 0
 478 028c 93850400 		mv	a1,s1
 479 0290 13050900 		mv	a0,s2
 480 0294 97000000 		call	_ZN15MemoryAllocator10deallocateEPv
 480      E7800000 
 481              	.LVL45:
  68:src/MemoryAllocator.cpp ****         return newAddr;
 482              		.loc 1 68 9 is_stmt 1
  68:src/MemoryAllocator.cpp ****         return newAddr;
 483              		.loc 1 68 16 is_stmt 0
 484 029c 6FF05FF7 		j	.L29
 485              	.LBE12:
 486              	.LBE13:
 487              		.cfi_endproc
 488              	.LFE6:
 490              		.bss
 491              		.align	3
 492              		.set	.LANCHOR0,. + 0
 495              	_ZGVZN15MemoryAllocator20getAllocatorInstanceEvE8instance:
 496 0000 00000000 		.zero	8
 496      00000000 
 499              	_ZZN15MemoryAllocator20getAllocatorInstanceEvE8instance:
 500 0008 00000000 		.zero	8
 500      00000000 
 501              		.text
 502              	.Letext0:
 503              		.file 2 "src/../h/../lib/hw.h"
 504              		.file 3 "src/../h/MemoryAllocator.hpp"
GAS LISTING /tmp/ccULmWmu.s 			page 13

