GAS LISTING /tmp/ccjsL3AI.s 			page 1


   1              		.file	"Riscv.cpp"
   2              		.option pic
   3              		.option norelax
   4              		.text
   5              	.Ltext0:
   6              		.align	2
   7              		.globl	_ZN5Riscv10popSppSpieEv
   9              	_ZN5Riscv10popSppSpieEv:
  10              	.LFB32:
  11              		.file 1 "src/Riscv.cpp"
   1:src/Riscv.cpp **** #include "../h/Riscv.hpp"
   2:src/Riscv.cpp **** #include "../h/MemoryAllocator.hpp"
   3:src/Riscv.cpp **** #include "../h/TCB.hpp"
   4:src/Riscv.cpp **** #include "../h/SemC.hpp"
   5:src/Riscv.cpp **** #include "../h/KernelConsole.hpp"
   6:src/Riscv.cpp **** void Riscv::popSppSpie()
   7:src/Riscv.cpp **** {
  12              		.loc 1 7 1
  13              		.cfi_startproc
  14 0000 130101FF 		addi	sp,sp,-16
  15              		.cfi_def_cfa_offset 16
  16 0004 23348100 		sd	s0,8(sp)
  17              		.cfi_offset 8, -8
  18 0008 13040101 		addi	s0,sp,16
  19              		.cfi_def_cfa 8, 0
   8:src/Riscv.cpp ****     __asm__ volatile("csrw sepc, ra");
  20              		.loc 1 8 5
  21              		.loc 1 8 38 is_stmt 0
  22              	#APP
  23              	# 8 "src/Riscv.cpp" 1
   9              	    __asm__ volatile("sret");
  24              		csrw sepc, ra
  25              	# 0 "" 2
  26              		.loc 1 9 5 is_stmt 1
  27              		.loc 1 9 29 is_stmt 0
  28              	# 9 "src/Riscv.cpp" 1
  10              	}
  29              		sret
  30              	# 0 "" 2
  31              		.loc 1 10 1
  32              	#NO_APP
  33 0014 03348100 		ld	s0,8(sp)
  34              		.cfi_restore 8
  35              		.cfi_def_cfa 2, 16
  36 0018 13010101 		addi	sp,sp,16
  37              		.cfi_def_cfa_offset 0
  38 001c 67800000 		jr	ra
  39              		.cfi_endproc
  40              	.LFE32:
  42              		.align	2
  43              		.globl	_ZN5Riscv13handleSyscallEv
  45              	_ZN5Riscv13handleSyscallEv:
  46              	.LFB34:
  11:src/Riscv.cpp **** 
  12:src/Riscv.cpp **** void Riscv::trap() {
  13:src/Riscv.cpp ****     uint64 cause;
  14:src/Riscv.cpp ****     asm volatile("mv a7, a4");
GAS LISTING /tmp/ccjsL3AI.s 			page 2


  15:src/Riscv.cpp ****     cause=Riscv::r_scause();
  16:src/Riscv.cpp ****     switch(cause){
  17:src/Riscv.cpp ****         case ILLEGAL_INSTRUCTION_CODE:
  18:src/Riscv.cpp ****         case ILLEGAL_READ_CODE:
  19:src/Riscv.cpp ****         case ILLEGAL_WRITE_CODE:{
  20:src/Riscv.cpp ****             Riscv::halt();
  21:src/Riscv.cpp ****             break;
  22:src/Riscv.cpp ****         }
  23:src/Riscv.cpp ****         case UMODE_ECALL_CODE:
  24:src/Riscv.cpp ****         case SMODE_ECALL_CODE:{
  25:src/Riscv.cpp ****             Riscv::handleSyscall();
  26:src/Riscv.cpp ****             break;
  27:src/Riscv.cpp ****         }
  28:src/Riscv.cpp ****         case TIMER_CODE:{
  29:src/Riscv.cpp ****             Riscv::handleTimer();
  30:src/Riscv.cpp ****             break;
  31:src/Riscv.cpp ****         }
  32:src/Riscv.cpp ****         case CONSOLE_CODE:{
  33:src/Riscv.cpp ****             Riscv::handleConsole();
  34:src/Riscv.cpp ****             break;
  35:src/Riscv.cpp ****         }
  36:src/Riscv.cpp ****     }
  37:src/Riscv.cpp **** }
  38:src/Riscv.cpp **** void Riscv::handleSyscall() {
  47              		.loc 1 38 29 is_stmt 1
  48              		.cfi_startproc
  49              		.cfi_personality 0x9b,DW.ref.__gxx_personality_v0
  50              		.cfi_lsda 0x1b,.LLSDA34
  51 0020 130101F1 		addi	sp,sp,-240
  52              		.cfi_def_cfa_offset 240
  53 0024 2334110E 		sd	ra,232(sp)
  54 0028 2330810E 		sd	s0,224(sp)
  55 002c 233C910C 		sd	s1,216(sp)
  56 0030 2338210D 		sd	s2,208(sp)
  57 0034 2334310D 		sd	s3,200(sp)
  58 0038 2330410D 		sd	s4,192(sp)
  59 003c 233C510B 		sd	s5,184(sp)
  60 0040 2338610B 		sd	s6,176(sp)
  61 0044 2334710B 		sd	s7,168(sp)
  62              		.cfi_offset 1, -8
  63              		.cfi_offset 8, -16
  64              		.cfi_offset 9, -24
  65              		.cfi_offset 18, -32
  66              		.cfi_offset 19, -40
  67              		.cfi_offset 20, -48
  68              		.cfi_offset 21, -56
  69              		.cfi_offset 22, -64
  70              		.cfi_offset 23, -72
  71 0048 1304010F 		addi	s0,sp,240
  72              		.cfi_def_cfa 8, 0
  39:src/Riscv.cpp ****     uint64 sepc;
  73              		.loc 1 39 5
  40:src/Riscv.cpp ****     uint64 sstatus;
  74              		.loc 1 40 5
  41:src/Riscv.cpp ****     sepc=Riscv::r_sepc();
  75              		.loc 1 41 5
  76              	.LBB102:
GAS LISTING /tmp/ccjsL3AI.s 			page 3


  77              	.LBB103:
  78              		.file 2 "src/../h/Riscv.hpp"
   1:src/../h/Riscv.hpp **** //
   2:src/../h/Riscv.hpp **** // Created by os on 6/21/24.
   3:src/../h/Riscv.hpp **** //
   4:src/../h/Riscv.hpp **** 
   5:src/../h/Riscv.hpp **** #ifndef PROJECT_BASE_V1_1_2_RISCV_HPP
   6:src/../h/Riscv.hpp **** #define PROJECT_BASE_V1_1_2_RISCV_HPP
   7:src/../h/Riscv.hpp **** #include "../lib/hw.h"
   8:src/../h/Riscv.hpp **** #include "codes.hpp"
   9:src/../h/Riscv.hpp **** class Riscv
  10:src/../h/Riscv.hpp **** {
  11:src/../h/Riscv.hpp **** public:
  12:src/../h/Riscv.hpp **** 
  13:src/../h/Riscv.hpp ****     // pop sstatus.spp and sstatus.spie bits (has to be a non inline function)
  14:src/../h/Riscv.hpp ****     static void popSppSpie();
  15:src/../h/Riscv.hpp ****     static void halt();
  16:src/../h/Riscv.hpp ****     static uint64 r_sie();
  17:src/../h/Riscv.hpp ****     static void w_sie(uint64);
  18:src/../h/Riscv.hpp ****     // read register scause
  19:src/../h/Riscv.hpp ****     static uint64 r_scause();
  20:src/../h/Riscv.hpp **** 
  21:src/../h/Riscv.hpp ****     // write register scause
  22:src/../h/Riscv.hpp ****     static void w_scause(uint64 scause);
  23:src/../h/Riscv.hpp ****     static uint64 r_a0();
  24:src/../h/Riscv.hpp ****     static uint64 r_a1();
  25:src/../h/Riscv.hpp ****     static uint64 r_a2();
  26:src/../h/Riscv.hpp ****     static uint64 r_a3();
  27:src/../h/Riscv.hpp ****     static uint64 r_a4();
  28:src/../h/Riscv.hpp ****     // read register sepc
  29:src/../h/Riscv.hpp ****     static uint64 r_sepc();
  30:src/../h/Riscv.hpp **** 
  31:src/../h/Riscv.hpp ****     // write register sepc
  32:src/../h/Riscv.hpp ****     static void w_sepc(uint64 sepc);
  33:src/../h/Riscv.hpp **** 
  34:src/../h/Riscv.hpp ****     // read register stvec
  35:src/../h/Riscv.hpp ****     static uint64 r_stvec();
  36:src/../h/Riscv.hpp **** 
  37:src/../h/Riscv.hpp ****     // write register stvec
  38:src/../h/Riscv.hpp ****     static void w_stvec(uint64 stvec);
  39:src/../h/Riscv.hpp **** 
  40:src/../h/Riscv.hpp ****     // read register stval
  41:src/../h/Riscv.hpp ****     static uint64 r_stval();
  42:src/../h/Riscv.hpp **** 
  43:src/../h/Riscv.hpp ****     // write register stval
  44:src/../h/Riscv.hpp ****     static void w_stval(uint64 stval);
  45:src/../h/Riscv.hpp **** 
  46:src/../h/Riscv.hpp ****     enum BitMaskSip
  47:src/../h/Riscv.hpp ****     {
  48:src/../h/Riscv.hpp ****         SIP_SSIP = (1 << 1),
  49:src/../h/Riscv.hpp ****         SIP_STIP = (1 << 5),
  50:src/../h/Riscv.hpp ****         SIP_SEIP = (1 << 9),
  51:src/../h/Riscv.hpp ****     };
  52:src/../h/Riscv.hpp **** 
  53:src/../h/Riscv.hpp ****     // mask set register sip
  54:src/../h/Riscv.hpp ****     static void ms_sip(uint64 mask);
  55:src/../h/Riscv.hpp **** 
GAS LISTING /tmp/ccjsL3AI.s 			page 4


  56:src/../h/Riscv.hpp ****     // mask clear register sip
  57:src/../h/Riscv.hpp ****     static void mc_sip(uint64 mask);
  58:src/../h/Riscv.hpp ****     // read register sip
  59:src/../h/Riscv.hpp ****     static uint64 r_sip();
  60:src/../h/Riscv.hpp ****     static void enable_external_interrupts();
  61:src/../h/Riscv.hpp ****     static void disable_external_interrupts();
  62:src/../h/Riscv.hpp ****     // write register sip
  63:src/../h/Riscv.hpp ****     static void w_sip(uint64 sip);
  64:src/../h/Riscv.hpp **** 
  65:src/../h/Riscv.hpp ****     enum BitMaskSstatus
  66:src/../h/Riscv.hpp ****     {
  67:src/../h/Riscv.hpp ****         SSTATUS_SIE = (1 << 1),
  68:src/../h/Riscv.hpp ****         SSTATUS_SPIE = (1 << 5),
  69:src/../h/Riscv.hpp ****         SSTATUS_SPP = (1 << 8),
  70:src/../h/Riscv.hpp ****     };
  71:src/../h/Riscv.hpp **** 
  72:src/../h/Riscv.hpp ****     // mask set register sstatus
  73:src/../h/Riscv.hpp ****     static void ms_sstatus(uint64 mask);
  74:src/../h/Riscv.hpp **** 
  75:src/../h/Riscv.hpp ****     // mask clear register sstatus
  76:src/../h/Riscv.hpp ****     static void mc_sstatus(uint64 mask);
  77:src/../h/Riscv.hpp **** 
  78:src/../h/Riscv.hpp ****     // read register sstatus
  79:src/../h/Riscv.hpp ****     static uint64 r_sstatus();
  80:src/../h/Riscv.hpp **** 
  81:src/../h/Riscv.hpp ****     // write register sstatus
  82:src/../h/Riscv.hpp ****     static void w_sstatus(uint64 sstatus);
  83:src/../h/Riscv.hpp ****     static void trap();
  84:src/../h/Riscv.hpp ****     static void contextHandler();
  85:src/../h/Riscv.hpp **** private:
  86:src/../h/Riscv.hpp **** 
  87:src/../h/Riscv.hpp ****     static void handleSyscall();
  88:src/../h/Riscv.hpp ****     static void handleTimer();
  89:src/../h/Riscv.hpp ****     static void handleConsole();
  90:src/../h/Riscv.hpp **** };
  91:src/../h/Riscv.hpp **** inline uint64 Riscv::r_sie()
  92:src/../h/Riscv.hpp **** {
  93:src/../h/Riscv.hpp ****     uint64 volatile sie;
  94:src/../h/Riscv.hpp ****     __asm__ volatile ("csrr %[sie], sie" : [sie] "=r"(sie));
  95:src/../h/Riscv.hpp ****     return sie;
  96:src/../h/Riscv.hpp **** }
  97:src/../h/Riscv.hpp **** inline void Riscv::w_sie(uint64 sie)
  98:src/../h/Riscv.hpp **** {
  99:src/../h/Riscv.hpp ****     __asm__ volatile ("csrw sie, %[sie]" : : [sie] "r"(sie));
 100:src/../h/Riscv.hpp **** }
 101:src/../h/Riscv.hpp **** inline uint64 Riscv::r_scause()
 102:src/../h/Riscv.hpp **** {
 103:src/../h/Riscv.hpp ****     uint64 volatile scause;
 104:src/../h/Riscv.hpp ****     __asm__ volatile ("csrr %[scause], scause" : [scause] "=r"(scause));
 105:src/../h/Riscv.hpp ****     return scause;
 106:src/../h/Riscv.hpp **** }
 107:src/../h/Riscv.hpp **** 
 108:src/../h/Riscv.hpp **** inline void Riscv::w_scause(uint64 scause)
 109:src/../h/Riscv.hpp **** {
 110:src/../h/Riscv.hpp ****     __asm__ volatile ("csrw scause, %[scause]" : : [scause] "r"(scause));
 111:src/../h/Riscv.hpp **** }
 112:src/../h/Riscv.hpp **** 
GAS LISTING /tmp/ccjsL3AI.s 			page 5


 113:src/../h/Riscv.hpp **** inline uint64 Riscv::r_sepc()
 114:src/../h/Riscv.hpp **** {
 115:src/../h/Riscv.hpp ****     uint64 volatile sepc;
  79              		.loc 2 115 5
 116:src/../h/Riscv.hpp ****     __asm__ volatile ("csrr %[sepc], sepc" : [sepc] "=r"(sepc));
  80              		.loc 2 116 5
  81              		.loc 2 116 64 is_stmt 0
  82              	#APP
  83              	# 116 "src/../h/Riscv.hpp" 1
 117              	    return sepc;
  84              		csrr a5, sepc
  85              	# 0 "" 2
  86              	#NO_APP
  87 0050 2330F4F2 		sd	a5,-224(s0)
  88              		.loc 2 117 5 is_stmt 1
  89              		.loc 2 117 12 is_stmt 0
  90 0054 033904F2 		ld	s2,-224(s0)
  91              	.LVL0:
  92              	.LBE103:
  93              	.LBE102:
  42:src/Riscv.cpp ****     sstatus=Riscv::r_sstatus();
  94              		.loc 1 42 5 is_stmt 1
  95              	.LBB104:
  96              	.LBB105:
 118:src/../h/Riscv.hpp **** }
 119:src/../h/Riscv.hpp **** 
 120:src/../h/Riscv.hpp **** inline void Riscv::w_sepc(uint64 sepc)
 121:src/../h/Riscv.hpp **** {
 122:src/../h/Riscv.hpp ****     __asm__ volatile ("csrw sepc, %[sepc]" : : [sepc] "r"(sepc));
 123:src/../h/Riscv.hpp **** }
 124:src/../h/Riscv.hpp **** 
 125:src/../h/Riscv.hpp **** inline uint64 Riscv::r_stvec()
 126:src/../h/Riscv.hpp **** {
 127:src/../h/Riscv.hpp ****     uint64 volatile stvec;
 128:src/../h/Riscv.hpp ****     __asm__ volatile ("csrr %[stvec], stvec" : [stvec] "=r"(stvec));
 129:src/../h/Riscv.hpp ****     return stvec;
 130:src/../h/Riscv.hpp **** }
 131:src/../h/Riscv.hpp **** 
 132:src/../h/Riscv.hpp **** inline void Riscv::w_stvec(uint64 stvec)
 133:src/../h/Riscv.hpp **** {
 134:src/../h/Riscv.hpp ****     __asm__ volatile ("csrw stvec, %[stvec]" : : [stvec] "r"(stvec));
 135:src/../h/Riscv.hpp **** }
 136:src/../h/Riscv.hpp **** 
 137:src/../h/Riscv.hpp **** inline uint64 Riscv::r_stval()
 138:src/../h/Riscv.hpp **** {
 139:src/../h/Riscv.hpp ****     uint64 volatile stval;
 140:src/../h/Riscv.hpp ****     __asm__ volatile ("csrr %[stval], stval" : [stval] "=r"(stval));
 141:src/../h/Riscv.hpp ****     return stval;
 142:src/../h/Riscv.hpp **** }
 143:src/../h/Riscv.hpp **** 
 144:src/../h/Riscv.hpp **** inline void Riscv::w_stval(uint64 stval)
 145:src/../h/Riscv.hpp **** {
 146:src/../h/Riscv.hpp ****     __asm__ volatile ("csrw stval, %[stval]" : : [stval] "r"(stval));
 147:src/../h/Riscv.hpp **** }
 148:src/../h/Riscv.hpp **** 
 149:src/../h/Riscv.hpp **** inline void Riscv::ms_sip(uint64 mask)
 150:src/../h/Riscv.hpp **** {
GAS LISTING /tmp/ccjsL3AI.s 			page 6


 151:src/../h/Riscv.hpp ****     __asm__ volatile ("csrs sip, %[mask]" : : [mask] "r"(mask));
 152:src/../h/Riscv.hpp **** }
 153:src/../h/Riscv.hpp **** 
 154:src/../h/Riscv.hpp **** inline void Riscv::mc_sip(uint64 mask)
 155:src/../h/Riscv.hpp **** {
 156:src/../h/Riscv.hpp ****     __asm__ volatile ("csrc sip, %[mask]" : : [mask] "r"(mask));
 157:src/../h/Riscv.hpp **** }
 158:src/../h/Riscv.hpp **** 
 159:src/../h/Riscv.hpp **** inline uint64 Riscv::r_sip()
 160:src/../h/Riscv.hpp **** {
 161:src/../h/Riscv.hpp ****     uint64 volatile sip;
 162:src/../h/Riscv.hpp ****     __asm__ volatile ("csrr %[sip], sip" : [sip] "=r"(sip));
 163:src/../h/Riscv.hpp ****     return sip;
 164:src/../h/Riscv.hpp **** }
 165:src/../h/Riscv.hpp **** 
 166:src/../h/Riscv.hpp **** inline void Riscv::w_sip(uint64 sip)
 167:src/../h/Riscv.hpp **** {
 168:src/../h/Riscv.hpp ****     __asm__ volatile ("csrw sip, %[sip]" : : [sip] "r"(sip));
 169:src/../h/Riscv.hpp **** }
 170:src/../h/Riscv.hpp **** 
 171:src/../h/Riscv.hpp **** inline void Riscv::ms_sstatus(uint64 mask)
 172:src/../h/Riscv.hpp **** {
 173:src/../h/Riscv.hpp ****     __asm__ volatile ("csrs sstatus, %[mask]" : : [mask] "r"(mask));
 174:src/../h/Riscv.hpp **** }
 175:src/../h/Riscv.hpp **** 
 176:src/../h/Riscv.hpp **** inline void Riscv::mc_sstatus(uint64 mask)
 177:src/../h/Riscv.hpp **** {
 178:src/../h/Riscv.hpp ****     __asm__ volatile ("csrc sstatus, %[mask]" : : [mask] "r"(mask));
 179:src/../h/Riscv.hpp **** }
 180:src/../h/Riscv.hpp **** 
 181:src/../h/Riscv.hpp **** inline uint64 Riscv::r_sstatus()
 182:src/../h/Riscv.hpp **** {
 183:src/../h/Riscv.hpp ****     uint64 volatile sstatus;
  97              		.loc 2 183 5
 184:src/../h/Riscv.hpp ****     __asm__ volatile ("csrr %[sstatus], sstatus" : [sstatus] "=r"(sstatus));
  98              		.loc 2 184 5
  99              		.loc 2 184 76 is_stmt 0
 100              	#APP
 101              	# 184 "src/../h/Riscv.hpp" 1
 185              	    return sstatus;
 102              		csrr a5, sstatus
 103              	# 0 "" 2
 104              	#NO_APP
 105 005c 233CF4F0 		sd	a5,-232(s0)
 106              		.loc 2 185 5 is_stmt 1
 107              		.loc 2 185 12 is_stmt 0
 108 0060 833484F1 		ld	s1,-232(s0)
 109              	.LVL1:
 110              	.LBE105:
 111              	.LBE104:
  43:src/Riscv.cpp ****     Riscv::disable_external_interrupts();
 112              		.loc 1 43 5 is_stmt 1
 113              	.LBB106:
 114              	.LBB107:
 186:src/../h/Riscv.hpp **** }
 187:src/../h/Riscv.hpp **** inline void Riscv::enable_external_interrupts(){
 188:src/../h/Riscv.hpp ****     uint64 t=1<<9;
GAS LISTING /tmp/ccjsL3AI.s 			page 7


 189:src/../h/Riscv.hpp ****     asm volatile("csrs sie, %0"::"r"(t));
 190:src/../h/Riscv.hpp **** }
 191:src/../h/Riscv.hpp **** inline void Riscv::disable_external_interrupts(){
 192:src/../h/Riscv.hpp ****     uint64 t=1<<9;
 115              		.loc 2 192 5
 193:src/../h/Riscv.hpp ****     asm volatile("csrc sie, %0"::"r"(t));
 116              		.loc 2 193 5
 117              		.loc 2 193 41 is_stmt 0
 118 0064 93070020 		li	a5,512
 119              	#APP
 120              	# 193 "src/../h/Riscv.hpp" 1
 194              	}
 121              		csrc sie, a5
 122              	# 0 "" 2
 123              	#NO_APP
 124              	.LBE107:
 125              	.LBE106:
  44:src/Riscv.cpp ****     uint64 syscall=Riscv::r_a0();
 126              		.loc 1 44 5 is_stmt 1
 127              	.LBB108:
 128              	.LBB109:
 195:src/../h/Riscv.hpp **** inline void Riscv::w_sstatus(uint64 sstatus)
 196:src/../h/Riscv.hpp **** {
 197:src/../h/Riscv.hpp ****     __asm__ volatile ("csrw sstatus, %[sstatus]" : : [sstatus] "r"(sstatus));
 198:src/../h/Riscv.hpp **** }
 199:src/../h/Riscv.hpp **** inline uint64 Riscv::r_a0() {
 200:src/../h/Riscv.hpp ****     uint64 volatile a0;
 129              		.loc 2 200 5
 201:src/../h/Riscv.hpp ****     __asm__ volatile ("mv %0, a0" :"=r"(a0));
 130              		.loc 2 201 5
 131              		.loc 2 201 45 is_stmt 0
 132              	#APP
 133              	# 201 "src/../h/Riscv.hpp" 1
 202              	    return a0;
 134              		mv a5, a0
 135              	# 0 "" 2
 136              	#NO_APP
 137 0070 2338F4F0 		sd	a5,-240(s0)
 138              		.loc 2 202 5 is_stmt 1
 139              		.loc 2 202 12 is_stmt 0
 140 0074 833704F1 		ld	a5,-240(s0)
 141              	.LVL2:
 142              	.LBE109:
 143              	.LBE108:
  45:src/Riscv.cpp ****     switch(syscall){
 144              		.loc 1 45 5 is_stmt 1
 145 0078 13072004 		li	a4,66
 146 007c 6360F704 		bgtu	a5,a4,.L4
 147 0080 93972700 		slli	a5,a5,2
 148              	.LVL3:
 149 0084 17070000 		lla	a4,.L6
 149      13070700 
 150 008c B387E700 		add	a5,a5,a4
 151 0090 83A70700 		lw	a5,0(a5)
 152 0094 B387E700 		add	a5,a5,a4
 153 0098 67800700 		jr	a5
 154              		.section	.rodata
GAS LISTING /tmp/ccjsL3AI.s 			page 8


 155              		.align	2
 156              		.align	2
 157              	.L6:
 158 0000 00000000 		.word	.L20-.L6
 159 0004 00000000 		.word	.L19-.L6
 160 0008 00000000 		.word	.L18-.L6
 161 000c 00000000 		.word	.L4-.L6
 162 0010 00000000 		.word	.L4-.L6
 163 0014 00000000 		.word	.L4-.L6
 164 0018 00000000 		.word	.L4-.L6
 165 001c 00000000 		.word	.L4-.L6
 166 0020 00000000 		.word	.L4-.L6
 167 0024 00000000 		.word	.L4-.L6
 168 0028 00000000 		.word	.L4-.L6
 169 002c 00000000 		.word	.L4-.L6
 170 0030 00000000 		.word	.L4-.L6
 171 0034 00000000 		.word	.L4-.L6
 172 0038 00000000 		.word	.L4-.L6
 173 003c 00000000 		.word	.L4-.L6
 174 0040 00000000 		.word	.L4-.L6
 175 0044 00000000 		.word	.L17-.L6
 176 0048 00000000 		.word	.L16-.L6
 177 004c 00000000 		.word	.L15-.L6
 178 0050 00000000 		.word	.L4-.L6
 179 0054 00000000 		.word	.L4-.L6
 180 0058 00000000 		.word	.L4-.L6
 181 005c 00000000 		.word	.L4-.L6
 182 0060 00000000 		.word	.L4-.L6
 183 0064 00000000 		.word	.L4-.L6
 184 0068 00000000 		.word	.L4-.L6
 185 006c 00000000 		.word	.L4-.L6
 186 0070 00000000 		.word	.L4-.L6
 187 0074 00000000 		.word	.L4-.L6
 188 0078 00000000 		.word	.L4-.L6
 189 007c 00000000 		.word	.L4-.L6
 190 0080 00000000 		.word	.L4-.L6
 191 0084 00000000 		.word	.L14-.L6
 192 0088 00000000 		.word	.L13-.L6
 193 008c 00000000 		.word	.L12-.L6
 194 0090 00000000 		.word	.L11-.L6
 195 0094 00000000 		.word	.L10-.L6
 196 0098 00000000 		.word	.L9-.L6
 197 009c 00000000 		.word	.L4-.L6
 198 00a0 00000000 		.word	.L4-.L6
 199 00a4 00000000 		.word	.L4-.L6
 200 00a8 00000000 		.word	.L4-.L6
 201 00ac 00000000 		.word	.L4-.L6
 202 00b0 00000000 		.word	.L4-.L6
 203 00b4 00000000 		.word	.L4-.L6
 204 00b8 00000000 		.word	.L4-.L6
 205 00bc 00000000 		.word	.L4-.L6
 206 00c0 00000000 		.word	.L4-.L6
 207 00c4 00000000 		.word	.L8-.L6
 208 00c8 00000000 		.word	.L4-.L6
 209 00cc 00000000 		.word	.L4-.L6
 210 00d0 00000000 		.word	.L4-.L6
 211 00d4 00000000 		.word	.L4-.L6
GAS LISTING /tmp/ccjsL3AI.s 			page 9


 212 00d8 00000000 		.word	.L4-.L6
 213 00dc 00000000 		.word	.L4-.L6
 214 00e0 00000000 		.word	.L4-.L6
 215 00e4 00000000 		.word	.L4-.L6
 216 00e8 00000000 		.word	.L4-.L6
 217 00ec 00000000 		.word	.L4-.L6
 218 00f0 00000000 		.word	.L4-.L6
 219 00f4 00000000 		.word	.L4-.L6
 220 00f8 00000000 		.word	.L4-.L6
 221 00fc 00000000 		.word	.L4-.L6
 222 0100 00000000 		.word	.L4-.L6
 223 0104 00000000 		.word	.L7-.L6
 224 0108 00000000 		.word	.L5-.L6
 225              		.text
 226              	.L20:
 227              	.LBB110:
 228              	.LBB111:
  46:src/Riscv.cpp ****         case 0x00UL:{
 229              		.loc 1 46 9
 230              		.loc 1 46 21
  47:src/Riscv.cpp ****             Riscv::w_sstatus(TCB::getRunning()->getSavedSStatus());
 231              		.loc 1 47 13
 232              	.LEHB0:
 233              		.loc 1 47 29 is_stmt 0
 234 009c 97000000 		call	_ZN3TCB10getRunningEv@plt
 234      E7800000 
 235              	.LVL4:
 236 00a4 97000000 		call	_ZNK3TCB15getSavedSStatusEv@plt
 236      E7800000 
 237              	.LVL5:
 238              	.LBB112:
 239              	.LBB113:
 197:src/../h/Riscv.hpp **** }
 240              		.loc 2 197 5 is_stmt 1
 197:src/../h/Riscv.hpp **** }
 241              		.loc 2 197 77 is_stmt 0
 242              	#APP
 243              	# 197 "src/../h/Riscv.hpp" 1
 244              		csrw sstatus, a0
 245              	# 0 "" 2
 246              	.LVL6:
 247              	#NO_APP
 248              	.LBE113:
 249              	.LBE112:
  48:src/Riscv.cpp ****             sstatus=Riscv::r_sstatus();
 250              		.loc 1 48 13 is_stmt 1
 251              	.LBB114:
 252              	.LBB115:
 183:src/../h/Riscv.hpp ****     __asm__ volatile ("csrr %[sstatus], sstatus" : [sstatus] "=r"(sstatus));
 253              		.loc 2 183 5
 184:src/../h/Riscv.hpp ****     return sstatus;
 254              		.loc 2 184 5
 184:src/../h/Riscv.hpp ****     return sstatus;
 255              		.loc 2 184 76 is_stmt 0
 256              	#APP
 257              	# 184 "src/../h/Riscv.hpp" 1
 258              		csrr a5, sstatus
GAS LISTING /tmp/ccjsL3AI.s 			page 10


 259              	# 0 "" 2
 260              	#NO_APP
 261 00b4 2334F4F2 		sd	a5,-216(s0)
 185:src/../h/Riscv.hpp **** }
 262              		.loc 2 185 5 is_stmt 1
 185:src/../h/Riscv.hpp **** }
 263              		.loc 2 185 12 is_stmt 0
 264 00b8 833484F2 		ld	s1,-216(s0)
 265              	.LVL7:
 266              	.LBE115:
 267              	.LBE114:
  49:src/Riscv.cpp ****             break;
 268              		.loc 1 49 13 is_stmt 1
 269              	.L4:
 270              	.LBE111:
 271              	.LBE110:
  50:src/Riscv.cpp ****         }
  51:src/Riscv.cpp ****         case MEM_ALLOC_CODE:{
  52:src/Riscv.cpp ****             MemoryAllocator &m=MemoryAllocator::getAllocatorInstance();
  53:src/Riscv.cpp ****             int arg=(int)Riscv::r_a1();
  54:src/Riscv.cpp ****             void* retval=m.allocate(arg);
  55:src/Riscv.cpp ****             asm volatile("mv a0, %0"::"r"(retval));
  56:src/Riscv.cpp ****             break;
  57:src/Riscv.cpp ****         }
  58:src/Riscv.cpp ****         case MEM_FREE_CODE:{
  59:src/Riscv.cpp ****             MemoryAllocator &m=MemoryAllocator::getAllocatorInstance();
  60:src/Riscv.cpp ****             void* arg=(void*)Riscv::r_a1();
  61:src/Riscv.cpp ****             int retval=m.deallocate(arg);
  62:src/Riscv.cpp ****             asm volatile("mv a0, %0"::"r"(retval));
  63:src/Riscv.cpp ****             break;
  64:src/Riscv.cpp ****         }
  65:src/Riscv.cpp ****         case THREAD_CREATE_CODE:{
  66:src/Riscv.cpp ****             asm volatile("mv a4, a7");
  67:src/Riscv.cpp ****             void* arg=(void*)Riscv::r_a3();
  68:src/Riscv.cpp ****             void(*fptr)(void*)=(void(*)(void*))Riscv::r_a2();
  69:src/Riscv.cpp ****             thread_t* handle=(thread_t*)Riscv::r_a1();
  70:src/Riscv.cpp ****             uint64* sp=(uint64*)Riscv::r_a4();
  71:src/Riscv.cpp ****             thread_t createdThread=new TCB(fptr, arg, sp);
  72:src/Riscv.cpp ****             *handle=createdThread;
  73:src/Riscv.cpp ****             int retval;
  74:src/Riscv.cpp ****             if(createdThread== nullptr){
  75:src/Riscv.cpp ****                 retval=-1;
  76:src/Riscv.cpp ****             }
  77:src/Riscv.cpp ****             else{
  78:src/Riscv.cpp ****                 retval=0;
  79:src/Riscv.cpp ****             }
  80:src/Riscv.cpp ****             asm volatile("mv a0,%0"::"r"(retval));
  81:src/Riscv.cpp ****             break;
  82:src/Riscv.cpp ****         }
  83:src/Riscv.cpp ****         case THREAD_EXIT_CODE:{
  84:src/Riscv.cpp ****             TCB* exiting=TCB::getRunning();
  85:src/Riscv.cpp ****             exiting->setCompleted(true);
  86:src/Riscv.cpp ****             int retval=0;
  87:src/Riscv.cpp ****             asm volatile("mv a0,%0"::"r"(retval));
  88:src/Riscv.cpp ****             break;
  89:src/Riscv.cpp ****         }
  90:src/Riscv.cpp ****         case THREAD_DISPATCH_CODE:{
GAS LISTING /tmp/ccjsL3AI.s 			page 11


  91:src/Riscv.cpp ****             TCB::dispatch();
  92:src/Riscv.cpp ****             break;
  93:src/Riscv.cpp ****         }
  94:src/Riscv.cpp ****         case SEM_OPEN_CODE:{
  95:src/Riscv.cpp ****             sem_t* handle=(sem_t*)Riscv::r_a1();
  96:src/Riscv.cpp ****             unsigned int val=(unsigned int)Riscv::r_a2();
  97:src/Riscv.cpp ****             sem_t createdSem=new SemC(val);
  98:src/Riscv.cpp ****             *handle=createdSem;
  99:src/Riscv.cpp ****             int retval;
 100:src/Riscv.cpp ****             if(createdSem== nullptr){
 101:src/Riscv.cpp ****                 retval=-1;
 102:src/Riscv.cpp ****             }
 103:src/Riscv.cpp ****             else{
 104:src/Riscv.cpp ****                 retval=0;
 105:src/Riscv.cpp ****             }
 106:src/Riscv.cpp ****             asm volatile("mv a0,%0"::"r"(retval));
 107:src/Riscv.cpp ****             break;
 108:src/Riscv.cpp ****         }
 109:src/Riscv.cpp ****         case SEM_CLOSE_CODE:{
 110:src/Riscv.cpp ****             sem_t handle=(sem_t)Riscv::r_a1();
 111:src/Riscv.cpp ****             int retval=-1;
 112:src/Riscv.cpp ****             if(handle){
 113:src/Riscv.cpp ****                 handle->closing();
 114:src/Riscv.cpp ****                 retval=0;
 115:src/Riscv.cpp ****             }
 116:src/Riscv.cpp ****             asm volatile("mv a0,%0"::"r"(retval));
 117:src/Riscv.cpp ****             break;
 118:src/Riscv.cpp ****         }
 119:src/Riscv.cpp ****         case SEM_WAIT_CODE:{
 120:src/Riscv.cpp ****             sem_t handle=(sem_t)Riscv::r_a1();;
 121:src/Riscv.cpp ****             int retval=handle->wait();
 122:src/Riscv.cpp ****             asm volatile("mv a0,%0"::"r"(retval));
 123:src/Riscv.cpp ****             break;
 124:src/Riscv.cpp ****         }
 125:src/Riscv.cpp ****         case SEM_SIGNAL_CODE:{
 126:src/Riscv.cpp ****             sem_t handle=(sem_t)Riscv::r_a1();;
 127:src/Riscv.cpp ****             int retval=handle->signal();
 128:src/Riscv.cpp ****             asm volatile("mv a0,%0"::"r"(retval));
 129:src/Riscv.cpp ****             break;
 130:src/Riscv.cpp ****         }
 131:src/Riscv.cpp ****         case SEM_TIMEDWAIT_CODE:{
 132:src/Riscv.cpp ****             sem_t handle=(sem_t)Riscv::r_a1();;
 133:src/Riscv.cpp ****             time_t time=(time_t)Riscv::r_a2();
 134:src/Riscv.cpp ****             int retval=handle->timedwait(time);
 135:src/Riscv.cpp ****             asm volatile("mv a0,%0"::"r"(retval));
 136:src/Riscv.cpp ****             break;
 137:src/Riscv.cpp ****         }
 138:src/Riscv.cpp ****         case SEM_TRYWAIT_CODE:{
 139:src/Riscv.cpp ****             sem_t handle=(sem_t)Riscv::r_a1();;
 140:src/Riscv.cpp ****             int retval=handle->trywait();
 141:src/Riscv.cpp ****             asm volatile("mv a0,%0"::"r"(retval));
 142:src/Riscv.cpp ****             break;
 143:src/Riscv.cpp ****         }
 144:src/Riscv.cpp ****         case SLEEP_CODE:{
 145:src/Riscv.cpp ****             time_t ticks=(time_t)Riscv::r_a1();
 146:src/Riscv.cpp ****             int retval;
 147:src/Riscv.cpp ****             if(ticks>0){
GAS LISTING /tmp/ccjsL3AI.s 			page 12


 148:src/Riscv.cpp ****                 SleepQueue& sl=SleepQueue::getSleepQueueInstance();
 149:src/Riscv.cpp ****                 sl.put(TCB::getRunning(),ticks);
 150:src/Riscv.cpp ****                 retval=0;
 151:src/Riscv.cpp ****             }
 152:src/Riscv.cpp ****             else{
 153:src/Riscv.cpp ****                 retval=-1;
 154:src/Riscv.cpp ****             }
 155:src/Riscv.cpp ****             asm volatile("mv a0, %0"::"r"(retval));
 156:src/Riscv.cpp ****             break;
 157:src/Riscv.cpp ****         }
 158:src/Riscv.cpp ****         case GETC_CODE:{
 159:src/Riscv.cpp ****             KernelConsole &console=KernelConsole::getConsoleInstance();
 160:src/Riscv.cpp ****             char retval=console.getCharIn();
 161:src/Riscv.cpp ****             asm volatile("mv a0, %0"::"r"(retval));
 162:src/Riscv.cpp ****             break;
 163:src/Riscv.cpp ****         }
 164:src/Riscv.cpp ****         case PUTC_CODE:{
 165:src/Riscv.cpp ****             char c=(char)Riscv::r_a1();
 166:src/Riscv.cpp ****             KernelConsole &console=KernelConsole::getConsoleInstance();
 167:src/Riscv.cpp **** 
 168:src/Riscv.cpp ****             console.putCharOut(c);
 169:src/Riscv.cpp ****             break;
 170:src/Riscv.cpp ****         }
 171:src/Riscv.cpp ****     }
 172:src/Riscv.cpp ****     Riscv::w_sepc(sepc);
 272              		.loc 1 172 5
 273              	.LBB167:
 274              	.LBB168:
 122:src/../h/Riscv.hpp **** }
 275              		.loc 2 122 5
 122:src/../h/Riscv.hpp **** }
 276              		.loc 2 122 65 is_stmt 0
 277              	#APP
 278              	# 122 "src/../h/Riscv.hpp" 1
 279              		csrw sepc, s2
 280              	# 0 "" 2
 281              	.LVL8:
 282              	#NO_APP
 283              	.LBE168:
 284              	.LBE167:
 173:src/Riscv.cpp ****     Riscv::w_sstatus(sstatus);
 285              		.loc 1 173 5 is_stmt 1
 286              	.LBB169:
 287              	.LBB170:
 197:src/../h/Riscv.hpp **** }
 288              		.loc 2 197 5
 197:src/../h/Riscv.hpp **** }
 289              		.loc 2 197 77 is_stmt 0
 290              	#APP
 291              	# 197 "src/../h/Riscv.hpp" 1
 292              		csrw sstatus, s1
 293              	# 0 "" 2
 294              	.LVL9:
 295              	#NO_APP
 296              	.LBE170:
 297              	.LBE169:
 174:src/Riscv.cpp **** }
GAS LISTING /tmp/ccjsL3AI.s 			page 13


 298              		.loc 1 174 1
 299 00c4 8330810E 		ld	ra,232(sp)
 300              		.cfi_remember_state
 301              		.cfi_restore 1
 302 00c8 0334010E 		ld	s0,224(sp)
 303              		.cfi_restore 8
 304              		.cfi_def_cfa 2, 240
 305 00cc 8334810D 		ld	s1,216(sp)
 306              		.cfi_restore 9
 307              	.LVL10:
 308 00d0 0339010D 		ld	s2,208(sp)
 309              		.cfi_restore 18
 310              	.LVL11:
 311 00d4 8339810C 		ld	s3,200(sp)
 312              		.cfi_restore 19
 313 00d8 033A010C 		ld	s4,192(sp)
 314              		.cfi_restore 20
 315 00dc 833A810B 		ld	s5,184(sp)
 316              		.cfi_restore 21
 317 00e0 033B010B 		ld	s6,176(sp)
 318              		.cfi_restore 22
 319 00e4 833B810A 		ld	s7,168(sp)
 320              		.cfi_restore 23
 321 00e8 1301010F 		addi	sp,sp,240
 322              		.cfi_def_cfa_offset 0
 323 00ec 67800000 		jr	ra
 324              	.LVL12:
 325              	.L19:
 326              		.cfi_restore_state
 327              	.LBB171:
 328              	.LBB166:
  51:src/Riscv.cpp ****             MemoryAllocator &m=MemoryAllocator::getAllocatorInstance();
 329              		.loc 1 51 9 is_stmt 1
  51:src/Riscv.cpp ****             MemoryAllocator &m=MemoryAllocator::getAllocatorInstance();
 330              		.loc 1 51 29
 331              	.LBB116:
  52:src/Riscv.cpp ****             int arg=(int)Riscv::r_a1();
 332              		.loc 1 52 13
  52:src/Riscv.cpp ****             int arg=(int)Riscv::r_a1();
 333              		.loc 1 52 70 is_stmt 0
 334 00f0 97000000 		call	_ZN15MemoryAllocator20getAllocatorInstanceEv@plt
 334      E7800000 
 335              	.LVL13:
  53:src/Riscv.cpp ****             void* retval=m.allocate(arg);
 336              		.loc 1 53 13 is_stmt 1
 337              	.LBB117:
 338              	.LBB118:
 203:src/../h/Riscv.hpp **** }
 204:src/../h/Riscv.hpp **** inline uint64 Riscv::r_a1() {
 205:src/../h/Riscv.hpp ****     uint64 volatile a1;
 339              		.loc 2 205 5
 206:src/../h/Riscv.hpp ****     __asm__ volatile ("mv %0, a1" :"=r"(a1));
 340              		.loc 2 206 5
 341              		.loc 2 206 45 is_stmt 0
 342              	#APP
 343              	# 206 "src/../h/Riscv.hpp" 1
 207              	    return a1;
GAS LISTING /tmp/ccjsL3AI.s 			page 14


 344              		mv a5, a1
 345              	# 0 "" 2
 346              	#NO_APP
 347 00fc 2338F4F2 		sd	a5,-208(s0)
 348              		.loc 2 207 5 is_stmt 1
 349              		.loc 2 207 12 is_stmt 0
 350 0100 833504F3 		ld	a1,-208(s0)
 351              	.LVL14:
 352              	.LBE118:
 353              	.LBE117:
  54:src/Riscv.cpp ****             asm volatile("mv a0, %0"::"r"(retval));
 354              		.loc 1 54 13 is_stmt 1
  54:src/Riscv.cpp ****             asm volatile("mv a0, %0"::"r"(retval));
 355              		.loc 1 54 36 is_stmt 0
 356 0104 9B850500 		sext.w	a1,a1
 357 0108 97000000 		call	_ZN15MemoryAllocator8allocateEi@plt
 357      E7800000 
 358              	.LVL15:
  55:src/Riscv.cpp ****             break;
 359              		.loc 1 55 13 is_stmt 1
  55:src/Riscv.cpp ****             break;
 360              		.loc 1 55 51 is_stmt 0
 361              	#APP
 362              	# 55 "src/Riscv.cpp" 1
  56:src/Riscv.cpp ****         }
 363              		mv a0, a0
 364              	# 0 "" 2
 365              		.loc 1 56 13 is_stmt 1
 366              	#NO_APP
 367 0114 6FF09FFA 		j	.L4
 368              	.LVL16:
 369              	.L18:
 370              	.LBE116:
  58:src/Riscv.cpp ****             MemoryAllocator &m=MemoryAllocator::getAllocatorInstance();
 371              		.loc 1 58 9
  58:src/Riscv.cpp ****             MemoryAllocator &m=MemoryAllocator::getAllocatorInstance();
 372              		.loc 1 58 28
 373              	.LBB119:
  59:src/Riscv.cpp ****             void* arg=(void*)Riscv::r_a1();
 374              		.loc 1 59 13
  59:src/Riscv.cpp ****             void* arg=(void*)Riscv::r_a1();
 375              		.loc 1 59 70 is_stmt 0
 376 0118 97000000 		call	_ZN15MemoryAllocator20getAllocatorInstanceEv@plt
 376      E7800000 
 377              	.LVL17:
  60:src/Riscv.cpp ****             int retval=m.deallocate(arg);
 378              		.loc 1 60 13 is_stmt 1
 379              	.LBB120:
 380              	.LBB121:
 205:src/../h/Riscv.hpp ****     __asm__ volatile ("mv %0, a1" :"=r"(a1));
 381              		.loc 2 205 5
 206:src/../h/Riscv.hpp ****     return a1;
 382              		.loc 2 206 5
 206:src/../h/Riscv.hpp ****     return a1;
 383              		.loc 2 206 45 is_stmt 0
 384              	#APP
 385              	# 206 "src/../h/Riscv.hpp" 1
GAS LISTING /tmp/ccjsL3AI.s 			page 15


 386              		mv a5, a1
 387              	# 0 "" 2
 388              	#NO_APP
 389 0124 233CF4F2 		sd	a5,-200(s0)
 390              		.loc 2 207 5 is_stmt 1
 391              		.loc 2 207 12 is_stmt 0
 392 0128 833584F3 		ld	a1,-200(s0)
 393              	.LVL18:
 394              	.LBE121:
 395              	.LBE120:
  61:src/Riscv.cpp ****             asm volatile("mv a0, %0"::"r"(retval));
 396              		.loc 1 61 13 is_stmt 1
  61:src/Riscv.cpp ****             asm volatile("mv a0, %0"::"r"(retval));
 397              		.loc 1 61 36 is_stmt 0
 398 012c 97000000 		call	_ZN15MemoryAllocator10deallocateEPv@plt
 398      E7800000 
 399              	.LVL19:
  62:src/Riscv.cpp ****             break;
 400              		.loc 1 62 13 is_stmt 1
  62:src/Riscv.cpp ****             break;
 401              		.loc 1 62 51 is_stmt 0
 402              	#APP
 403              	# 62 "src/Riscv.cpp" 1
  63:src/Riscv.cpp ****         }
 404              		mv a0, a0
 405              	# 0 "" 2
 406              		.loc 1 63 13 is_stmt 1
 407              	#NO_APP
 408 0138 6FF05FF8 		j	.L4
 409              	.LVL20:
 410              	.L17:
 411              	.LBE119:
  65:src/Riscv.cpp ****             asm volatile("mv a4, a7");
 412              		.loc 1 65 9
  65:src/Riscv.cpp ****             asm volatile("mv a4, a7");
 413              		.loc 1 65 33
 414              	.LBB122:
  66:src/Riscv.cpp ****             void* arg=(void*)Riscv::r_a3();
 415              		.loc 1 66 13
  66:src/Riscv.cpp ****             void* arg=(void*)Riscv::r_a3();
 416              		.loc 1 66 38 is_stmt 0
 417              	#APP
 418              	# 66 "src/Riscv.cpp" 1
  67:src/Riscv.cpp ****             void(*fptr)(void*)=(void(*)(void*))Riscv::r_a2();
 419              		mv a4, a7
 420              	# 0 "" 2
 421              		.loc 1 67 13 is_stmt 1
 422              	#NO_APP
 423              	.LBB123:
 424              	.LBB124:
 208:src/../h/Riscv.hpp **** }
 209:src/../h/Riscv.hpp **** inline uint64 Riscv::r_a2() {
 210:src/../h/Riscv.hpp ****     uint64 volatile a2;
 211:src/../h/Riscv.hpp ****     __asm__ volatile ("mv %0, a2" :"=r"(a2));
 212:src/../h/Riscv.hpp ****     return a2;
 213:src/../h/Riscv.hpp **** }
 214:src/../h/Riscv.hpp **** inline uint64 Riscv::r_a3() {
GAS LISTING /tmp/ccjsL3AI.s 			page 16


 215:src/../h/Riscv.hpp ****     uint64 volatile a3;
 425              		.loc 2 215 5
 216:src/../h/Riscv.hpp ****     __asm__ volatile ("mv %0, a3" :"=r"(a3));
 426              		.loc 2 216 5
 427              		.loc 2 216 45 is_stmt 0
 428              	#APP
 429              	# 216 "src/../h/Riscv.hpp" 1
 217              	    return a3;
 430              		mv a5, a3
 431              	# 0 "" 2
 432              	#NO_APP
 433 0144 233CF4F4 		sd	a5,-168(s0)
 434              		.loc 2 217 5 is_stmt 1
 435              		.loc 2 217 12 is_stmt 0
 436 0148 033B84F5 		ld	s6,-168(s0)
 437              	.LVL21:
 438              	.LBE124:
 439              	.LBE123:
  68:src/Riscv.cpp ****             thread_t* handle=(thread_t*)Riscv::r_a1();
 440              		.loc 1 68 13 is_stmt 1
 441              	.LBB125:
 442              	.LBB126:
 210:src/../h/Riscv.hpp ****     __asm__ volatile ("mv %0, a2" :"=r"(a2));
 443              		.loc 2 210 5
 211:src/../h/Riscv.hpp ****     return a2;
 444              		.loc 2 211 5
 211:src/../h/Riscv.hpp ****     return a2;
 445              		.loc 2 211 45 is_stmt 0
 446              	#APP
 447              	# 211 "src/../h/Riscv.hpp" 1
 448              		mv a5, a2
 449              	# 0 "" 2
 450              	#NO_APP
 451 0150 2338F4F4 		sd	a5,-176(s0)
 212:src/../h/Riscv.hpp **** }
 452              		.loc 2 212 5 is_stmt 1
 212:src/../h/Riscv.hpp **** }
 453              		.loc 2 212 12 is_stmt 0
 454 0154 833A04F5 		ld	s5,-176(s0)
 455              	.LVL22:
 456              	.LBE126:
 457              	.LBE125:
  69:src/Riscv.cpp ****             uint64* sp=(uint64*)Riscv::r_a4();
 458              		.loc 1 69 13 is_stmt 1
 459              	.LBB127:
 460              	.LBB128:
 205:src/../h/Riscv.hpp ****     __asm__ volatile ("mv %0, a1" :"=r"(a1));
 461              		.loc 2 205 5
 206:src/../h/Riscv.hpp ****     return a1;
 462              		.loc 2 206 5
 206:src/../h/Riscv.hpp ****     return a1;
 463              		.loc 2 206 45 is_stmt 0
 464              	#APP
 465              	# 206 "src/../h/Riscv.hpp" 1
 466              		mv a5, a1
 467              	# 0 "" 2
 468              	#NO_APP
GAS LISTING /tmp/ccjsL3AI.s 			page 17


 469 015c 2334F4F4 		sd	a5,-184(s0)
 207:src/../h/Riscv.hpp **** }
 470              		.loc 2 207 5 is_stmt 1
 207:src/../h/Riscv.hpp **** }
 471              		.loc 2 207 12 is_stmt 0
 472 0160 033A84F4 		ld	s4,-184(s0)
 473              	.LVL23:
 474              	.LBE128:
 475              	.LBE127:
  70:src/Riscv.cpp ****             thread_t createdThread=new TCB(fptr, arg, sp);
 476              		.loc 1 70 13 is_stmt 1
 477              	.LBB129:
 478              	.LBB130:
 218:src/../h/Riscv.hpp **** }
 219:src/../h/Riscv.hpp **** inline uint64 Riscv::r_a4() {
 220:src/../h/Riscv.hpp ****     uint64 volatile a4;
 479              		.loc 2 220 5
 221:src/../h/Riscv.hpp ****     __asm__ volatile ("mv %0, a4" :"=r"(a4));
 480              		.loc 2 221 5
 481              		.loc 2 221 45 is_stmt 0
 482              	#APP
 483              	# 221 "src/../h/Riscv.hpp" 1
 222              	    return a4;
 484              		mv a5, a4
 485              	# 0 "" 2
 486              	#NO_APP
 487 0168 2330F4F4 		sd	a5,-192(s0)
 488              		.loc 2 222 5 is_stmt 1
 489              		.loc 2 222 12 is_stmt 0
 490 016c 833B04F4 		ld	s7,-192(s0)
 491              	.LVL24:
 492              	.LBE130:
 493              	.LBE129:
  71:src/Riscv.cpp ****             *handle=createdThread;
 494              		.loc 1 71 13 is_stmt 1
  71:src/Riscv.cpp ****             *handle=createdThread;
 495              		.loc 1 71 57 is_stmt 0
 496 0170 13058008 		li	a0,136
 497 0174 97000000 		call	_ZN3TCBnwEm@plt
 497      E7800000 
 498              	.LVL25:
 499              	.LEHE0:
 500 017c 93090500 		mv	s3,a0
 501 0180 93860B00 		mv	a3,s7
 502 0184 13060B00 		mv	a2,s6
 503 0188 93850A00 		mv	a1,s5
 504              	.LEHB1:
 505 018c 97000000 		call	_ZN3TCBC1EPFvPvES0_Pm@plt
 505      E7800000 
 506              	.LVL26:
 507              	.LEHE1:
  72:src/Riscv.cpp ****             int retval;
 508              		.loc 1 72 13 is_stmt 1 discriminator 2
  72:src/Riscv.cpp ****             int retval;
 509              		.loc 1 72 20 is_stmt 0 discriminator 2
 510 0194 23303A01 		sd	s3,0(s4)
  73:src/Riscv.cpp ****             if(createdThread== nullptr){
GAS LISTING /tmp/ccjsL3AI.s 			page 18


 511              		.loc 1 73 13 is_stmt 1 discriminator 2
  74:src/Riscv.cpp ****                 retval=-1;
 512              		.loc 1 74 13 discriminator 2
 513 0198 63880900 		beqz	s3,.L35
  78:src/Riscv.cpp ****             }
 514              		.loc 1 78 23 is_stmt 0
 515 019c 93070000 		li	a5,0
 516              	.L21:
 517              	.LVL27:
  80:src/Riscv.cpp ****             break;
 518              		.loc 1 80 13 is_stmt 1
  80:src/Riscv.cpp ****             break;
 519              		.loc 1 80 50 is_stmt 0
 520              	#APP
 521              	# 80 "src/Riscv.cpp" 1
  81:src/Riscv.cpp ****         }
 522              		mv a0,a5
 523              	# 0 "" 2
 524              		.loc 1 81 13 is_stmt 1
 525              	#NO_APP
 526 01a4 6FF09FF1 		j	.L4
 527              	.LVL28:
 528              	.L35:
  75:src/Riscv.cpp ****             }
 529              		.loc 1 75 23 is_stmt 0
 530 01a8 9307F0FF 		li	a5,-1
 531 01ac 6FF05FFF 		j	.L21
 532              	.LVL29:
 533              	.L16:
 534              	.LBE122:
  83:src/Riscv.cpp ****             TCB* exiting=TCB::getRunning();
 535              		.loc 1 83 9 is_stmt 1
  83:src/Riscv.cpp ****             TCB* exiting=TCB::getRunning();
 536              		.loc 1 83 31
 537              	.LBB131:
  84:src/Riscv.cpp ****             exiting->setCompleted(true);
 538              		.loc 1 84 13
 539              	.LEHB2:
  84:src/Riscv.cpp ****             exiting->setCompleted(true);
 540              		.loc 1 84 41 is_stmt 0
 541 01b0 97000000 		call	_ZN3TCB10getRunningEv@plt
 541      E7800000 
 542              	.LVL30:
  85:src/Riscv.cpp ****             int retval=0;
 543              		.loc 1 85 13 is_stmt 1
  85:src/Riscv.cpp ****             int retval=0;
 544              		.loc 1 85 34 is_stmt 0
 545 01b8 93051000 		li	a1,1
 546 01bc 97000000 		call	_ZN3TCB12setCompletedEb@plt
 546      E7800000 
 547              	.LVL31:
  86:src/Riscv.cpp ****             asm volatile("mv a0,%0"::"r"(retval));
 548              		.loc 1 86 13 is_stmt 1
  87:src/Riscv.cpp ****             break;
 549              		.loc 1 87 13
  87:src/Riscv.cpp ****             break;
 550              		.loc 1 87 50 is_stmt 0
GAS LISTING /tmp/ccjsL3AI.s 			page 19


 551 01c4 93070000 		li	a5,0
 552              	#APP
 553              	# 87 "src/Riscv.cpp" 1
  88:src/Riscv.cpp ****         }
 554              		mv a0,a5
 555              	# 0 "" 2
 556              		.loc 1 88 13 is_stmt 1
 557              	#NO_APP
 558 01cc 6FF01FEF 		j	.L4
 559              	.LVL32:
 560              	.L15:
 561              	.LBE131:
  90:src/Riscv.cpp ****             TCB::dispatch();
 562              		.loc 1 90 9
  90:src/Riscv.cpp ****             TCB::dispatch();
 563              		.loc 1 90 35
  91:src/Riscv.cpp ****             break;
 564              		.loc 1 91 13
  91:src/Riscv.cpp ****             break;
 565              		.loc 1 91 26 is_stmt 0
 566 01d0 97000000 		call	_ZN3TCB8dispatchEv@plt
 566      E7800000 
 567              	.LVL33:
  92:src/Riscv.cpp ****         }
 568              		.loc 1 92 13 is_stmt 1
 569 01d8 6FF05FEE 		j	.L4
 570              	.L14:
  94:src/Riscv.cpp ****             sem_t* handle=(sem_t*)Riscv::r_a1();
 571              		.loc 1 94 9
  94:src/Riscv.cpp ****             sem_t* handle=(sem_t*)Riscv::r_a1();
 572              		.loc 1 94 28
 573              	.LBB132:
  95:src/Riscv.cpp ****             unsigned int val=(unsigned int)Riscv::r_a2();
 574              		.loc 1 95 13
 575              	.LBB133:
 576              	.LBB134:
 205:src/../h/Riscv.hpp ****     __asm__ volatile ("mv %0, a1" :"=r"(a1));
 577              		.loc 2 205 5
 206:src/../h/Riscv.hpp ****     return a1;
 578              		.loc 2 206 5
 206:src/../h/Riscv.hpp ****     return a1;
 579              		.loc 2 206 45 is_stmt 0
 580              	#APP
 581              	# 206 "src/../h/Riscv.hpp" 1
 582              		mv a5, a1
 583              	# 0 "" 2
 584              	#NO_APP
 585 01e0 2334F4F6 		sd	a5,-152(s0)
 207:src/../h/Riscv.hpp **** }
 586              		.loc 2 207 5 is_stmt 1
 207:src/../h/Riscv.hpp **** }
 587              		.loc 2 207 12 is_stmt 0
 588 01e4 833A84F6 		ld	s5,-152(s0)
 589              	.LVL34:
 590              	.LBE134:
 591              	.LBE133:
  96:src/Riscv.cpp ****             sem_t createdSem=new SemC(val);
GAS LISTING /tmp/ccjsL3AI.s 			page 20


 592              		.loc 1 96 13 is_stmt 1
 593              	.LBB135:
 594              	.LBB136:
 210:src/../h/Riscv.hpp ****     __asm__ volatile ("mv %0, a2" :"=r"(a2));
 595              		.loc 2 210 5
 211:src/../h/Riscv.hpp ****     return a2;
 596              		.loc 2 211 5
 211:src/../h/Riscv.hpp ****     return a2;
 597              		.loc 2 211 45 is_stmt 0
 598              	#APP
 599              	# 211 "src/../h/Riscv.hpp" 1
 600              		mv a5, a2
 601              	# 0 "" 2
 602              	#NO_APP
 603 01ec 2330F4F6 		sd	a5,-160(s0)
 212:src/../h/Riscv.hpp **** }
 604              		.loc 2 212 5 is_stmt 1
 212:src/../h/Riscv.hpp **** }
 605              		.loc 2 212 12 is_stmt 0
 606 01f0 033A04F6 		ld	s4,-160(s0)
 607              	.LBE136:
 608              	.LBE135:
  96:src/Riscv.cpp ****             sem_t createdSem=new SemC(val);
 609              		.loc 1 96 56
 610 01f4 1B0A0A00 		sext.w	s4,s4
 611              	.LVL35:
  97:src/Riscv.cpp ****             *handle=createdSem;
 612              		.loc 1 97 13 is_stmt 1
  97:src/Riscv.cpp ****             *handle=createdSem;
 613              		.loc 1 97 42 is_stmt 0
 614 01f8 13058002 		li	a0,40
 615 01fc 97000000 		call	_ZN4SemCnwEm@plt
 615      E7800000 
 616              	.LVL36:
 617              	.LEHE2:
 618 0204 93090500 		mv	s3,a0
 619 0208 93050A00 		mv	a1,s4
 620              	.LEHB3:
 621 020c 97000000 		call	_ZN4SemCC1Ej@plt
 621      E7800000 
 622              	.LVL37:
 623              	.LEHE3:
  98:src/Riscv.cpp ****             int retval;
 624              		.loc 1 98 13 is_stmt 1 discriminator 2
  98:src/Riscv.cpp ****             int retval;
 625              		.loc 1 98 20 is_stmt 0 discriminator 2
 626 0214 23B03A01 		sd	s3,0(s5)
  99:src/Riscv.cpp ****             if(createdSem== nullptr){
 627              		.loc 1 99 13 is_stmt 1 discriminator 2
 100:src/Riscv.cpp ****                 retval=-1;
 628              		.loc 1 100 13 discriminator 2
 629 0218 63880900 		beqz	s3,.L36
 104:src/Riscv.cpp ****             }
 630              		.loc 1 104 23 is_stmt 0
 631 021c 93070000 		li	a5,0
 632              	.L22:
 633              	.LVL38:
GAS LISTING /tmp/ccjsL3AI.s 			page 21


 106:src/Riscv.cpp ****             break;
 634              		.loc 1 106 13 is_stmt 1
 106:src/Riscv.cpp ****             break;
 635              		.loc 1 106 50 is_stmt 0
 636              	#APP
 637              	# 106 "src/Riscv.cpp" 1
 107:src/Riscv.cpp ****         }
 638              		mv a0,a5
 639              	# 0 "" 2
 640              		.loc 1 107 13 is_stmt 1
 641              	#NO_APP
 642 0224 6FF09FE9 		j	.L4
 643              	.LVL39:
 644              	.L36:
 101:src/Riscv.cpp ****             }
 645              		.loc 1 101 23 is_stmt 0
 646 0228 9307F0FF 		li	a5,-1
 647 022c 6FF05FFF 		j	.L22
 648              	.LVL40:
 649              	.L13:
 650              	.LBE132:
 109:src/Riscv.cpp ****             sem_t handle=(sem_t)Riscv::r_a1();
 651              		.loc 1 109 9 is_stmt 1
 109:src/Riscv.cpp ****             sem_t handle=(sem_t)Riscv::r_a1();
 652              		.loc 1 109 29
 653              	.LBB137:
 110:src/Riscv.cpp ****             int retval=-1;
 654              		.loc 1 110 13
 655              	.LBB138:
 656              	.LBB139:
 205:src/../h/Riscv.hpp ****     __asm__ volatile ("mv %0, a1" :"=r"(a1));
 657              		.loc 2 205 5
 206:src/../h/Riscv.hpp ****     return a1;
 658              		.loc 2 206 5
 206:src/../h/Riscv.hpp ****     return a1;
 659              		.loc 2 206 45 is_stmt 0
 660              	#APP
 661              	# 206 "src/../h/Riscv.hpp" 1
 662              		mv a5, a1
 663              	# 0 "" 2
 664              	#NO_APP
 665 0234 2338F4F6 		sd	a5,-144(s0)
 207:src/../h/Riscv.hpp **** }
 666              		.loc 2 207 5 is_stmt 1
 207:src/../h/Riscv.hpp **** }
 667              		.loc 2 207 12 is_stmt 0
 668 0238 033504F7 		ld	a0,-144(s0)
 669              	.LVL41:
 670              	.LBE139:
 671              	.LBE138:
 111:src/Riscv.cpp ****             if(handle){
 672              		.loc 1 111 13 is_stmt 1
 112:src/Riscv.cpp ****                 handle->closing();
 673              		.loc 1 112 13
 674 023c 63180500 		bnez	a0,.L37
 111:src/Riscv.cpp ****             if(handle){
 675              		.loc 1 111 17 is_stmt 0
GAS LISTING /tmp/ccjsL3AI.s 			page 22


 676 0240 9307F0FF 		li	a5,-1
 677              	.LVL42:
 678              	.L23:
 116:src/Riscv.cpp ****             break;
 679              		.loc 1 116 13 is_stmt 1
 116:src/Riscv.cpp ****             break;
 680              		.loc 1 116 50 is_stmt 0
 681              	#APP
 682              	# 116 "src/Riscv.cpp" 1
 117:src/Riscv.cpp ****         }
 683              		mv a0,a5
 684              	# 0 "" 2
 685              		.loc 1 117 13 is_stmt 1
 686              	#NO_APP
 687 0248 6FF05FE7 		j	.L4
 688              	.LVL43:
 689              	.L37:
 113:src/Riscv.cpp ****                 retval=0;
 690              		.loc 1 113 17
 691              	.LEHB4:
 113:src/Riscv.cpp ****                 retval=0;
 692              		.loc 1 113 32 is_stmt 0
 693 024c 97000000 		call	_ZN4SemC7closingEv@plt
 693      E7800000 
 694              	.LVL44:
 114:src/Riscv.cpp ****             }
 695              		.loc 1 114 17 is_stmt 1
 114:src/Riscv.cpp ****             }
 696              		.loc 1 114 23 is_stmt 0
 697 0254 93070000 		li	a5,0
 698 0258 6FF0DFFE 		j	.L23
 699              	.LVL45:
 700              	.L12:
 701              	.LBE137:
 119:src/Riscv.cpp ****             sem_t handle=(sem_t)Riscv::r_a1();;
 702              		.loc 1 119 9 is_stmt 1
 119:src/Riscv.cpp ****             sem_t handle=(sem_t)Riscv::r_a1();;
 703              		.loc 1 119 28
 704              	.LBB140:
 120:src/Riscv.cpp ****             int retval=handle->wait();
 705              		.loc 1 120 13
 706              	.LBB141:
 707              	.LBB142:
 205:src/../h/Riscv.hpp ****     __asm__ volatile ("mv %0, a1" :"=r"(a1));
 708              		.loc 2 205 5
 206:src/../h/Riscv.hpp ****     return a1;
 709              		.loc 2 206 5
 206:src/../h/Riscv.hpp ****     return a1;
 710              		.loc 2 206 45 is_stmt 0
 711              	#APP
 712              	# 206 "src/../h/Riscv.hpp" 1
 713              		mv a5, a1
 714              	# 0 "" 2
 715              	#NO_APP
 716 0260 233CF4F6 		sd	a5,-136(s0)
 207:src/../h/Riscv.hpp **** }
 717              		.loc 2 207 5 is_stmt 1
GAS LISTING /tmp/ccjsL3AI.s 			page 23


 207:src/../h/Riscv.hpp **** }
 718              		.loc 2 207 12 is_stmt 0
 719 0264 033584F7 		ld	a0,-136(s0)
 720              	.LVL46:
 721              	.LBE142:
 722              	.LBE141:
 120:src/Riscv.cpp ****             int retval=handle->wait();
 723              		.loc 1 120 47 is_stmt 1
 121:src/Riscv.cpp ****             asm volatile("mv a0,%0"::"r"(retval));
 724              		.loc 1 121 13
 121:src/Riscv.cpp ****             asm volatile("mv a0,%0"::"r"(retval));
 725              		.loc 1 121 36 is_stmt 0
 726 0268 97000000 		call	_ZN4SemC4waitEv@plt
 726      E7800000 
 727              	.LVL47:
 122:src/Riscv.cpp ****             break;
 728              		.loc 1 122 13 is_stmt 1
 122:src/Riscv.cpp ****             break;
 729              		.loc 1 122 50 is_stmt 0
 730              	#APP
 731              	# 122 "src/Riscv.cpp" 1
 123:src/Riscv.cpp ****         }
 732              		mv a0,a0
 733              	# 0 "" 2
 734              		.loc 1 123 13 is_stmt 1
 735              	#NO_APP
 736 0274 6FF09FE4 		j	.L4
 737              	.LVL48:
 738              	.L11:
 739              	.LBE140:
 125:src/Riscv.cpp ****             sem_t handle=(sem_t)Riscv::r_a1();;
 740              		.loc 1 125 9
 125:src/Riscv.cpp ****             sem_t handle=(sem_t)Riscv::r_a1();;
 741              		.loc 1 125 30
 742              	.LBB143:
 126:src/Riscv.cpp ****             int retval=handle->signal();
 743              		.loc 1 126 13
 744              	.LBB144:
 745              	.LBB145:
 205:src/../h/Riscv.hpp ****     __asm__ volatile ("mv %0, a1" :"=r"(a1));
 746              		.loc 2 205 5
 206:src/../h/Riscv.hpp ****     return a1;
 747              		.loc 2 206 5
 206:src/../h/Riscv.hpp ****     return a1;
 748              		.loc 2 206 45 is_stmt 0
 749              	#APP
 750              	# 206 "src/../h/Riscv.hpp" 1
 751              		mv a5, a1
 752              	# 0 "" 2
 753              	#NO_APP
 754 027c 2330F4F8 		sd	a5,-128(s0)
 207:src/../h/Riscv.hpp **** }
 755              		.loc 2 207 5 is_stmt 1
 207:src/../h/Riscv.hpp **** }
 756              		.loc 2 207 12 is_stmt 0
 757 0280 033504F8 		ld	a0,-128(s0)
 758              	.LVL49:
GAS LISTING /tmp/ccjsL3AI.s 			page 24


 759              	.LBE145:
 760              	.LBE144:
 126:src/Riscv.cpp ****             int retval=handle->signal();
 761              		.loc 1 126 47 is_stmt 1
 127:src/Riscv.cpp ****             asm volatile("mv a0,%0"::"r"(retval));
 762              		.loc 1 127 13
 127:src/Riscv.cpp ****             asm volatile("mv a0,%0"::"r"(retval));
 763              		.loc 1 127 38 is_stmt 0
 764 0284 97000000 		call	_ZN4SemC6signalEv@plt
 764      E7800000 
 765              	.LVL50:
 128:src/Riscv.cpp ****             break;
 766              		.loc 1 128 13 is_stmt 1
 128:src/Riscv.cpp ****             break;
 767              		.loc 1 128 50 is_stmt 0
 768              	#APP
 769              	# 128 "src/Riscv.cpp" 1
 129:src/Riscv.cpp ****         }
 770              		mv a0,a0
 771              	# 0 "" 2
 772              		.loc 1 129 13 is_stmt 1
 773              	#NO_APP
 774 0290 6FF0DFE2 		j	.L4
 775              	.LVL51:
 776              	.L10:
 777              	.LBE143:
 131:src/Riscv.cpp ****             sem_t handle=(sem_t)Riscv::r_a1();;
 778              		.loc 1 131 9
 131:src/Riscv.cpp ****             sem_t handle=(sem_t)Riscv::r_a1();;
 779              		.loc 1 131 33
 780              	.LBB146:
 132:src/Riscv.cpp ****             time_t time=(time_t)Riscv::r_a2();
 781              		.loc 1 132 13
 782              	.LBB147:
 783              	.LBB148:
 205:src/../h/Riscv.hpp ****     __asm__ volatile ("mv %0, a1" :"=r"(a1));
 784              		.loc 2 205 5
 206:src/../h/Riscv.hpp ****     return a1;
 785              		.loc 2 206 5
 206:src/../h/Riscv.hpp ****     return a1;
 786              		.loc 2 206 45 is_stmt 0
 787              	#APP
 788              	# 206 "src/../h/Riscv.hpp" 1
 789              		mv a5, a1
 790              	# 0 "" 2
 791              	#NO_APP
 792 0298 2338F4F8 		sd	a5,-112(s0)
 207:src/../h/Riscv.hpp **** }
 793              		.loc 2 207 5 is_stmt 1
 207:src/../h/Riscv.hpp **** }
 794              		.loc 2 207 12 is_stmt 0
 795 029c 033504F9 		ld	a0,-112(s0)
 796              	.LVL52:
 797              	.LBE148:
 798              	.LBE147:
 132:src/Riscv.cpp ****             time_t time=(time_t)Riscv::r_a2();
 799              		.loc 1 132 47 is_stmt 1
GAS LISTING /tmp/ccjsL3AI.s 			page 25


 133:src/Riscv.cpp ****             int retval=handle->timedwait(time);
 800              		.loc 1 133 13
 801              	.LBB149:
 802              	.LBB150:
 210:src/../h/Riscv.hpp ****     __asm__ volatile ("mv %0, a2" :"=r"(a2));
 803              		.loc 2 210 5
 211:src/../h/Riscv.hpp ****     return a2;
 804              		.loc 2 211 5
 211:src/../h/Riscv.hpp ****     return a2;
 805              		.loc 2 211 45 is_stmt 0
 806              	#APP
 807              	# 211 "src/../h/Riscv.hpp" 1
 808              		mv a5, a2
 809              	# 0 "" 2
 810              	#NO_APP
 811 02a4 2334F4F8 		sd	a5,-120(s0)
 212:src/../h/Riscv.hpp **** }
 812              		.loc 2 212 5 is_stmt 1
 212:src/../h/Riscv.hpp **** }
 813              		.loc 2 212 12 is_stmt 0
 814 02a8 833584F8 		ld	a1,-120(s0)
 815              	.LVL53:
 816              	.LBE150:
 817              	.LBE149:
 134:src/Riscv.cpp ****             asm volatile("mv a0,%0"::"r"(retval));
 818              		.loc 1 134 13 is_stmt 1
 134:src/Riscv.cpp ****             asm volatile("mv a0,%0"::"r"(retval));
 819              		.loc 1 134 41 is_stmt 0
 820 02ac 97000000 		call	_ZN4SemC9timedwaitEm@plt
 820      E7800000 
 821              	.LVL54:
 135:src/Riscv.cpp ****             break;
 822              		.loc 1 135 13 is_stmt 1
 135:src/Riscv.cpp ****             break;
 823              		.loc 1 135 50 is_stmt 0
 824              	#APP
 825              	# 135 "src/Riscv.cpp" 1
 136:src/Riscv.cpp ****         }
 826              		mv a0,a0
 827              	# 0 "" 2
 828              		.loc 1 136 13 is_stmt 1
 829              	#NO_APP
 830 02b8 6FF05FE0 		j	.L4
 831              	.LVL55:
 832              	.L9:
 833              	.LBE146:
 138:src/Riscv.cpp ****             sem_t handle=(sem_t)Riscv::r_a1();;
 834              		.loc 1 138 9
 138:src/Riscv.cpp ****             sem_t handle=(sem_t)Riscv::r_a1();;
 835              		.loc 1 138 31
 836              	.LBB151:
 139:src/Riscv.cpp ****             int retval=handle->trywait();
 837              		.loc 1 139 13
 838              	.LBB152:
 839              	.LBB153:
 205:src/../h/Riscv.hpp ****     __asm__ volatile ("mv %0, a1" :"=r"(a1));
 840              		.loc 2 205 5
GAS LISTING /tmp/ccjsL3AI.s 			page 26


 206:src/../h/Riscv.hpp ****     return a1;
 841              		.loc 2 206 5
 206:src/../h/Riscv.hpp ****     return a1;
 842              		.loc 2 206 45 is_stmt 0
 843              	#APP
 844              	# 206 "src/../h/Riscv.hpp" 1
 845              		mv a5, a1
 846              	# 0 "" 2
 847              	#NO_APP
 848 02c0 233CF4F8 		sd	a5,-104(s0)
 207:src/../h/Riscv.hpp **** }
 849              		.loc 2 207 5 is_stmt 1
 207:src/../h/Riscv.hpp **** }
 850              		.loc 2 207 12 is_stmt 0
 851 02c4 033584F9 		ld	a0,-104(s0)
 852              	.LVL56:
 853              	.LBE153:
 854              	.LBE152:
 139:src/Riscv.cpp ****             int retval=handle->trywait();
 855              		.loc 1 139 47 is_stmt 1
 140:src/Riscv.cpp ****             asm volatile("mv a0,%0"::"r"(retval));
 856              		.loc 1 140 13
 140:src/Riscv.cpp ****             asm volatile("mv a0,%0"::"r"(retval));
 857              		.loc 1 140 39 is_stmt 0
 858 02c8 97000000 		call	_ZN4SemC7trywaitEv@plt
 858      E7800000 
 859              	.LVL57:
 141:src/Riscv.cpp ****             break;
 860              		.loc 1 141 13 is_stmt 1
 141:src/Riscv.cpp ****             break;
 861              		.loc 1 141 50 is_stmt 0
 862              	#APP
 863              	# 141 "src/Riscv.cpp" 1
 142:src/Riscv.cpp ****         }
 864              		mv a0,a0
 865              	# 0 "" 2
 866              		.loc 1 142 13 is_stmt 1
 867              	#NO_APP
 868 02d4 6FF09FDE 		j	.L4
 869              	.LVL58:
 870              	.L8:
 871              	.LBE151:
 144:src/Riscv.cpp ****             time_t ticks=(time_t)Riscv::r_a1();
 872              		.loc 1 144 9
 144:src/Riscv.cpp ****             time_t ticks=(time_t)Riscv::r_a1();
 873              		.loc 1 144 25
 874              	.LBB154:
 145:src/Riscv.cpp ****             int retval;
 875              		.loc 1 145 13
 876              	.LBB155:
 877              	.LBB156:
 205:src/../h/Riscv.hpp ****     __asm__ volatile ("mv %0, a1" :"=r"(a1));
 878              		.loc 2 205 5
 206:src/../h/Riscv.hpp ****     return a1;
 879              		.loc 2 206 5
 206:src/../h/Riscv.hpp ****     return a1;
 880              		.loc 2 206 45 is_stmt 0
GAS LISTING /tmp/ccjsL3AI.s 			page 27


 881              	#APP
 882              	# 206 "src/../h/Riscv.hpp" 1
 883              		mv a5, a1
 884              	# 0 "" 2
 885              	#NO_APP
 886 02dc 2330F4FA 		sd	a5,-96(s0)
 207:src/../h/Riscv.hpp **** }
 887              		.loc 2 207 5 is_stmt 1
 207:src/../h/Riscv.hpp **** }
 888              		.loc 2 207 12 is_stmt 0
 889 02e0 833904FA 		ld	s3,-96(s0)
 890              	.LVL59:
 891              	.LBE156:
 892              	.LBE155:
 146:src/Riscv.cpp ****             if(ticks>0){
 893              		.loc 1 146 13 is_stmt 1
 147:src/Riscv.cpp ****                 SleepQueue& sl=SleepQueue::getSleepQueueInstance();
 894              		.loc 1 147 13
 895              	.LBB157:
 896 02e4 63980900 		bnez	s3,.L38
 153:src/Riscv.cpp ****             }
 897              		.loc 1 153 23 is_stmt 0
 898 02e8 9307F0FF 		li	a5,-1
 899              	.L24:
 900              	.LVL60:
 901              	.LBE157:
 155:src/Riscv.cpp ****             break;
 902              		.loc 1 155 13 is_stmt 1
 155:src/Riscv.cpp ****             break;
 903              		.loc 1 155 51 is_stmt 0
 904              	#APP
 905              	# 155 "src/Riscv.cpp" 1
 156:src/Riscv.cpp ****         }
 906              		mv a0, a5
 907              	# 0 "" 2
 908              		.loc 1 156 13 is_stmt 1
 909              	#NO_APP
 910 02f0 6FF0DFDC 		j	.L4
 911              	.LVL61:
 912              	.L38:
 913              	.LBB159:
 914              	.LBB158:
 148:src/Riscv.cpp ****                 sl.put(TCB::getRunning(),ticks);
 915              		.loc 1 148 17
 148:src/Riscv.cpp ****                 sl.put(TCB::getRunning(),ticks);
 916              		.loc 1 148 66 is_stmt 0
 917 02f4 97000000 		call	_ZN10SleepQueue21getSleepQueueInstanceEv@plt
 917      E7800000 
 918              	.LVL62:
 919 02fc 130A0500 		mv	s4,a0
 920              	.LVL63:
 149:src/Riscv.cpp ****                 retval=0;
 921              		.loc 1 149 17 is_stmt 1
 149:src/Riscv.cpp ****                 retval=0;
 922              		.loc 1 149 23 is_stmt 0
 923 0300 97000000 		call	_ZN3TCB10getRunningEv@plt
 923      E7800000 
GAS LISTING /tmp/ccjsL3AI.s 			page 28


 924              	.LVL64:
 925 0308 93050500 		mv	a1,a0
 926 030c 13860900 		mv	a2,s3
 927 0310 13050A00 		mv	a0,s4
 928 0314 97000000 		call	_ZN10SleepQueue3putEP3TCBm@plt
 928      E7800000 
 929              	.LVL65:
 150:src/Riscv.cpp ****             }
 930              		.loc 1 150 17 is_stmt 1
 150:src/Riscv.cpp ****             }
 931              		.loc 1 150 23 is_stmt 0
 932 031c 93070000 		li	a5,0
 933              	.LBE158:
 934 0320 6FF0DFFC 		j	.L24
 935              	.LVL66:
 936              	.L7:
 937              	.LBE159:
 938              	.LBE154:
 158:src/Riscv.cpp ****             KernelConsole &console=KernelConsole::getConsoleInstance();
 939              		.loc 1 158 9 is_stmt 1
 158:src/Riscv.cpp ****             KernelConsole &console=KernelConsole::getConsoleInstance();
 940              		.loc 1 158 24
 941              	.LBB160:
 159:src/Riscv.cpp ****             char retval=console.getCharIn();
 942              		.loc 1 159 13
 159:src/Riscv.cpp ****             char retval=console.getCharIn();
 943              		.loc 1 159 70 is_stmt 0
 944 0324 97000000 		call	_ZN13KernelConsole18getConsoleInstanceEv@plt
 944      E7800000 
 945              	.LVL67:
 160:src/Riscv.cpp ****             asm volatile("mv a0, %0"::"r"(retval));
 946              		.loc 1 160 13 is_stmt 1
 160:src/Riscv.cpp ****             asm volatile("mv a0, %0"::"r"(retval));
 947              		.loc 1 160 42 is_stmt 0
 948 032c 97000000 		call	_ZN13KernelConsole9getCharInEv@plt
 948      E7800000 
 949              	.LVL68:
 161:src/Riscv.cpp ****             break;
 950              		.loc 1 161 13 is_stmt 1
 161:src/Riscv.cpp ****             break;
 951              		.loc 1 161 51 is_stmt 0
 952              	#APP
 953              	# 161 "src/Riscv.cpp" 1
 162:src/Riscv.cpp ****         }
 954              		mv a0, a0
 955              	# 0 "" 2
 956              		.loc 1 162 13 is_stmt 1
 957              	#NO_APP
 958 0338 6FF05FD8 		j	.L4
 959              	.LVL69:
 960              	.L5:
 961              	.LBE160:
 164:src/Riscv.cpp ****             char c=(char)Riscv::r_a1();
 962              		.loc 1 164 9
 164:src/Riscv.cpp ****             char c=(char)Riscv::r_a1();
 963              		.loc 1 164 24
 964              	.LBB161:
GAS LISTING /tmp/ccjsL3AI.s 			page 29


 165:src/Riscv.cpp ****             KernelConsole &console=KernelConsole::getConsoleInstance();
 965              		.loc 1 165 13
 966              	.LBB162:
 967              	.LBB163:
 205:src/../h/Riscv.hpp ****     __asm__ volatile ("mv %0, a1" :"=r"(a1));
 968              		.loc 2 205 5
 206:src/../h/Riscv.hpp ****     return a1;
 969              		.loc 2 206 5
 206:src/../h/Riscv.hpp ****     return a1;
 970              		.loc 2 206 45 is_stmt 0
 971              	#APP
 972              	# 206 "src/../h/Riscv.hpp" 1
 973              		mv a5, a1
 974              	# 0 "" 2
 975              	#NO_APP
 976 0340 2334F4FA 		sd	a5,-88(s0)
 207:src/../h/Riscv.hpp **** }
 977              		.loc 2 207 5 is_stmt 1
 207:src/../h/Riscv.hpp **** }
 978              		.loc 2 207 12 is_stmt 0
 979 0344 833984FA 		ld	s3,-88(s0)
 980              	.LBE163:
 981              	.LBE162:
 165:src/Riscv.cpp ****             KernelConsole &console=KernelConsole::getConsoleInstance();
 982              		.loc 1 165 38
 983 0348 93F9F90F 		andi	s3,s3,0xff
 984              	.LVL70:
 166:src/Riscv.cpp **** 
 985              		.loc 1 166 13 is_stmt 1
 166:src/Riscv.cpp **** 
 986              		.loc 1 166 70 is_stmt 0
 987 034c 97000000 		call	_ZN13KernelConsole18getConsoleInstanceEv@plt
 987      E7800000 
 988              	.LVL71:
 168:src/Riscv.cpp ****             break;
 989              		.loc 1 168 13 is_stmt 1
 168:src/Riscv.cpp ****             break;
 990              		.loc 1 168 31 is_stmt 0
 991 0354 93850900 		mv	a1,s3
 992 0358 97000000 		call	_ZN13KernelConsole10putCharOutEc@plt
 992      E7800000 
 993              	.LVL72:
 994              	.LEHE4:
 169:src/Riscv.cpp ****         }
 995              		.loc 1 169 13 is_stmt 1
 996 0360 6FF0DFD5 		j	.L4
 997              	.LVL73:
 998              	.L31:
 999 0364 93040500 		mv	s1,a0
 1000              	.LVL74:
 1001              	.LBE161:
 1002              	.LBB164:
  71:src/Riscv.cpp ****             *handle=createdThread;
 1003              		.loc 1 71 57 is_stmt 0
 1004 0368 13850900 		mv	a0,s3
 1005 036c 97000000 		call	_ZN3TCBdlEPv@plt
 1005      E7800000 
GAS LISTING /tmp/ccjsL3AI.s 			page 30


 1006              	.LVL75:
 1007 0374 13850400 		mv	a0,s1
 1008              	.LEHB5:
 1009 0378 97000000 		call	_Unwind_Resume@plt
 1009      E7800000 
 1010              	.LVL76:
 1011              	.LEHE5:
 1012              	.L32:
 1013 0380 93040500 		mv	s1,a0
 1014              	.LVL77:
 1015              	.LBE164:
 1016              	.LBB165:
  97:src/Riscv.cpp ****             *handle=createdSem;
 1017              		.loc 1 97 42
 1018 0384 13850900 		mv	a0,s3
 1019 0388 97000000 		call	_ZN4SemCdlEPv@plt
 1019      E7800000 
 1020              	.LVL78:
 1021 0390 13850400 		mv	a0,s1
 1022              	.LEHB6:
 1023 0394 97000000 		call	_Unwind_Resume@plt
 1023      E7800000 
 1024              	.LVL79:
 1025              	.LEHE6:
 1026              	.LBE165:
 1027              	.LBE166:
 1028              	.LBE171:
 1029              		.cfi_endproc
 1030              	.LFE34:
 1031              		.globl	__gxx_personality_v0
 1032              		.section	.gcc_except_table,"a",@progbits
 1033              	.LLSDA34:
 1034 0000 FF       		.byte	0xff
 1035 0001 FF       		.byte	0xff
 1036 0002 03       		.byte	0x3
 1037 0003 5B       		.byte	0x5b
 1038 0004 00000000 		.4byte	.LEHB0-.LFB34
 1039 0008 00000000 		.4byte	.LEHE0-.LEHB0
 1040 000c 00000000 		.4byte	0
 1041 0010 00       		.byte	0
 1042 0011 00000000 		.4byte	.LEHB1-.LFB34
 1043 0015 00000000 		.4byte	.LEHE1-.LEHB1
 1044 0019 00000000 		.4byte	.L31-.LFB34
 1045 001d 00       		.byte	0
 1046 001e 00000000 		.4byte	.LEHB2-.LFB34
 1047 0022 00000000 		.4byte	.LEHE2-.LEHB2
 1048 0026 00000000 		.4byte	0
 1049 002a 00       		.byte	0
 1050 002b 00000000 		.4byte	.LEHB3-.LFB34
 1051 002f 00000000 		.4byte	.LEHE3-.LEHB3
 1052 0033 00000000 		.4byte	.L32-.LFB34
 1053 0037 00       		.byte	0
 1054 0038 00000000 		.4byte	.LEHB4-.LFB34
 1055 003c 00000000 		.4byte	.LEHE4-.LEHB4
 1056 0040 00000000 		.4byte	0
 1057 0044 00       		.byte	0
 1058 0045 00000000 		.4byte	.LEHB5-.LFB34
GAS LISTING /tmp/ccjsL3AI.s 			page 31


 1059 0049 00000000 		.4byte	.LEHE5-.LEHB5
 1060 004d 00000000 		.4byte	0
 1061 0051 00       		.byte	0
 1062 0052 00000000 		.4byte	.LEHB6-.LFB34
 1063 0056 00000000 		.4byte	.LEHE6-.LEHB6
 1064 005a 00000000 		.4byte	0
 1065 005e 00       		.byte	0
 1066              		.text
 1068              		.align	2
 1069              		.globl	_ZN5Riscv11handleTimerEv
 1071              	_ZN5Riscv11handleTimerEv:
 1072              	.LFB35:
 175:src/Riscv.cpp **** 
 176:src/Riscv.cpp **** void Riscv::handleTimer() {
 1073              		.loc 1 176 27 is_stmt 1
 1074              		.cfi_startproc
 1075 039c 130101FC 		addi	sp,sp,-64
 1076              		.cfi_def_cfa_offset 64
 1077 03a0 233C1102 		sd	ra,56(sp)
 1078 03a4 23388102 		sd	s0,48(sp)
 1079 03a8 23349102 		sd	s1,40(sp)
 1080              		.cfi_offset 1, -8
 1081              		.cfi_offset 8, -16
 1082              		.cfi_offset 9, -24
 1083 03ac 13040104 		addi	s0,sp,64
 1084              		.cfi_def_cfa 8, 0
 177:src/Riscv.cpp ****     Riscv::mc_sip(Riscv::SIP_SSIP);
 1085              		.loc 1 177 5
 1086              	.LVL80:
 1087              	.LBB172:
 1088              	.LBB173:
 156:src/../h/Riscv.hpp **** }
 1089              		.loc 2 156 5
 156:src/../h/Riscv.hpp **** }
 1090              		.loc 2 156 64 is_stmt 0
 1091 03b0 93072000 		li	a5,2
 1092              	#APP
 1093              	# 156 "src/../h/Riscv.hpp" 1
 1094              		csrc sip, a5
 1095              	# 0 "" 2
 1096              	.LVL81:
 1097              	#NO_APP
 1098              	.LBE173:
 1099              	.LBE172:
 178:src/Riscv.cpp ****     TCB::incTimeSlicePassed();
 1100              		.loc 1 178 5 is_stmt 1
 1101              		.loc 1 178 28 is_stmt 0
 1102 03b8 97000000 		call	_ZN3TCB18incTimeSlicePassedEv@plt
 1102      E7800000 
 1103              	.LVL82:
 179:src/Riscv.cpp ****     uint64 volatile sepc;
 1104              		.loc 1 179 5 is_stmt 1
 180:src/Riscv.cpp ****     uint64 volatile sstatus;
 1105              		.loc 1 180 5
 181:src/Riscv.cpp ****     Riscv::disable_external_interrupts();
 1106              		.loc 1 181 5
 1107              	.LBB174:
GAS LISTING /tmp/ccjsL3AI.s 			page 32


 1108              	.LBB175:
 192:src/../h/Riscv.hpp ****     asm volatile("csrc sie, %0"::"r"(t));
 1109              		.loc 2 192 5
 193:src/../h/Riscv.hpp **** }
 1110              		.loc 2 193 5
 193:src/../h/Riscv.hpp **** }
 1111              		.loc 2 193 41 is_stmt 0
 1112 03c0 93070020 		li	a5,512
 1113              	#APP
 1114              	# 193 "src/../h/Riscv.hpp" 1
 1115              		csrc sie, a5
 1116              	# 0 "" 2
 1117              	#NO_APP
 1118              	.LBE175:
 1119              	.LBE174:
 182:src/Riscv.cpp ****     sepc=Riscv::r_sepc()-4;
 1120              		.loc 1 182 5 is_stmt 1
 1121              	.LBB176:
 1122              	.LBB177:
 115:src/../h/Riscv.hpp ****     __asm__ volatile ("csrr %[sepc], sepc" : [sepc] "=r"(sepc));
 1123              		.loc 2 115 5
 116:src/../h/Riscv.hpp ****     return sepc;
 1124              		.loc 2 116 5
 116:src/../h/Riscv.hpp ****     return sepc;
 1125              		.loc 2 116 64 is_stmt 0
 1126              	#APP
 1127              	# 116 "src/../h/Riscv.hpp" 1
 1128              		csrr a5, sepc
 1129              	# 0 "" 2
 1130              	#NO_APP
 1131 03cc 2334F4FC 		sd	a5,-56(s0)
 117:src/../h/Riscv.hpp **** }
 1132              		.loc 2 117 5 is_stmt 1
 117:src/../h/Riscv.hpp **** }
 1133              		.loc 2 117 12 is_stmt 0
 1134 03d0 833784FC 		ld	a5,-56(s0)
 1135              	.LBE177:
 1136              	.LBE176:
 1137              		.loc 1 182 25
 1138 03d4 9387C7FF 		addi	a5,a5,-4
 1139              		.loc 1 182 9
 1140 03d8 233CF4FC 		sd	a5,-40(s0)
 183:src/Riscv.cpp ****     sstatus=Riscv::r_sstatus();
 1141              		.loc 1 183 5 is_stmt 1
 1142              	.LBB178:
 1143              	.LBB179:
 183:src/../h/Riscv.hpp ****     __asm__ volatile ("csrr %[sstatus], sstatus" : [sstatus] "=r"(sstatus));
 1144              		.loc 2 183 5
 184:src/../h/Riscv.hpp ****     return sstatus;
 1145              		.loc 2 184 5
 184:src/../h/Riscv.hpp ****     return sstatus;
 1146              		.loc 2 184 76 is_stmt 0
 1147              	#APP
 1148              	# 184 "src/../h/Riscv.hpp" 1
 1149              		csrr a5, sstatus
 1150              	# 0 "" 2
 1151              	#NO_APP
GAS LISTING /tmp/ccjsL3AI.s 			page 33


 1152 03e0 2330F4FC 		sd	a5,-64(s0)
 185:src/../h/Riscv.hpp **** }
 1153              		.loc 2 185 5 is_stmt 1
 185:src/../h/Riscv.hpp **** }
 1154              		.loc 2 185 12 is_stmt 0
 1155 03e4 833704FC 		ld	a5,-64(s0)
 1156              	.LBE179:
 1157              	.LBE178:
 1158              		.loc 1 183 12
 1159 03e8 2338F4FC 		sd	a5,-48(s0)
 184:src/Riscv.cpp ****     if(TCB::getTimeSlicePassed()>=TCB::getRunning()->getTimeSlice()){
 1160              		.loc 1 184 5 is_stmt 1
 1161              		.loc 1 184 31 is_stmt 0
 1162 03ec 97000000 		call	_ZN3TCB18getTimeSlicePassedEv@plt
 1162      E7800000 
 1163              	.LVL83:
 1164 03f4 93040500 		mv	s1,a0
 1165              		.loc 1 184 66
 1166 03f8 97000000 		call	_ZN3TCB10getRunningEv@plt
 1166      E7800000 
 1167              	.LVL84:
 1168 0400 97000000 		call	_ZNK3TCB12getTimeSliceEv@plt
 1168      E7800000 
 1169              	.LVL85:
 1170              		.loc 1 184 5
 1171 0408 63FCA402 		bgeu	s1,a0,.L42
 1172              	.L40:
 185:src/Riscv.cpp ****         TCB::dispatch();
 186:src/Riscv.cpp ****         Riscv::w_sepc(sepc);
 187:src/Riscv.cpp ****         Riscv::w_sstatus(sstatus);
 188:src/Riscv.cpp ****     }
 189:src/Riscv.cpp ****     Riscv::w_sepc(sepc);
 1173              		.loc 1 189 5 is_stmt 1
 1174              		.loc 1 189 18 is_stmt 0
 1175 040c 833784FD 		ld	a5,-40(s0)
 1176              	.LVL86:
 1177              	.LBB180:
 1178              	.LBB181:
 122:src/../h/Riscv.hpp **** }
 1179              		.loc 2 122 5 is_stmt 1
 122:src/../h/Riscv.hpp **** }
 1180              		.loc 2 122 65 is_stmt 0
 1181              	#APP
 1182              	# 122 "src/../h/Riscv.hpp" 1
 1183              		csrw sepc, a5
 1184              	# 0 "" 2
 1185              	.LVL87:
 1186              	#NO_APP
 1187              	.LBE181:
 1188              	.LBE180:
 190:src/Riscv.cpp ****     Riscv::w_sstatus(sstatus);
 1189              		.loc 1 190 5 is_stmt 1
 1190              		.loc 1 190 21 is_stmt 0
 1191 0414 833704FD 		ld	a5,-48(s0)
 1192              	.LVL88:
 1193              	.LBB182:
 1194              	.LBB183:
GAS LISTING /tmp/ccjsL3AI.s 			page 34


 197:src/../h/Riscv.hpp **** }
 1195              		.loc 2 197 5 is_stmt 1
 197:src/../h/Riscv.hpp **** }
 1196              		.loc 2 197 77 is_stmt 0
 1197              	#APP
 1198              	# 197 "src/../h/Riscv.hpp" 1
 1199              		csrw sstatus, a5
 1200              	# 0 "" 2
 1201              	.LVL89:
 1202              	#NO_APP
 1203              	.LBE183:
 1204              	.LBE182:
 191:src/Riscv.cpp ****     SleepQueue& sl=SleepQueue::getSleepQueueInstance();
 1205              		.loc 1 191 5 is_stmt 1
 1206              		.loc 1 191 54 is_stmt 0
 1207 041c 97000000 		call	_ZN10SleepQueue21getSleepQueueInstanceEv@plt
 1207      E7800000 
 1208              	.LVL90:
 192:src/Riscv.cpp ****     sl.updateTick();
 1209              		.loc 1 192 5 is_stmt 1
 1210              		.loc 1 192 18 is_stmt 0
 1211 0424 97000000 		call	_ZN10SleepQueue10updateTickEv@plt
 1211      E7800000 
 1212              	.LVL91:
 193:src/Riscv.cpp **** }
 1213              		.loc 1 193 1
 1214 042c 83308103 		ld	ra,56(sp)
 1215              		.cfi_remember_state
 1216              		.cfi_restore 1
 1217 0430 03340103 		ld	s0,48(sp)
 1218              		.cfi_restore 8
 1219              		.cfi_def_cfa 2, 64
 1220 0434 83348102 		ld	s1,40(sp)
 1221              		.cfi_restore 9
 1222 0438 13010104 		addi	sp,sp,64
 1223              		.cfi_def_cfa_offset 0
 1224 043c 67800000 		jr	ra
 1225              	.L42:
 1226              		.cfi_restore_state
 185:src/Riscv.cpp ****         Riscv::w_sepc(sepc);
 1227              		.loc 1 185 9 is_stmt 1
 185:src/Riscv.cpp ****         Riscv::w_sepc(sepc);
 1228              		.loc 1 185 22 is_stmt 0
 1229 0440 97000000 		call	_ZN3TCB8dispatchEv@plt
 1229      E7800000 
 1230              	.LVL92:
 186:src/Riscv.cpp ****         Riscv::w_sstatus(sstatus);
 1231              		.loc 1 186 9 is_stmt 1
 186:src/Riscv.cpp ****         Riscv::w_sstatus(sstatus);
 1232              		.loc 1 186 22 is_stmt 0
 1233 0448 833784FD 		ld	a5,-40(s0)
 1234              	.LVL93:
 1235              	.LBB184:
 1236              	.LBB185:
 122:src/../h/Riscv.hpp **** }
 1237              		.loc 2 122 5 is_stmt 1
 122:src/../h/Riscv.hpp **** }
GAS LISTING /tmp/ccjsL3AI.s 			page 35


 1238              		.loc 2 122 65 is_stmt 0
 1239              	#APP
 1240              	# 122 "src/../h/Riscv.hpp" 1
 1241              		csrw sepc, a5
 1242              	# 0 "" 2
 1243              	.LVL94:
 1244              	#NO_APP
 1245              	.LBE185:
 1246              	.LBE184:
 187:src/Riscv.cpp ****     }
 1247              		.loc 1 187 9 is_stmt 1
 187:src/Riscv.cpp ****     }
 1248              		.loc 1 187 25 is_stmt 0
 1249 0450 833704FD 		ld	a5,-48(s0)
 1250              	.LVL95:
 1251              	.LBB186:
 1252              	.LBB187:
 197:src/../h/Riscv.hpp **** }
 1253              		.loc 2 197 5 is_stmt 1
 197:src/../h/Riscv.hpp **** }
 1254              		.loc 2 197 77 is_stmt 0
 1255              	#APP
 1256              	# 197 "src/../h/Riscv.hpp" 1
 198:src/../h/Riscv.hpp **** inline uint64 Riscv::r_a0() {
 1257              		csrw sstatus, a5
 1258              	# 0 "" 2
 1259              		.loc 2 198 1
 1260              	#NO_APP
 1261 0458 6FF05FFB 		j	.L40
 1262              	.LBE187:
 1263              	.LBE186:
 1264              		.cfi_endproc
 1265              	.LFE35:
 1267              		.align	2
 1268              		.globl	_ZN5Riscv13handleConsoleEv
 1270              	_ZN5Riscv13handleConsoleEv:
 1271              	.LFB36:
 194:src/Riscv.cpp **** 
 195:src/Riscv.cpp **** void Riscv::handleConsole() {
 1272              		.loc 1 195 29 is_stmt 1
 1273              		.cfi_startproc
 1274 045c 130101FB 		addi	sp,sp,-80
 1275              		.cfi_def_cfa_offset 80
 1276 0460 23341104 		sd	ra,72(sp)
 1277 0464 23308104 		sd	s0,64(sp)
 1278 0468 233C9102 		sd	s1,56(sp)
 1279              		.cfi_offset 1, -8
 1280              		.cfi_offset 8, -16
 1281              		.cfi_offset 9, -24
 1282 046c 13040105 		addi	s0,sp,80
 1283              		.cfi_def_cfa 8, 0
 196:src/Riscv.cpp ****     uint64 volatile sepc;
 1284              		.loc 1 196 5
 197:src/Riscv.cpp ****     uint64 volatile sstatus;
 1285              		.loc 1 197 5
 198:src/Riscv.cpp ****     sepc=Riscv::r_sepc()-4;
 1286              		.loc 1 198 5
GAS LISTING /tmp/ccjsL3AI.s 			page 36


 1287              	.LBB188:
 1288              	.LBB189:
 115:src/../h/Riscv.hpp ****     __asm__ volatile ("csrr %[sepc], sepc" : [sepc] "=r"(sepc));
 1289              		.loc 2 115 5
 116:src/../h/Riscv.hpp ****     return sepc;
 1290              		.loc 2 116 5
 116:src/../h/Riscv.hpp ****     return sepc;
 1291              		.loc 2 116 64 is_stmt 0
 1292              	#APP
 1293              	# 116 "src/../h/Riscv.hpp" 1
 1294              		csrr a5, sepc
 1295              	# 0 "" 2
 1296              	#NO_APP
 1297 0474 2334F4FC 		sd	a5,-56(s0)
 117:src/../h/Riscv.hpp **** }
 1298              		.loc 2 117 5 is_stmt 1
 117:src/../h/Riscv.hpp **** }
 1299              		.loc 2 117 12 is_stmt 0
 1300 0478 833784FC 		ld	a5,-56(s0)
 1301              	.LBE189:
 1302              	.LBE188:
 1303              		.loc 1 198 25
 1304 047c 9387C7FF 		addi	a5,a5,-4
 1305              		.loc 1 198 9
 1306 0480 233CF4FC 		sd	a5,-40(s0)
 199:src/Riscv.cpp ****     sstatus=Riscv::r_sstatus();
 1307              		.loc 1 199 5 is_stmt 1
 1308              	.LBB190:
 1309              	.LBB191:
 183:src/../h/Riscv.hpp ****     __asm__ volatile ("csrr %[sstatus], sstatus" : [sstatus] "=r"(sstatus));
 1310              		.loc 2 183 5
 184:src/../h/Riscv.hpp ****     return sstatus;
 1311              		.loc 2 184 5
 184:src/../h/Riscv.hpp ****     return sstatus;
 1312              		.loc 2 184 76 is_stmt 0
 1313              	#APP
 1314              	# 184 "src/../h/Riscv.hpp" 1
 1315              		csrr a5, sstatus
 1316              	# 0 "" 2
 1317              	#NO_APP
 1318 0488 2330F4FC 		sd	a5,-64(s0)
 185:src/../h/Riscv.hpp **** }
 1319              		.loc 2 185 5 is_stmt 1
 185:src/../h/Riscv.hpp **** }
 1320              		.loc 2 185 12 is_stmt 0
 1321 048c 833704FC 		ld	a5,-64(s0)
 1322              	.LBE191:
 1323              	.LBE190:
 1324              		.loc 1 199 12
 1325 0490 2338F4FC 		sd	a5,-48(s0)
 200:src/Riscv.cpp ****     if(plic_claim()!=CONSOLE_IRQ){
 1326              		.loc 1 200 5 is_stmt 1
 1327              		.loc 1 200 18 is_stmt 0
 1328 0494 97000000 		call	plic_claim@plt
 1328      E7800000 
 1329              	.LVL96:
 1330              		.loc 1 200 5
GAS LISTING /tmp/ccjsL3AI.s 			page 37


 1331 049c 9307A000 		li	a5,10
 1332 04a0 6304F502 		beq	a0,a5,.L44
 201:src/Riscv.cpp ****         Riscv::w_sepc(sepc);
 1333              		.loc 1 201 9 is_stmt 1
 1334              		.loc 1 201 22 is_stmt 0
 1335 04a4 833784FD 		ld	a5,-40(s0)
 1336              	.LVL97:
 1337              	.LBB192:
 1338              	.LBB193:
 122:src/../h/Riscv.hpp **** }
 1339              		.loc 2 122 5 is_stmt 1
 122:src/../h/Riscv.hpp **** }
 1340              		.loc 2 122 65 is_stmt 0
 1341              	#APP
 1342              	# 122 "src/../h/Riscv.hpp" 1
 1343              		csrw sepc, a5
 1344              	# 0 "" 2
 1345              	.LVL98:
 1346              	#NO_APP
 1347              	.LBE193:
 1348              	.LBE192:
 202:src/Riscv.cpp ****         Riscv::w_sstatus(sstatus);
 1349              		.loc 1 202 9 is_stmt 1
 1350              		.loc 1 202 25 is_stmt 0
 1351 04ac 833704FD 		ld	a5,-48(s0)
 1352              	.LVL99:
 1353              	.LBB194:
 1354              	.LBB195:
 197:src/../h/Riscv.hpp **** }
 1355              		.loc 2 197 5 is_stmt 1
 197:src/../h/Riscv.hpp **** }
 1356              		.loc 2 197 77 is_stmt 0
 1357              	#APP
 1358              	# 197 "src/../h/Riscv.hpp" 1
 1359              		csrw sstatus, a5
 1360              	# 0 "" 2
 1361              	.LVL100:
 1362              	#NO_APP
 1363              	.LBE195:
 1364              	.LBE194:
 203:src/Riscv.cpp ****         return;
 1365              		.loc 1 203 9 is_stmt 1
 1366              	.L43:
 204:src/Riscv.cpp ****     }
 205:src/Riscv.cpp ****     KernelConsole& console=KernelConsole::getConsoleInstance();
 206:src/Riscv.cpp ****     while(*((char*)CONSOLE_STATUS)&CONSOLE_RX_STATUS_BIT){
 207:src/Riscv.cpp ****         volatile char c=*((char*)(CONSOLE_TX_DATA));
 208:src/Riscv.cpp ****         if(console.slotsIn()){
 209:src/Riscv.cpp ****             console.putCharIn(c);
 210:src/Riscv.cpp ****         }
 211:src/Riscv.cpp ****     }
 212:src/Riscv.cpp ****     plic_complete(CONSOLE_IRQ);
 213:src/Riscv.cpp ****     Riscv::w_sepc(sepc);
 214:src/Riscv.cpp ****     Riscv::w_sstatus(sstatus);
 215:src/Riscv.cpp ****     Riscv::disable_external_interrupts();
 216:src/Riscv.cpp **** }...
 1367              		.loc 1 216 1 is_stmt 0
GAS LISTING /tmp/ccjsL3AI.s 			page 38


 1368 04b4 83308104 		ld	ra,72(sp)
 1369              		.cfi_remember_state
 1370              		.cfi_restore 1
 1371 04b8 03340104 		ld	s0,64(sp)
 1372              		.cfi_restore 8
 1373              		.cfi_def_cfa 2, 80
 1374 04bc 83348103 		ld	s1,56(sp)
 1375              		.cfi_restore 9
 1376 04c0 13010105 		addi	sp,sp,80
 1377              		.cfi_def_cfa_offset 0
 1378 04c4 67800000 		jr	ra
 1379              	.L44:
 1380              		.cfi_restore_state
 205:src/Riscv.cpp ****     KernelConsole& console=KernelConsole::getConsoleInstance();
 1381              		.loc 1 205 5 is_stmt 1
 205:src/Riscv.cpp ****     KernelConsole& console=KernelConsole::getConsoleInstance();
 1382              		.loc 1 205 62 is_stmt 0
 1383 04c8 97000000 		call	_ZN13KernelConsole18getConsoleInstanceEv@plt
 1383      E7800000 
 1384              	.LVL101:
 1385 04d0 93040500 		mv	s1,a0
 1386              	.LVL102:
 1387              	.L47:
 206:src/Riscv.cpp ****     while(*((char*)CONSOLE_STATUS)&CONSOLE_RX_STATUS_BIT){
 1388              		.loc 1 206 5 is_stmt 1
 206:src/Riscv.cpp ****     while(*((char*)CONSOLE_STATUS)&CONSOLE_RX_STATUS_BIT){
 1389              		.loc 1 206 36
 206:src/Riscv.cpp ****     while(*((char*)CONSOLE_STATUS)&CONSOLE_RX_STATUS_BIT){
 1390              		.loc 1 206 11 is_stmt 0
 1391 04d4 97070000 		la	a5,CONSOLE_STATUS
 1391      83B70700 
 1392 04dc 83B70700 		ld	a5,0(a5)
 1393 04e0 83C70700 		lbu	a5,0(a5)
 206:src/Riscv.cpp ****     while(*((char*)CONSOLE_STATUS)&CONSOLE_RX_STATUS_BIT){
 1394              		.loc 1 206 36
 1395 04e4 93F71700 		andi	a5,a5,1
 1396 04e8 63800704 		beqz	a5,.L46
 1397              	.LBB196:
 207:src/Riscv.cpp ****         volatile char c=*((char*)(CONSOLE_TX_DATA));
 1398              		.loc 1 207 9 is_stmt 1
 207:src/Riscv.cpp ****         volatile char c=*((char*)(CONSOLE_TX_DATA));
 1399              		.loc 1 207 25 is_stmt 0
 1400 04ec 97070000 		la	a5,CONSOLE_TX_DATA
 1400      83B70700 
 1401 04f4 83B70700 		ld	a5,0(a5)
 1402 04f8 83C70700 		lbu	a5,0(a5)
 207:src/Riscv.cpp ****         volatile char c=*((char*)(CONSOLE_TX_DATA));
 1403              		.loc 1 207 23
 1404 04fc A30FF4FA 		sb	a5,-65(s0)
 208:src/Riscv.cpp ****         if(console.slotsIn()){
 1405              		.loc 1 208 9 is_stmt 1
 208:src/Riscv.cpp ****         if(console.slotsIn()){
 1406              		.loc 1 208 27 is_stmt 0
 1407 0500 13850400 		mv	a0,s1
 1408 0504 97000000 		call	_ZNK13KernelConsole7slotsInEv@plt
 1408      E7800000 
 1409              	.LVL103:
GAS LISTING /tmp/ccjsL3AI.s 			page 39


 208:src/Riscv.cpp ****         if(console.slotsIn()){
 1410              		.loc 1 208 9
 1411 050c E30405FC 		beqz	a0,.L47
 209:src/Riscv.cpp ****             console.putCharIn(c);
 1412              		.loc 1 209 13 is_stmt 1
 209:src/Riscv.cpp ****             console.putCharIn(c);
 1413              		.loc 1 209 30 is_stmt 0
 1414 0510 8345F4FB 		lbu	a1,-65(s0)
 1415 0514 93F5F50F 		andi	a1,a1,0xff
 1416 0518 13850400 		mv	a0,s1
 1417 051c 97000000 		call	_ZN13KernelConsole9putCharInEc@plt
 1417      E7800000 
 1418              	.LVL104:
 1419 0524 6FF01FFB 		j	.L47
 1420              	.L46:
 1421              	.LBE196:
 212:src/Riscv.cpp ****     plic_complete(CONSOLE_IRQ);
 1422              		.loc 1 212 5 is_stmt 1
 212:src/Riscv.cpp ****     plic_complete(CONSOLE_IRQ);
 1423              		.loc 1 212 18 is_stmt 0
 1424 0528 1305A000 		li	a0,10
 1425 052c 97000000 		call	plic_complete@plt
 1425      E7800000 
 1426              	.LVL105:
 213:src/Riscv.cpp ****     Riscv::w_sepc(sepc);
 1427              		.loc 1 213 5 is_stmt 1
 213:src/Riscv.cpp ****     Riscv::w_sepc(sepc);
 1428              		.loc 1 213 18 is_stmt 0
 1429 0534 833784FD 		ld	a5,-40(s0)
 1430              	.LVL106:
 1431              	.LBB197:
 1432              	.LBB198:
 122:src/../h/Riscv.hpp **** }
 1433              		.loc 2 122 5 is_stmt 1
 122:src/../h/Riscv.hpp **** }
 1434              		.loc 2 122 65 is_stmt 0
 1435              	#APP
 1436              	# 122 "src/../h/Riscv.hpp" 1
 1437              		csrw sepc, a5
 1438              	# 0 "" 2
 1439              	.LVL107:
 1440              	#NO_APP
 1441              	.LBE198:
 1442              	.LBE197:
 214:src/Riscv.cpp ****     Riscv::w_sstatus(sstatus);
 1443              		.loc 1 214 5 is_stmt 1
 214:src/Riscv.cpp ****     Riscv::w_sstatus(sstatus);
 1444              		.loc 1 214 21 is_stmt 0
 1445 053c 833704FD 		ld	a5,-48(s0)
 1446              	.LVL108:
 1447              	.LBB199:
 1448              	.LBB200:
 197:src/../h/Riscv.hpp **** }
 1449              		.loc 2 197 5 is_stmt 1
 197:src/../h/Riscv.hpp **** }
 1450              		.loc 2 197 77 is_stmt 0
 1451              	#APP
GAS LISTING /tmp/ccjsL3AI.s 			page 40


 1452              	# 197 "src/../h/Riscv.hpp" 1
 1453              		csrw sstatus, a5
 1454              	# 0 "" 2
 1455              	.LVL109:
 1456              	#NO_APP
 1457              	.LBE200:
 1458              	.LBE199:
 215:src/Riscv.cpp ****     Riscv::disable_external_interrupts();
 1459              		.loc 1 215 5 is_stmt 1
 1460              	.LBB201:
 1461              	.LBB202:
 192:src/../h/Riscv.hpp ****     asm volatile("csrc sie, %0"::"r"(t));
 1462              		.loc 2 192 5
 193:src/../h/Riscv.hpp **** }
 1463              		.loc 2 193 5
 193:src/../h/Riscv.hpp **** }
 1464              		.loc 2 193 41 is_stmt 0
 1465 0544 93070020 		li	a5,512
 1466              	#APP
 1467              	# 193 "src/../h/Riscv.hpp" 1
 194:src/../h/Riscv.hpp **** inline void Riscv::w_sstatus(uint64 sstatus)
 1468              		csrc sie, a5
 1469              	# 0 "" 2
 1470              		.loc 2 194 1
 1471              	#NO_APP
 1472 054c 6FF09FF6 		j	.L43
 1473              	.LBE202:
 1474              	.LBE201:
 1475              		.cfi_endproc
 1476              	.LFE36:
 1478              		.align	2
 1479              		.globl	_ZN5Riscv4trapEv
 1481              	_ZN5Riscv4trapEv:
 1482              	.LFB33:
  12:src/Riscv.cpp **** void Riscv::trap() {
 1483              		.loc 1 12 20 is_stmt 1
 1484              		.cfi_startproc
 1485 0550 130101FE 		addi	sp,sp,-32
 1486              		.cfi_def_cfa_offset 32
 1487 0554 233C1100 		sd	ra,24(sp)
 1488 0558 23388100 		sd	s0,16(sp)
 1489              		.cfi_offset 1, -8
 1490              		.cfi_offset 8, -16
 1491 055c 13040102 		addi	s0,sp,32
 1492              		.cfi_def_cfa 8, 0
  13:src/Riscv.cpp ****     uint64 cause;
 1493              		.loc 1 13 5
  14:src/Riscv.cpp ****     asm volatile("mv a7, a4");
 1494              		.loc 1 14 5
  14:src/Riscv.cpp ****     asm volatile("mv a7, a4");
 1495              		.loc 1 14 30 is_stmt 0
 1496              	#APP
 1497              	# 14 "src/Riscv.cpp" 1
  15:src/Riscv.cpp ****     cause=Riscv::r_scause();
 1498              		mv a7, a4
 1499              	# 0 "" 2
 1500              		.loc 1 15 5 is_stmt 1
GAS LISTING /tmp/ccjsL3AI.s 			page 41


 1501              	#NO_APP
 1502              	.LBB203:
 1503              	.LBB204:
 103:src/../h/Riscv.hpp ****     __asm__ volatile ("csrr %[scause], scause" : [scause] "=r"(scause));
 1504              		.loc 2 103 5
 104:src/../h/Riscv.hpp ****     return scause;
 1505              		.loc 2 104 5
 104:src/../h/Riscv.hpp ****     return scause;
 1506              		.loc 2 104 72 is_stmt 0
 1507              	#APP
 1508              	# 104 "src/../h/Riscv.hpp" 1
 1509              		csrr a5, scause
 1510              	# 0 "" 2
 1511              	#NO_APP
 1512 0568 2334F4FE 		sd	a5,-24(s0)
 105:src/../h/Riscv.hpp **** }
 1513              		.loc 2 105 5 is_stmt 1
 105:src/../h/Riscv.hpp **** }
 1514              		.loc 2 105 12 is_stmt 0
 1515 056c 833784FE 		ld	a5,-24(s0)
 1516              	.LVL110:
 1517              	.LBE204:
 1518              	.LBE203:
  16:src/Riscv.cpp ****     switch(cause){
 1519              		.loc 1 16 5 is_stmt 1
 1520 0570 13079000 		li	a4,9
 1521 0574 6378F702 		bleu	a5,a4,.L58
 1522 0578 1307F0FF 		li	a4,-1
 1523 057c 1317F703 		slli	a4,a4,63
 1524 0580 13071700 		addi	a4,a4,1
 1525 0584 6388E706 		beq	a5,a4,.L55
 1526 0588 1307F0FF 		li	a4,-1
 1527 058c 1317F703 		slli	a4,a4,63
 1528 0590 13079700 		addi	a4,a4,9
 1529 0594 6392E704 		bne	a5,a4,.L50
  32:src/Riscv.cpp ****         case CONSOLE_CODE:{
 1530              		.loc 1 32 9
  32:src/Riscv.cpp ****         case CONSOLE_CODE:{
 1531              		.loc 1 32 27
  33:src/Riscv.cpp ****             Riscv::handleConsole();
 1532              		.loc 1 33 13
  33:src/Riscv.cpp ****             Riscv::handleConsole();
 1533              		.loc 1 33 33 is_stmt 0
 1534 0598 97000000 		call	_ZN5Riscv13handleConsoleEv
 1534      E7800000 
 1535              	.LVL111:
  34:src/Riscv.cpp ****             break;
 1536              		.loc 1 34 13 is_stmt 1
  37:src/Riscv.cpp **** }
 1537              		.loc 1 37 1 is_stmt 0
 1538 05a0 6F008003 		j	.L50
 1539              	.LVL112:
 1540              	.L58:
  16:src/Riscv.cpp ****     switch(cause){
 1541              		.loc 1 16 5
 1542 05a4 13078000 		li	a4,8
 1543 05a8 63F0E704 		bgeu	a5,a4,.L52
GAS LISTING /tmp/ccjsL3AI.s 			page 42


 1544 05ac 13075000 		li	a4,5
 1545 05b0 6386E700 		beq	a5,a4,.L53
 1546 05b4 13077000 		li	a4,7
 1547 05b8 639CE700 		bne	a5,a4,.L59
 1548              	.L53:
  17:src/Riscv.cpp ****         case ILLEGAL_INSTRUCTION_CODE:
 1549              		.loc 1 17 9 is_stmt 1
  18:src/Riscv.cpp ****         case ILLEGAL_READ_CODE:
 1550              		.loc 1 18 9
  19:src/Riscv.cpp ****         case ILLEGAL_WRITE_CODE:{
 1551              		.loc 1 19 9
  19:src/Riscv.cpp ****         case ILLEGAL_WRITE_CODE:{
 1552              		.loc 1 19 33
  20:src/Riscv.cpp ****             Riscv::halt();
 1553              		.loc 1 20 13
 1554              	.LBB205:
 1555              	.LBB206:
 223:src/../h/Riscv.hpp **** }
 224:src/../h/Riscv.hpp **** inline void Riscv::halt() {
 225:src/../h/Riscv.hpp ****     uint32* ptr=(uint32*)STOPADR;
 1556              		.loc 2 225 5
 1557              	.LVL113:
 226:src/../h/Riscv.hpp ****     *ptr=STOP;
 1558              		.loc 2 226 5
 1559              		.loc 2 226 9 is_stmt 0
 1560 05bc 37071000 		li	a4,1048576
 1561 05c0 B7570000 		li	a5,20480
 1562              	.LVL114:
 1563 05c4 9B875755 		addiw	a5,a5,1365
 1564 05c8 2320F700 		sw	a5,0(a4)
 227:src/../h/Riscv.hpp **** }
 1565              		.loc 2 227 1
 1566 05cc 6F00C000 		j	.L50
 1567              	.LVL115:
 1568              	.L59:
 1569              	.LBE206:
 1570              	.LBE205:
  16:src/Riscv.cpp ****     switch(cause){
 1571              		.loc 1 16 5
 1572 05d0 13072000 		li	a4,2
 1573 05d4 E384E7FE 		beq	a5,a4,.L53
 1574              	.LVL116:
 1575              	.L50:
  37:src/Riscv.cpp **** }
 1576              		.loc 1 37 1
 1577 05d8 83308101 		ld	ra,24(sp)
 1578              		.cfi_remember_state
 1579              		.cfi_restore 1
 1580 05dc 03340101 		ld	s0,16(sp)
 1581              		.cfi_restore 8
 1582              		.cfi_def_cfa 2, 32
 1583 05e0 13010102 		addi	sp,sp,32
 1584              		.cfi_def_cfa_offset 0
 1585 05e4 67800000 		jr	ra
 1586              	.LVL117:
 1587              	.L52:
 1588              		.cfi_restore_state
GAS LISTING /tmp/ccjsL3AI.s 			page 43


  23:src/Riscv.cpp ****         case UMODE_ECALL_CODE:
 1589              		.loc 1 23 9 is_stmt 1
  24:src/Riscv.cpp ****         case SMODE_ECALL_CODE:{
 1590              		.loc 1 24 9
  24:src/Riscv.cpp ****         case SMODE_ECALL_CODE:{
 1591              		.loc 1 24 31
  25:src/Riscv.cpp ****             Riscv::handleSyscall();
 1592              		.loc 1 25 13
  25:src/Riscv.cpp ****             Riscv::handleSyscall();
 1593              		.loc 1 25 33 is_stmt 0
 1594 05e8 97000000 		call	_ZN5Riscv13handleSyscallEv
 1594      E7800000 
 1595              	.LVL118:
  26:src/Riscv.cpp ****             break;
 1596              		.loc 1 26 13 is_stmt 1
 1597 05f0 6FF09FFE 		j	.L50
 1598              	.LVL119:
 1599              	.L55:
  28:src/Riscv.cpp ****         case TIMER_CODE:{
 1600              		.loc 1 28 9
  28:src/Riscv.cpp ****         case TIMER_CODE:{
 1601              		.loc 1 28 25
  29:src/Riscv.cpp ****             Riscv::handleTimer();
 1602              		.loc 1 29 13
  29:src/Riscv.cpp ****             Riscv::handleTimer();
 1603              		.loc 1 29 31 is_stmt 0
 1604 05f4 97000000 		call	_ZN5Riscv11handleTimerEv
 1604      E7800000 
 1605              	.LVL120:
  30:src/Riscv.cpp ****             break;
 1606              		.loc 1 30 13 is_stmt 1
 1607 05fc 6FF0DFFD 		j	.L50
 1608              		.cfi_endproc
 1609              	.LFE33:
 1611              	.Letext0:
 1612              		.file 3 "src/../h/../lib/hw.h"
 1613              		.file 4 "src/../h/codes.hpp"
 1614              		.file 5 "src/../h/MemoryAllocator.hpp"
 1615              		.file 6 "src/../h/syscall_c.hpp"
 1616              		.file 7 "src/../h/TCB.hpp"
 1617              		.file 8 "src/../h/SemC.hpp"
 1618              		.file 9 "src/../h/SleepQueue.hpp"
 1619              		.file 10 "src/../h/BlockedQueue.hpp"
 1620              		.file 11 "src/../h/IOBuffer.hpp"
 1621              		.file 12 "src/../h/KernelConsole.hpp"
 7285              		.align	3
 7288              	DW.ref.__gxx_personality_v0:
 7289 0000 00000000 		.dword	__gxx_personality_v0
 7289      00000000 
 7290              		.ident	"GCC: (Ubuntu 9.4.0-1ubuntu1~20.04) 9.4.0"
 7291              		.section	.note.GNU-stack,"",@progbits
GAS LISTING /tmp/ccjsL3AI.s 			page 44


DEFINED SYMBOLS
                            *ABS*:0000000000000000 Riscv.cpp
     /tmp/ccjsL3AI.s:9      .text:0000000000000000 _ZN5Riscv10popSppSpieEv
     /tmp/ccjsL3AI.s:13     .text:0000000000000000 .L0 
     /tmp/ccjsL3AI.s:14     .text:0000000000000000 .L0 
     /tmp/ccjsL3AI.s:15     .text:0000000000000004 .L0 
     /tmp/ccjsL3AI.s:17     .text:0000000000000008 .L0 
     /tmp/ccjsL3AI.s:19     .text:000000000000000c .L0 
     /tmp/ccjsL3AI.s:21     .text:000000000000000c .L0 
       src/Riscv.cpp:8      .text:000000000000000c .L0 
     /tmp/ccjsL3AI.s:27     .text:0000000000000010 .L0 
       src/Riscv.cpp:9      .text:0000000000000010 .L0 
     /tmp/ccjsL3AI.s:33     .text:0000000000000014 .L0 
     /tmp/ccjsL3AI.s:34     .text:0000000000000018 .L0 
     /tmp/ccjsL3AI.s:35     .text:0000000000000018 .L0 
     /tmp/ccjsL3AI.s:37     .text:000000000000001c .L0 
     /tmp/ccjsL3AI.s:39     .text:0000000000000020 .L0 
     /tmp/ccjsL3AI.s:45     .text:0000000000000020 _ZN5Riscv13handleSyscallEv
     /tmp/ccjsL3AI.s:48     .text:0000000000000020 .L0 
     /tmp/ccjsL3AI.s:7288   .data.rel.local.DW.ref.__gxx_personality_v0:0000000000000000 DW.ref.__gxx_personality_v0
     /tmp/ccjsL3AI.s:51     .text:0000000000000020 .L0 
     /tmp/ccjsL3AI.s:52     .text:0000000000000024 .L0 
     /tmp/ccjsL3AI.s:62     .text:0000000000000048 .L0 
     /tmp/ccjsL3AI.s:63     .text:0000000000000048 .L0 
     /tmp/ccjsL3AI.s:64     .text:0000000000000048 .L0 
     /tmp/ccjsL3AI.s:65     .text:0000000000000048 .L0 
     /tmp/ccjsL3AI.s:66     .text:0000000000000048 .L0 
     /tmp/ccjsL3AI.s:67     .text:0000000000000048 .L0 
     /tmp/ccjsL3AI.s:68     .text:0000000000000048 .L0 
     /tmp/ccjsL3AI.s:69     .text:0000000000000048 .L0 
     /tmp/ccjsL3AI.s:70     .text:0000000000000048 .L0 
     /tmp/ccjsL3AI.s:72     .text:000000000000004c .L0 
     /tmp/ccjsL3AI.s:74     .text:000000000000004c .L0 
     /tmp/ccjsL3AI.s:75     .text:000000000000004c .L0 
     /tmp/ccjsL3AI.s:79     .text:000000000000004c .L0 
     /tmp/ccjsL3AI.s:80     .text:000000000000004c .L0 
     /tmp/ccjsL3AI.s:81     .text:000000000000004c .L0 
  src/../h/Riscv.hpp:116    .text:000000000000004c .L0 
     /tmp/ccjsL3AI.s:89     .text:0000000000000054 .L0 
     /tmp/ccjsL3AI.s:90     .text:0000000000000054 .L0 
     /tmp/ccjsL3AI.s:97     .text:0000000000000058 .L0 
     /tmp/ccjsL3AI.s:98     .text:0000000000000058 .L0 
     /tmp/ccjsL3AI.s:99     .text:0000000000000058 .L0 
  src/../h/Riscv.hpp:184    .text:0000000000000058 .L0 
     /tmp/ccjsL3AI.s:107    .text:0000000000000060 .L0 
     /tmp/ccjsL3AI.s:108    .text:0000000000000060 .L0 
     /tmp/ccjsL3AI.s:115    .text:0000000000000064 .L0 
     /tmp/ccjsL3AI.s:116    .text:0000000000000064 .L0 
     /tmp/ccjsL3AI.s:117    .text:0000000000000064 .L0 
     /tmp/ccjsL3AI.s:118    .text:0000000000000064 .L0 
     /tmp/ccjsL3AI.s:129    .text:000000000000006c .L0 
     /tmp/ccjsL3AI.s:130    .text:000000000000006c .L0 
     /tmp/ccjsL3AI.s:131    .text:000000000000006c .L0 
  src/../h/Riscv.hpp:201    .text:000000000000006c .L0 
     /tmp/ccjsL3AI.s:139    .text:0000000000000074 .L0 
     /tmp/ccjsL3AI.s:140    .text:0000000000000074 .L0 
     /tmp/ccjsL3AI.s:145    .text:0000000000000078 .L0 
GAS LISTING /tmp/ccjsL3AI.s 			page 45


     /tmp/ccjsL3AI.s:230    .text:000000000000009c .L0 
     /tmp/ccjsL3AI.s:231    .text:000000000000009c .L0 
     /tmp/ccjsL3AI.s:233    .text:000000000000009c .L0 
     /tmp/ccjsL3AI.s:234    .text:000000000000009c .L0 
     /tmp/ccjsL3AI.s:241    .text:00000000000000ac .L0 
  src/../h/Riscv.hpp:197    .text:00000000000000ac .L0 
     /tmp/ccjsL3AI.s:253    .text:00000000000000b0 .L0 
     /tmp/ccjsL3AI.s:254    .text:00000000000000b0 .L0 
     /tmp/ccjsL3AI.s:255    .text:00000000000000b0 .L0 
  src/../h/Riscv.hpp:184    .text:00000000000000b0 .L0 
     /tmp/ccjsL3AI.s:263    .text:00000000000000b8 .L0 
     /tmp/ccjsL3AI.s:264    .text:00000000000000b8 .L0 
     /tmp/ccjsL3AI.s:272    .text:00000000000000bc .L0 
     /tmp/ccjsL3AI.s:275    .text:00000000000000bc .L0 
     /tmp/ccjsL3AI.s:276    .text:00000000000000bc .L0 
  src/../h/Riscv.hpp:122    .text:00000000000000bc .L0 
     /tmp/ccjsL3AI.s:288    .text:00000000000000c0 .L0 
     /tmp/ccjsL3AI.s:289    .text:00000000000000c0 .L0 
  src/../h/Riscv.hpp:197    .text:00000000000000c0 .L0 
     /tmp/ccjsL3AI.s:299    .text:00000000000000c4 .L0 
     /tmp/ccjsL3AI.s:300    .text:00000000000000c8 .L0 
     /tmp/ccjsL3AI.s:301    .text:00000000000000c8 .L0 
     /tmp/ccjsL3AI.s:303    .text:00000000000000cc .L0 
     /tmp/ccjsL3AI.s:304    .text:00000000000000cc .L0 
     /tmp/ccjsL3AI.s:306    .text:00000000000000d0 .L0 
     /tmp/ccjsL3AI.s:309    .text:00000000000000d4 .L0 
     /tmp/ccjsL3AI.s:312    .text:00000000000000d8 .L0 
     /tmp/ccjsL3AI.s:314    .text:00000000000000dc .L0 
     /tmp/ccjsL3AI.s:316    .text:00000000000000e0 .L0 
     /tmp/ccjsL3AI.s:318    .text:00000000000000e4 .L0 
     /tmp/ccjsL3AI.s:320    .text:00000000000000e8 .L0 
     /tmp/ccjsL3AI.s:322    .text:00000000000000ec .L0 
     /tmp/ccjsL3AI.s:326    .text:00000000000000f0 .L0 
     /tmp/ccjsL3AI.s:330    .text:00000000000000f0 .L0 
     /tmp/ccjsL3AI.s:332    .text:00000000000000f0 .L0 
     /tmp/ccjsL3AI.s:333    .text:00000000000000f0 .L0 
     /tmp/ccjsL3AI.s:334    .text:00000000000000f0 .L0 
     /tmp/ccjsL3AI.s:339    .text:00000000000000f8 .L0 
     /tmp/ccjsL3AI.s:340    .text:00000000000000f8 .L0 
     /tmp/ccjsL3AI.s:341    .text:00000000000000f8 .L0 
  src/../h/Riscv.hpp:206    .text:00000000000000f8 .L0 
     /tmp/ccjsL3AI.s:349    .text:0000000000000100 .L0 
     /tmp/ccjsL3AI.s:350    .text:0000000000000100 .L0 
     /tmp/ccjsL3AI.s:355    .text:0000000000000104 .L0 
     /tmp/ccjsL3AI.s:356    .text:0000000000000104 .L0 
     /tmp/ccjsL3AI.s:360    .text:0000000000000110 .L0 
       src/Riscv.cpp:55     .text:0000000000000110 .L0 
     /tmp/ccjsL3AI.s:367    .text:0000000000000114 .L0 
     /tmp/ccjsL3AI.s:372    .text:0000000000000118 .L0 
     /tmp/ccjsL3AI.s:374    .text:0000000000000118 .L0 
     /tmp/ccjsL3AI.s:375    .text:0000000000000118 .L0 
     /tmp/ccjsL3AI.s:376    .text:0000000000000118 .L0 
     /tmp/ccjsL3AI.s:381    .text:0000000000000120 .L0 
     /tmp/ccjsL3AI.s:382    .text:0000000000000120 .L0 
     /tmp/ccjsL3AI.s:383    .text:0000000000000120 .L0 
  src/../h/Riscv.hpp:206    .text:0000000000000120 .L0 
     /tmp/ccjsL3AI.s:391    .text:0000000000000128 .L0 
GAS LISTING /tmp/ccjsL3AI.s 			page 46


     /tmp/ccjsL3AI.s:392    .text:0000000000000128 .L0 
     /tmp/ccjsL3AI.s:397    .text:000000000000012c .L0 
     /tmp/ccjsL3AI.s:398    .text:000000000000012c .L0 
     /tmp/ccjsL3AI.s:401    .text:0000000000000134 .L0 
       src/Riscv.cpp:62     .text:0000000000000134 .L0 
     /tmp/ccjsL3AI.s:408    .text:0000000000000138 .L0 
     /tmp/ccjsL3AI.s:413    .text:000000000000013c .L0 
     /tmp/ccjsL3AI.s:415    .text:000000000000013c .L0 
     /tmp/ccjsL3AI.s:416    .text:000000000000013c .L0 
       src/Riscv.cpp:66     .text:000000000000013c .L0 
     /tmp/ccjsL3AI.s:425    .text:0000000000000140 .L0 
     /tmp/ccjsL3AI.s:426    .text:0000000000000140 .L0 
     /tmp/ccjsL3AI.s:427    .text:0000000000000140 .L0 
  src/../h/Riscv.hpp:216    .text:0000000000000140 .L0 
     /tmp/ccjsL3AI.s:435    .text:0000000000000148 .L0 
     /tmp/ccjsL3AI.s:436    .text:0000000000000148 .L0 
     /tmp/ccjsL3AI.s:443    .text:000000000000014c .L0 
     /tmp/ccjsL3AI.s:444    .text:000000000000014c .L0 
     /tmp/ccjsL3AI.s:445    .text:000000000000014c .L0 
  src/../h/Riscv.hpp:211    .text:000000000000014c .L0 
     /tmp/ccjsL3AI.s:453    .text:0000000000000154 .L0 
     /tmp/ccjsL3AI.s:454    .text:0000000000000154 .L0 
     /tmp/ccjsL3AI.s:461    .text:0000000000000158 .L0 
     /tmp/ccjsL3AI.s:462    .text:0000000000000158 .L0 
     /tmp/ccjsL3AI.s:463    .text:0000000000000158 .L0 
  src/../h/Riscv.hpp:206    .text:0000000000000158 .L0 
     /tmp/ccjsL3AI.s:471    .text:0000000000000160 .L0 
     /tmp/ccjsL3AI.s:472    .text:0000000000000160 .L0 
     /tmp/ccjsL3AI.s:479    .text:0000000000000164 .L0 
     /tmp/ccjsL3AI.s:480    .text:0000000000000164 .L0 
     /tmp/ccjsL3AI.s:481    .text:0000000000000164 .L0 
  src/../h/Riscv.hpp:221    .text:0000000000000164 .L0 
     /tmp/ccjsL3AI.s:489    .text:000000000000016c .L0 
     /tmp/ccjsL3AI.s:490    .text:000000000000016c .L0 
     /tmp/ccjsL3AI.s:495    .text:0000000000000170 .L0 
     /tmp/ccjsL3AI.s:496    .text:0000000000000170 .L0 
     /tmp/ccjsL3AI.s:509    .text:0000000000000194 .L0 
     /tmp/ccjsL3AI.s:510    .text:0000000000000194 .L0 
     /tmp/ccjsL3AI.s:512    .text:0000000000000198 .L0 
     /tmp/ccjsL3AI.s:513    .text:0000000000000198 .L0 
     /tmp/ccjsL3AI.s:515    .text:000000000000019c .L0 
     /tmp/ccjsL3AI.s:519    .text:00000000000001a0 .L0 
       src/Riscv.cpp:80     .text:00000000000001a0 .L0 
     /tmp/ccjsL3AI.s:526    .text:00000000000001a4 .L0 
     /tmp/ccjsL3AI.s:530    .text:00000000000001a8 .L0 
     /tmp/ccjsL3AI.s:536    .text:00000000000001b0 .L0 
     /tmp/ccjsL3AI.s:538    .text:00000000000001b0 .L0 
     /tmp/ccjsL3AI.s:540    .text:00000000000001b0 .L0 
     /tmp/ccjsL3AI.s:541    .text:00000000000001b0 .L0 
     /tmp/ccjsL3AI.s:544    .text:00000000000001b8 .L0 
     /tmp/ccjsL3AI.s:545    .text:00000000000001b8 .L0 
     /tmp/ccjsL3AI.s:549    .text:00000000000001c4 .L0 
     /tmp/ccjsL3AI.s:550    .text:00000000000001c4 .L0 
     /tmp/ccjsL3AI.s:551    .text:00000000000001c4 .L0 
     /tmp/ccjsL3AI.s:558    .text:00000000000001cc .L0 
     /tmp/ccjsL3AI.s:563    .text:00000000000001d0 .L0 
     /tmp/ccjsL3AI.s:564    .text:00000000000001d0 .L0 
GAS LISTING /tmp/ccjsL3AI.s 			page 47


     /tmp/ccjsL3AI.s:565    .text:00000000000001d0 .L0 
     /tmp/ccjsL3AI.s:566    .text:00000000000001d0 .L0 
     /tmp/ccjsL3AI.s:569    .text:00000000000001d8 .L0 
     /tmp/ccjsL3AI.s:572    .text:00000000000001dc .L0 
     /tmp/ccjsL3AI.s:574    .text:00000000000001dc .L0 
     /tmp/ccjsL3AI.s:577    .text:00000000000001dc .L0 
     /tmp/ccjsL3AI.s:578    .text:00000000000001dc .L0 
     /tmp/ccjsL3AI.s:579    .text:00000000000001dc .L0 
  src/../h/Riscv.hpp:206    .text:00000000000001dc .L0 
     /tmp/ccjsL3AI.s:587    .text:00000000000001e4 .L0 
     /tmp/ccjsL3AI.s:588    .text:00000000000001e4 .L0 
     /tmp/ccjsL3AI.s:595    .text:00000000000001e8 .L0 
     /tmp/ccjsL3AI.s:596    .text:00000000000001e8 .L0 
     /tmp/ccjsL3AI.s:597    .text:00000000000001e8 .L0 
  src/../h/Riscv.hpp:211    .text:00000000000001e8 .L0 
     /tmp/ccjsL3AI.s:605    .text:00000000000001f0 .L0 
     /tmp/ccjsL3AI.s:606    .text:00000000000001f0 .L0 
     /tmp/ccjsL3AI.s:610    .text:00000000000001f4 .L0 
     /tmp/ccjsL3AI.s:613    .text:00000000000001f8 .L0 
     /tmp/ccjsL3AI.s:614    .text:00000000000001f8 .L0 
     /tmp/ccjsL3AI.s:625    .text:0000000000000214 .L0 
     /tmp/ccjsL3AI.s:626    .text:0000000000000214 .L0 
     /tmp/ccjsL3AI.s:628    .text:0000000000000218 .L0 
     /tmp/ccjsL3AI.s:629    .text:0000000000000218 .L0 
     /tmp/ccjsL3AI.s:631    .text:000000000000021c .L0 
     /tmp/ccjsL3AI.s:635    .text:0000000000000220 .L0 
       src/Riscv.cpp:106    .text:0000000000000220 .L0 
     /tmp/ccjsL3AI.s:642    .text:0000000000000224 .L0 
     /tmp/ccjsL3AI.s:646    .text:0000000000000228 .L0 
     /tmp/ccjsL3AI.s:652    .text:0000000000000230 .L0 
     /tmp/ccjsL3AI.s:654    .text:0000000000000230 .L0 
     /tmp/ccjsL3AI.s:657    .text:0000000000000230 .L0 
     /tmp/ccjsL3AI.s:658    .text:0000000000000230 .L0 
     /tmp/ccjsL3AI.s:659    .text:0000000000000230 .L0 
  src/../h/Riscv.hpp:206    .text:0000000000000230 .L0 
     /tmp/ccjsL3AI.s:667    .text:0000000000000238 .L0 
     /tmp/ccjsL3AI.s:668    .text:0000000000000238 .L0 
     /tmp/ccjsL3AI.s:673    .text:000000000000023c .L0 
     /tmp/ccjsL3AI.s:674    .text:000000000000023c .L0 
     /tmp/ccjsL3AI.s:676    .text:0000000000000240 .L0 
     /tmp/ccjsL3AI.s:680    .text:0000000000000244 .L0 
       src/Riscv.cpp:116    .text:0000000000000244 .L0 
     /tmp/ccjsL3AI.s:687    .text:0000000000000248 .L0 
     /tmp/ccjsL3AI.s:692    .text:000000000000024c .L0 
     /tmp/ccjsL3AI.s:693    .text:000000000000024c .L0 
     /tmp/ccjsL3AI.s:696    .text:0000000000000254 .L0 
     /tmp/ccjsL3AI.s:697    .text:0000000000000254 .L0 
     /tmp/ccjsL3AI.s:703    .text:000000000000025c .L0 
     /tmp/ccjsL3AI.s:705    .text:000000000000025c .L0 
     /tmp/ccjsL3AI.s:708    .text:000000000000025c .L0 
     /tmp/ccjsL3AI.s:709    .text:000000000000025c .L0 
     /tmp/ccjsL3AI.s:710    .text:000000000000025c .L0 
  src/../h/Riscv.hpp:206    .text:000000000000025c .L0 
     /tmp/ccjsL3AI.s:718    .text:0000000000000264 .L0 
     /tmp/ccjsL3AI.s:719    .text:0000000000000264 .L0 
     /tmp/ccjsL3AI.s:724    .text:0000000000000268 .L0 
     /tmp/ccjsL3AI.s:725    .text:0000000000000268 .L0 
GAS LISTING /tmp/ccjsL3AI.s 			page 48


     /tmp/ccjsL3AI.s:726    .text:0000000000000268 .L0 
     /tmp/ccjsL3AI.s:729    .text:0000000000000270 .L0 
       src/Riscv.cpp:122    .text:0000000000000270 .L0 
     /tmp/ccjsL3AI.s:736    .text:0000000000000274 .L0 
     /tmp/ccjsL3AI.s:741    .text:0000000000000278 .L0 
     /tmp/ccjsL3AI.s:743    .text:0000000000000278 .L0 
     /tmp/ccjsL3AI.s:746    .text:0000000000000278 .L0 
     /tmp/ccjsL3AI.s:747    .text:0000000000000278 .L0 
     /tmp/ccjsL3AI.s:748    .text:0000000000000278 .L0 
  src/../h/Riscv.hpp:206    .text:0000000000000278 .L0 
     /tmp/ccjsL3AI.s:756    .text:0000000000000280 .L0 
     /tmp/ccjsL3AI.s:757    .text:0000000000000280 .L0 
     /tmp/ccjsL3AI.s:762    .text:0000000000000284 .L0 
     /tmp/ccjsL3AI.s:763    .text:0000000000000284 .L0 
     /tmp/ccjsL3AI.s:764    .text:0000000000000284 .L0 
     /tmp/ccjsL3AI.s:767    .text:000000000000028c .L0 
       src/Riscv.cpp:128    .text:000000000000028c .L0 
     /tmp/ccjsL3AI.s:774    .text:0000000000000290 .L0 
     /tmp/ccjsL3AI.s:779    .text:0000000000000294 .L0 
     /tmp/ccjsL3AI.s:781    .text:0000000000000294 .L0 
     /tmp/ccjsL3AI.s:784    .text:0000000000000294 .L0 
     /tmp/ccjsL3AI.s:785    .text:0000000000000294 .L0 
     /tmp/ccjsL3AI.s:786    .text:0000000000000294 .L0 
  src/../h/Riscv.hpp:206    .text:0000000000000294 .L0 
     /tmp/ccjsL3AI.s:794    .text:000000000000029c .L0 
     /tmp/ccjsL3AI.s:795    .text:000000000000029c .L0 
     /tmp/ccjsL3AI.s:800    .text:00000000000002a0 .L0 
     /tmp/ccjsL3AI.s:803    .text:00000000000002a0 .L0 
     /tmp/ccjsL3AI.s:804    .text:00000000000002a0 .L0 
     /tmp/ccjsL3AI.s:805    .text:00000000000002a0 .L0 
  src/../h/Riscv.hpp:211    .text:00000000000002a0 .L0 
     /tmp/ccjsL3AI.s:813    .text:00000000000002a8 .L0 
     /tmp/ccjsL3AI.s:814    .text:00000000000002a8 .L0 
     /tmp/ccjsL3AI.s:819    .text:00000000000002ac .L0 
     /tmp/ccjsL3AI.s:820    .text:00000000000002ac .L0 
     /tmp/ccjsL3AI.s:823    .text:00000000000002b4 .L0 
       src/Riscv.cpp:135    .text:00000000000002b4 .L0 
     /tmp/ccjsL3AI.s:830    .text:00000000000002b8 .L0 
     /tmp/ccjsL3AI.s:835    .text:00000000000002bc .L0 
     /tmp/ccjsL3AI.s:837    .text:00000000000002bc .L0 
     /tmp/ccjsL3AI.s:840    .text:00000000000002bc .L0 
     /tmp/ccjsL3AI.s:841    .text:00000000000002bc .L0 
     /tmp/ccjsL3AI.s:842    .text:00000000000002bc .L0 
  src/../h/Riscv.hpp:206    .text:00000000000002bc .L0 
     /tmp/ccjsL3AI.s:850    .text:00000000000002c4 .L0 
     /tmp/ccjsL3AI.s:851    .text:00000000000002c4 .L0 
     /tmp/ccjsL3AI.s:856    .text:00000000000002c8 .L0 
     /tmp/ccjsL3AI.s:857    .text:00000000000002c8 .L0 
     /tmp/ccjsL3AI.s:858    .text:00000000000002c8 .L0 
     /tmp/ccjsL3AI.s:861    .text:00000000000002d0 .L0 
       src/Riscv.cpp:141    .text:00000000000002d0 .L0 
     /tmp/ccjsL3AI.s:868    .text:00000000000002d4 .L0 
     /tmp/ccjsL3AI.s:873    .text:00000000000002d8 .L0 
     /tmp/ccjsL3AI.s:875    .text:00000000000002d8 .L0 
     /tmp/ccjsL3AI.s:878    .text:00000000000002d8 .L0 
     /tmp/ccjsL3AI.s:879    .text:00000000000002d8 .L0 
     /tmp/ccjsL3AI.s:880    .text:00000000000002d8 .L0 
GAS LISTING /tmp/ccjsL3AI.s 			page 49


  src/../h/Riscv.hpp:206    .text:00000000000002d8 .L0 
     /tmp/ccjsL3AI.s:888    .text:00000000000002e0 .L0 
     /tmp/ccjsL3AI.s:889    .text:00000000000002e0 .L0 
     /tmp/ccjsL3AI.s:894    .text:00000000000002e4 .L0 
     /tmp/ccjsL3AI.s:896    .text:00000000000002e4 .L0 
     /tmp/ccjsL3AI.s:898    .text:00000000000002e8 .L0 
     /tmp/ccjsL3AI.s:903    .text:00000000000002ec .L0 
       src/Riscv.cpp:155    .text:00000000000002ec .L0 
     /tmp/ccjsL3AI.s:910    .text:00000000000002f0 .L0 
     /tmp/ccjsL3AI.s:916    .text:00000000000002f4 .L0 
     /tmp/ccjsL3AI.s:917    .text:00000000000002f4 .L0 
     /tmp/ccjsL3AI.s:922    .text:0000000000000300 .L0 
     /tmp/ccjsL3AI.s:923    .text:0000000000000300 .L0 
     /tmp/ccjsL3AI.s:931    .text:000000000000031c .L0 
     /tmp/ccjsL3AI.s:932    .text:000000000000031c .L0 
     /tmp/ccjsL3AI.s:940    .text:0000000000000324 .L0 
     /tmp/ccjsL3AI.s:942    .text:0000000000000324 .L0 
     /tmp/ccjsL3AI.s:943    .text:0000000000000324 .L0 
     /tmp/ccjsL3AI.s:944    .text:0000000000000324 .L0 
     /tmp/ccjsL3AI.s:947    .text:000000000000032c .L0 
     /tmp/ccjsL3AI.s:948    .text:000000000000032c .L0 
     /tmp/ccjsL3AI.s:951    .text:0000000000000334 .L0 
       src/Riscv.cpp:161    .text:0000000000000334 .L0 
     /tmp/ccjsL3AI.s:958    .text:0000000000000338 .L0 
     /tmp/ccjsL3AI.s:963    .text:000000000000033c .L0 
     /tmp/ccjsL3AI.s:965    .text:000000000000033c .L0 
     /tmp/ccjsL3AI.s:968    .text:000000000000033c .L0 
     /tmp/ccjsL3AI.s:969    .text:000000000000033c .L0 
     /tmp/ccjsL3AI.s:970    .text:000000000000033c .L0 
  src/../h/Riscv.hpp:206    .text:000000000000033c .L0 
     /tmp/ccjsL3AI.s:978    .text:0000000000000344 .L0 
     /tmp/ccjsL3AI.s:979    .text:0000000000000344 .L0 
     /tmp/ccjsL3AI.s:983    .text:0000000000000348 .L0 
     /tmp/ccjsL3AI.s:986    .text:000000000000034c .L0 
     /tmp/ccjsL3AI.s:987    .text:000000000000034c .L0 
     /tmp/ccjsL3AI.s:990    .text:0000000000000354 .L0 
     /tmp/ccjsL3AI.s:991    .text:0000000000000354 .L0 
     /tmp/ccjsL3AI.s:996    .text:0000000000000360 .L0 
     /tmp/ccjsL3AI.s:1004   .text:0000000000000368 .L0 
     /tmp/ccjsL3AI.s:1018   .text:0000000000000384 .L0 
     /tmp/ccjsL3AI.s:1029   .text:000000000000039c .L0 
     /tmp/ccjsL3AI.s:1071   .text:000000000000039c _ZN5Riscv11handleTimerEv
     /tmp/ccjsL3AI.s:1074   .text:000000000000039c .L0 
     /tmp/ccjsL3AI.s:1075   .text:000000000000039c .L0 
     /tmp/ccjsL3AI.s:1076   .text:00000000000003a0 .L0 
     /tmp/ccjsL3AI.s:1080   .text:00000000000003ac .L0 
     /tmp/ccjsL3AI.s:1081   .text:00000000000003ac .L0 
     /tmp/ccjsL3AI.s:1082   .text:00000000000003ac .L0 
     /tmp/ccjsL3AI.s:1084   .text:00000000000003b0 .L0 
     /tmp/ccjsL3AI.s:1089   .text:00000000000003b0 .L0 
     /tmp/ccjsL3AI.s:1090   .text:00000000000003b0 .L0 
     /tmp/ccjsL3AI.s:1091   .text:00000000000003b0 .L0 
     /tmp/ccjsL3AI.s:1101   .text:00000000000003b8 .L0 
     /tmp/ccjsL3AI.s:1102   .text:00000000000003b8 .L0 
     /tmp/ccjsL3AI.s:1105   .text:00000000000003c0 .L0 
     /tmp/ccjsL3AI.s:1106   .text:00000000000003c0 .L0 
     /tmp/ccjsL3AI.s:1109   .text:00000000000003c0 .L0 
GAS LISTING /tmp/ccjsL3AI.s 			page 50


     /tmp/ccjsL3AI.s:1110   .text:00000000000003c0 .L0 
     /tmp/ccjsL3AI.s:1111   .text:00000000000003c0 .L0 
     /tmp/ccjsL3AI.s:1112   .text:00000000000003c0 .L0 
     /tmp/ccjsL3AI.s:1123   .text:00000000000003c8 .L0 
     /tmp/ccjsL3AI.s:1124   .text:00000000000003c8 .L0 
     /tmp/ccjsL3AI.s:1125   .text:00000000000003c8 .L0 
  src/../h/Riscv.hpp:116    .text:00000000000003c8 .L0 
     /tmp/ccjsL3AI.s:1133   .text:00000000000003d0 .L0 
     /tmp/ccjsL3AI.s:1134   .text:00000000000003d0 .L0 
     /tmp/ccjsL3AI.s:1138   .text:00000000000003d4 .L0 
     /tmp/ccjsL3AI.s:1140   .text:00000000000003d8 .L0 
     /tmp/ccjsL3AI.s:1144   .text:00000000000003dc .L0 
     /tmp/ccjsL3AI.s:1145   .text:00000000000003dc .L0 
     /tmp/ccjsL3AI.s:1146   .text:00000000000003dc .L0 
  src/../h/Riscv.hpp:184    .text:00000000000003dc .L0 
     /tmp/ccjsL3AI.s:1154   .text:00000000000003e4 .L0 
     /tmp/ccjsL3AI.s:1155   .text:00000000000003e4 .L0 
     /tmp/ccjsL3AI.s:1159   .text:00000000000003e8 .L0 
     /tmp/ccjsL3AI.s:1161   .text:00000000000003ec .L0 
     /tmp/ccjsL3AI.s:1162   .text:00000000000003ec .L0 
     /tmp/ccjsL3AI.s:1166   .text:00000000000003f8 .L0 
     /tmp/ccjsL3AI.s:1171   .text:0000000000000408 .L0 
     /tmp/ccjsL3AI.s:1174   .text:000000000000040c .L0 
     /tmp/ccjsL3AI.s:1175   .text:000000000000040c .L0 
     /tmp/ccjsL3AI.s:1180   .text:0000000000000410 .L0 
  src/../h/Riscv.hpp:122    .text:0000000000000410 .L0 
     /tmp/ccjsL3AI.s:1190   .text:0000000000000414 .L0 
     /tmp/ccjsL3AI.s:1191   .text:0000000000000414 .L0 
     /tmp/ccjsL3AI.s:1196   .text:0000000000000418 .L0 
  src/../h/Riscv.hpp:197    .text:0000000000000418 .L0 
     /tmp/ccjsL3AI.s:1206   .text:000000000000041c .L0 
     /tmp/ccjsL3AI.s:1207   .text:000000000000041c .L0 
     /tmp/ccjsL3AI.s:1210   .text:0000000000000424 .L0 
     /tmp/ccjsL3AI.s:1211   .text:0000000000000424 .L0 
     /tmp/ccjsL3AI.s:1214   .text:000000000000042c .L0 
     /tmp/ccjsL3AI.s:1215   .text:0000000000000430 .L0 
     /tmp/ccjsL3AI.s:1216   .text:0000000000000430 .L0 
     /tmp/ccjsL3AI.s:1218   .text:0000000000000434 .L0 
     /tmp/ccjsL3AI.s:1219   .text:0000000000000434 .L0 
     /tmp/ccjsL3AI.s:1221   .text:0000000000000438 .L0 
     /tmp/ccjsL3AI.s:1223   .text:000000000000043c .L0 
     /tmp/ccjsL3AI.s:1226   .text:0000000000000440 .L0 
     /tmp/ccjsL3AI.s:1228   .text:0000000000000440 .L0 
     /tmp/ccjsL3AI.s:1229   .text:0000000000000440 .L0 
     /tmp/ccjsL3AI.s:1232   .text:0000000000000448 .L0 
     /tmp/ccjsL3AI.s:1233   .text:0000000000000448 .L0 
     /tmp/ccjsL3AI.s:1238   .text:000000000000044c .L0 
  src/../h/Riscv.hpp:122    .text:000000000000044c .L0 
     /tmp/ccjsL3AI.s:1248   .text:0000000000000450 .L0 
     /tmp/ccjsL3AI.s:1249   .text:0000000000000450 .L0 
     /tmp/ccjsL3AI.s:1254   .text:0000000000000454 .L0 
  src/../h/Riscv.hpp:197    .text:0000000000000454 .L0 
     /tmp/ccjsL3AI.s:1261   .text:0000000000000458 .L0 
     /tmp/ccjsL3AI.s:1264   .text:000000000000045c .L0 
     /tmp/ccjsL3AI.s:1270   .text:000000000000045c _ZN5Riscv13handleConsoleEv
     /tmp/ccjsL3AI.s:1273   .text:000000000000045c .L0 
     /tmp/ccjsL3AI.s:1274   .text:000000000000045c .L0 
GAS LISTING /tmp/ccjsL3AI.s 			page 51


     /tmp/ccjsL3AI.s:1275   .text:0000000000000460 .L0 
     /tmp/ccjsL3AI.s:1279   .text:000000000000046c .L0 
     /tmp/ccjsL3AI.s:1280   .text:000000000000046c .L0 
     /tmp/ccjsL3AI.s:1281   .text:000000000000046c .L0 
     /tmp/ccjsL3AI.s:1283   .text:0000000000000470 .L0 
     /tmp/ccjsL3AI.s:1285   .text:0000000000000470 .L0 
     /tmp/ccjsL3AI.s:1286   .text:0000000000000470 .L0 
     /tmp/ccjsL3AI.s:1289   .text:0000000000000470 .L0 
     /tmp/ccjsL3AI.s:1290   .text:0000000000000470 .L0 
     /tmp/ccjsL3AI.s:1291   .text:0000000000000470 .L0 
  src/../h/Riscv.hpp:116    .text:0000000000000470 .L0 
     /tmp/ccjsL3AI.s:1299   .text:0000000000000478 .L0 
     /tmp/ccjsL3AI.s:1300   .text:0000000000000478 .L0 
     /tmp/ccjsL3AI.s:1304   .text:000000000000047c .L0 
     /tmp/ccjsL3AI.s:1306   .text:0000000000000480 .L0 
     /tmp/ccjsL3AI.s:1310   .text:0000000000000484 .L0 
     /tmp/ccjsL3AI.s:1311   .text:0000000000000484 .L0 
     /tmp/ccjsL3AI.s:1312   .text:0000000000000484 .L0 
  src/../h/Riscv.hpp:184    .text:0000000000000484 .L0 
     /tmp/ccjsL3AI.s:1320   .text:000000000000048c .L0 
     /tmp/ccjsL3AI.s:1321   .text:000000000000048c .L0 
     /tmp/ccjsL3AI.s:1325   .text:0000000000000490 .L0 
     /tmp/ccjsL3AI.s:1327   .text:0000000000000494 .L0 
     /tmp/ccjsL3AI.s:1328   .text:0000000000000494 .L0 
     /tmp/ccjsL3AI.s:1331   .text:000000000000049c .L0 
     /tmp/ccjsL3AI.s:1334   .text:00000000000004a4 .L0 
     /tmp/ccjsL3AI.s:1335   .text:00000000000004a4 .L0 
     /tmp/ccjsL3AI.s:1340   .text:00000000000004a8 .L0 
  src/../h/Riscv.hpp:122    .text:00000000000004a8 .L0 
     /tmp/ccjsL3AI.s:1350   .text:00000000000004ac .L0 
     /tmp/ccjsL3AI.s:1351   .text:00000000000004ac .L0 
     /tmp/ccjsL3AI.s:1356   .text:00000000000004b0 .L0 
  src/../h/Riscv.hpp:197    .text:00000000000004b0 .L0 
     /tmp/ccjsL3AI.s:1367   .text:00000000000004b4 .L0 
     /tmp/ccjsL3AI.s:1368   .text:00000000000004b4 .L0 
     /tmp/ccjsL3AI.s:1369   .text:00000000000004b8 .L0 
     /tmp/ccjsL3AI.s:1370   .text:00000000000004b8 .L0 
     /tmp/ccjsL3AI.s:1372   .text:00000000000004bc .L0 
     /tmp/ccjsL3AI.s:1373   .text:00000000000004bc .L0 
     /tmp/ccjsL3AI.s:1375   .text:00000000000004c0 .L0 
     /tmp/ccjsL3AI.s:1377   .text:00000000000004c4 .L0 
     /tmp/ccjsL3AI.s:1380   .text:00000000000004c8 .L0 
     /tmp/ccjsL3AI.s:1382   .text:00000000000004c8 .L0 
     /tmp/ccjsL3AI.s:1383   .text:00000000000004c8 .L0 
     /tmp/ccjsL3AI.s:1389   .text:00000000000004d4 .L0 
     /tmp/ccjsL3AI.s:1390   .text:00000000000004d4 .L0 
     /tmp/ccjsL3AI.s:1391   .text:00000000000004d4 .L0 
     /tmp/ccjsL3AI.s:1395   .text:00000000000004e4 .L0 
     /tmp/ccjsL3AI.s:1399   .text:00000000000004ec .L0 
     /tmp/ccjsL3AI.s:1400   .text:00000000000004ec .L0 
     /tmp/ccjsL3AI.s:1404   .text:00000000000004fc .L0 
     /tmp/ccjsL3AI.s:1406   .text:0000000000000500 .L0 
     /tmp/ccjsL3AI.s:1407   .text:0000000000000500 .L0 
     /tmp/ccjsL3AI.s:1411   .text:000000000000050c .L0 
     /tmp/ccjsL3AI.s:1413   .text:0000000000000510 .L0 
     /tmp/ccjsL3AI.s:1414   .text:0000000000000510 .L0 
     /tmp/ccjsL3AI.s:1423   .text:0000000000000528 .L0 
GAS LISTING /tmp/ccjsL3AI.s 			page 52


     /tmp/ccjsL3AI.s:1424   .text:0000000000000528 .L0 
     /tmp/ccjsL3AI.s:1428   .text:0000000000000534 .L0 
     /tmp/ccjsL3AI.s:1429   .text:0000000000000534 .L0 
     /tmp/ccjsL3AI.s:1434   .text:0000000000000538 .L0 
  src/../h/Riscv.hpp:122    .text:0000000000000538 .L0 
     /tmp/ccjsL3AI.s:1444   .text:000000000000053c .L0 
     /tmp/ccjsL3AI.s:1445   .text:000000000000053c .L0 
     /tmp/ccjsL3AI.s:1450   .text:0000000000000540 .L0 
  src/../h/Riscv.hpp:197    .text:0000000000000540 .L0 
     /tmp/ccjsL3AI.s:1462   .text:0000000000000544 .L0 
     /tmp/ccjsL3AI.s:1463   .text:0000000000000544 .L0 
     /tmp/ccjsL3AI.s:1464   .text:0000000000000544 .L0 
     /tmp/ccjsL3AI.s:1465   .text:0000000000000544 .L0 
     /tmp/ccjsL3AI.s:1472   .text:000000000000054c .L0 
     /tmp/ccjsL3AI.s:1475   .text:0000000000000550 .L0 
     /tmp/ccjsL3AI.s:1481   .text:0000000000000550 _ZN5Riscv4trapEv
     /tmp/ccjsL3AI.s:1484   .text:0000000000000550 .L0 
     /tmp/ccjsL3AI.s:1485   .text:0000000000000550 .L0 
     /tmp/ccjsL3AI.s:1486   .text:0000000000000554 .L0 
     /tmp/ccjsL3AI.s:1489   .text:000000000000055c .L0 
     /tmp/ccjsL3AI.s:1490   .text:000000000000055c .L0 
     /tmp/ccjsL3AI.s:1492   .text:0000000000000560 .L0 
     /tmp/ccjsL3AI.s:1494   .text:0000000000000560 .L0 
     /tmp/ccjsL3AI.s:1495   .text:0000000000000560 .L0 
       src/Riscv.cpp:14     .text:0000000000000560 .L0 
     /tmp/ccjsL3AI.s:1504   .text:0000000000000564 .L0 
     /tmp/ccjsL3AI.s:1505   .text:0000000000000564 .L0 
     /tmp/ccjsL3AI.s:1506   .text:0000000000000564 .L0 
  src/../h/Riscv.hpp:104    .text:0000000000000564 .L0 
     /tmp/ccjsL3AI.s:1514   .text:000000000000056c .L0 
     /tmp/ccjsL3AI.s:1515   .text:000000000000056c .L0 
     /tmp/ccjsL3AI.s:1520   .text:0000000000000570 .L0 
     /tmp/ccjsL3AI.s:1531   .text:0000000000000598 .L0 
     /tmp/ccjsL3AI.s:1532   .text:0000000000000598 .L0 
     /tmp/ccjsL3AI.s:1533   .text:0000000000000598 .L0 
     /tmp/ccjsL3AI.s:1534   .text:0000000000000598 .L0 
     /tmp/ccjsL3AI.s:1537   .text:00000000000005a0 .L0 
     /tmp/ccjsL3AI.s:1538   .text:00000000000005a0 .L0 
     /tmp/ccjsL3AI.s:1542   .text:00000000000005a4 .L0 
     /tmp/ccjsL3AI.s:1550   .text:00000000000005bc .L0 
     /tmp/ccjsL3AI.s:1551   .text:00000000000005bc .L0 
     /tmp/ccjsL3AI.s:1552   .text:00000000000005bc .L0 
     /tmp/ccjsL3AI.s:1553   .text:00000000000005bc .L0 
     /tmp/ccjsL3AI.s:1556   .text:00000000000005bc .L0 
     /tmp/ccjsL3AI.s:1558   .text:00000000000005bc .L0 
     /tmp/ccjsL3AI.s:1559   .text:00000000000005bc .L0 
     /tmp/ccjsL3AI.s:1560   .text:00000000000005bc .L0 
     /tmp/ccjsL3AI.s:1566   .text:00000000000005cc .L0 
     /tmp/ccjsL3AI.s:1572   .text:00000000000005d0 .L0 
     /tmp/ccjsL3AI.s:1577   .text:00000000000005d8 .L0 
     /tmp/ccjsL3AI.s:1578   .text:00000000000005dc .L0 
     /tmp/ccjsL3AI.s:1579   .text:00000000000005dc .L0 
     /tmp/ccjsL3AI.s:1581   .text:00000000000005e0 .L0 
     /tmp/ccjsL3AI.s:1582   .text:00000000000005e0 .L0 
     /tmp/ccjsL3AI.s:1584   .text:00000000000005e4 .L0 
     /tmp/ccjsL3AI.s:1588   .text:00000000000005e8 .L0 
     /tmp/ccjsL3AI.s:1590   .text:00000000000005e8 .L0 
GAS LISTING /tmp/ccjsL3AI.s 			page 53


     /tmp/ccjsL3AI.s:1591   .text:00000000000005e8 .L0 
     /tmp/ccjsL3AI.s:1592   .text:00000000000005e8 .L0 
     /tmp/ccjsL3AI.s:1593   .text:00000000000005e8 .L0 
     /tmp/ccjsL3AI.s:1594   .text:00000000000005e8 .L0 
     /tmp/ccjsL3AI.s:1597   .text:00000000000005f0 .L0 
     /tmp/ccjsL3AI.s:1601   .text:00000000000005f4 .L0 
     /tmp/ccjsL3AI.s:1602   .text:00000000000005f4 .L0 
     /tmp/ccjsL3AI.s:1603   .text:00000000000005f4 .L0 
     /tmp/ccjsL3AI.s:1604   .text:00000000000005f4 .L0 
     /tmp/ccjsL3AI.s:1607   .text:00000000000005fc .L0 
     /tmp/ccjsL3AI.s:1608   .text:0000000000000600 .L0 
     /tmp/ccjsL3AI.s:1622   .text:0000000000000600 .L0 
     /tmp/ccjsL3AI.s:157    .rodata:0000000000000000 .L6
     /tmp/ccjsL3AI.s:149    .text:0000000000000084 .L0 
     /tmp/ccjsL3AI.s:1391   .text:00000000000004d4 .L0 
     /tmp/ccjsL3AI.s:1400   .text:00000000000004ec .L0 
     /tmp/ccjsL3AI.s:269    .text:00000000000000bc .L4
     /tmp/ccjsL3AI.s:528    .text:00000000000001a8 .L35
     /tmp/ccjsL3AI.s:516    .text:00000000000001a0 .L21
     /tmp/ccjsL3AI.s:644    .text:0000000000000228 .L36
     /tmp/ccjsL3AI.s:632    .text:0000000000000220 .L22
     /tmp/ccjsL3AI.s:689    .text:000000000000024c .L37
     /tmp/ccjsL3AI.s:678    .text:0000000000000244 .L23
     /tmp/ccjsL3AI.s:912    .text:00000000000002f4 .L38
     /tmp/ccjsL3AI.s:899    .text:00000000000002ec .L24
     /tmp/ccjsL3AI.s:1225   .text:0000000000000440 .L42
     /tmp/ccjsL3AI.s:1172   .text:000000000000040c .L40
     /tmp/ccjsL3AI.s:1379   .text:00000000000004c8 .L44
     /tmp/ccjsL3AI.s:1420   .text:0000000000000528 .L46
     /tmp/ccjsL3AI.s:1387   .text:00000000000004d4 .L47
     /tmp/ccjsL3AI.s:1366   .text:00000000000004b4 .L43
     /tmp/ccjsL3AI.s:1540   .text:00000000000005a4 .L58
     /tmp/ccjsL3AI.s:1599   .text:00000000000005f4 .L55
     /tmp/ccjsL3AI.s:1575   .text:00000000000005d8 .L50
     /tmp/ccjsL3AI.s:1587   .text:00000000000005e8 .L52
     /tmp/ccjsL3AI.s:1548   .text:00000000000005bc .L53
     /tmp/ccjsL3AI.s:1568   .text:00000000000005d0 .L59
     /tmp/ccjsL3AI.s:226    .text:000000000000009c .L20
     /tmp/ccjsL3AI.s:325    .text:00000000000000f0 .L19
     /tmp/ccjsL3AI.s:369    .text:0000000000000118 .L18
     /tmp/ccjsL3AI.s:410    .text:000000000000013c .L17
     /tmp/ccjsL3AI.s:533    .text:00000000000001b0 .L16
     /tmp/ccjsL3AI.s:560    .text:00000000000001d0 .L15
     /tmp/ccjsL3AI.s:570    .text:00000000000001dc .L14
     /tmp/ccjsL3AI.s:649    .text:0000000000000230 .L13
     /tmp/ccjsL3AI.s:700    .text:000000000000025c .L12
     /tmp/ccjsL3AI.s:738    .text:0000000000000278 .L11
     /tmp/ccjsL3AI.s:776    .text:0000000000000294 .L10
     /tmp/ccjsL3AI.s:832    .text:00000000000002bc .L9
     /tmp/ccjsL3AI.s:870    .text:00000000000002d8 .L8
     /tmp/ccjsL3AI.s:936    .text:0000000000000324 .L7
     /tmp/ccjsL3AI.s:960    .text:000000000000033c .L5
     /tmp/ccjsL3AI.s:232    .text:000000000000009c .LEHB0
     /tmp/ccjsL3AI.s:46     .text:0000000000000020 .LFB34
     /tmp/ccjsL3AI.s:499    .text:000000000000017c .LEHE0
     /tmp/ccjsL3AI.s:504    .text:000000000000018c .LEHB1
     /tmp/ccjsL3AI.s:507    .text:0000000000000194 .LEHE1
GAS LISTING /tmp/ccjsL3AI.s 			page 54


     /tmp/ccjsL3AI.s:998    .text:0000000000000364 .L31
     /tmp/ccjsL3AI.s:539    .text:00000000000001b0 .LEHB2
     /tmp/ccjsL3AI.s:617    .text:0000000000000204 .LEHE2
     /tmp/ccjsL3AI.s:620    .text:000000000000020c .LEHB3
     /tmp/ccjsL3AI.s:623    .text:0000000000000214 .LEHE3
     /tmp/ccjsL3AI.s:1012   .text:0000000000000380 .L32
     /tmp/ccjsL3AI.s:691    .text:000000000000024c .LEHB4
     /tmp/ccjsL3AI.s:994    .text:0000000000000360 .LEHE4
     /tmp/ccjsL3AI.s:1008   .text:0000000000000378 .LEHB5
     /tmp/ccjsL3AI.s:1011   .text:0000000000000380 .LEHE5
     /tmp/ccjsL3AI.s:1022   .text:0000000000000394 .LEHB6
     /tmp/ccjsL3AI.s:1025   .text:000000000000039c .LEHE6
     /tmp/ccjsL3AI.s:4988   .debug_abbrev:0000000000000000 .Ldebug_abbrev0
     /tmp/ccjsL3AI.s:7136   .debug_str:0000000000000efe .LASF291
     /tmp/ccjsL3AI.s:6762   .debug_str:00000000000002e8 .LASF292
     /tmp/ccjsL3AI.s:6898   .debug_str:0000000000000715 .LASF293
     /tmp/ccjsL3AI.s:5      .text:0000000000000000 .Ltext0
     /tmp/ccjsL3AI.s:1611   .text:0000000000000600 .Letext0
     /tmp/ccjsL3AI.s:6680   .debug_line:0000000000000000 .Ldebug_line0
     /tmp/ccjsL3AI.s:6866   .debug_str:0000000000000631 .LASF0
     /tmp/ccjsL3AI.s:6902   .debug_str:0000000000000766 .LASF1
     /tmp/ccjsL3AI.s:7056   .debug_str:0000000000000c2e .LASF2
     /tmp/ccjsL3AI.s:6826   .debug_str:00000000000004c8 .LASF3
     /tmp/ccjsL3AI.s:7060   .debug_str:0000000000000c54 .LASF4
     /tmp/ccjsL3AI.s:6882   .debug_str:0000000000000696 .LASF5
     /tmp/ccjsL3AI.s:6690   .debug_str:000000000000003f .LASF6
     /tmp/ccjsL3AI.s:7020   .debug_str:0000000000000b12 .LASF7
     /tmp/ccjsL3AI.s:7008   .debug_str:0000000000000abc .LASF8
     /tmp/ccjsL3AI.s:6890   .debug_str:00000000000006d7 .LASF9
     /tmp/ccjsL3AI.s:6822   .debug_str:00000000000004ab .LASF10
     /tmp/ccjsL3AI.s:6844   .debug_str:0000000000000560 .LASF11
     /tmp/ccjsL3AI.s:6750   .debug_str:000000000000028f .LASF12
     /tmp/ccjsL3AI.s:6814   .debug_str:000000000000044e .LASF13
     /tmp/ccjsL3AI.s:6764   .debug_str:00000000000002f6 .LASF14
     /tmp/ccjsL3AI.s:6748   .debug_str:000000000000027f .LASF15
     /tmp/ccjsL3AI.s:7106   .debug_str:0000000000000dfa .LASF16
     /tmp/ccjsL3AI.s:6794   .debug_str:00000000000003c9 .LASF17
     /tmp/ccjsL3AI.s:7086   .debug_str:0000000000000d48 .LASF18
     /tmp/ccjsL3AI.s:6908   .debug_str:000000000000079e .LASF19
     /tmp/ccjsL3AI.s:6886   .debug_str:00000000000006b9 .LASF20
     /tmp/ccjsL3AI.s:7276   .debug_str:00000000000013cc .LASF21
     /tmp/ccjsL3AI.s:6998   .debug_str:0000000000000a80 .LASF22
     /tmp/ccjsL3AI.s:7272   .debug_str:00000000000013af .LASF23
     /tmp/ccjsL3AI.s:6736   .debug_str:0000000000000206 .LASF24
     /tmp/ccjsL3AI.s:7204   .debug_str:00000000000011ba .LASF25
     /tmp/ccjsL3AI.s:7230   .debug_str:000000000000125e .LASF26
     /tmp/ccjsL3AI.s:6808   .debug_str:0000000000000424 .LASF27
     /tmp/ccjsL3AI.s:6718   .debug_str:0000000000000147 .LASF28
     /tmp/ccjsL3AI.s:7110   .debug_str:0000000000000e13 .LASF29
     /tmp/ccjsL3AI.s:6700   .debug_str:000000000000007c .LASF30
     /tmp/ccjsL3AI.s:7160   .debug_str:0000000000001073 .LASF31
     /tmp/ccjsL3AI.s:7172   .debug_str:00000000000010e5 .LASF32
     /tmp/ccjsL3AI.s:7184   .debug_str:000000000000111a .LASF33
     /tmp/ccjsL3AI.s:7258   .debug_str:000000000000132a .LASF34
     /tmp/ccjsL3AI.s:6720   .debug_str:000000000000015a .LASF35
     /tmp/ccjsL3AI.s:6976   .debug_str:00000000000009aa .LASF36
     /tmp/ccjsL3AI.s:6832   .debug_str:00000000000004f7 .LASF37
GAS LISTING /tmp/ccjsL3AI.s 			page 55


     /tmp/ccjsL3AI.s:7098   .debug_str:0000000000000dbb .LASF38
     /tmp/ccjsL3AI.s:6868   .debug_str:000000000000063e .LASF39
     /tmp/ccjsL3AI.s:7082   .debug_str:0000000000000d2d .LASF40
     /tmp/ccjsL3AI.s:6876   .debug_str:0000000000000673 .LASF41
     /tmp/ccjsL3AI.s:7208   .debug_str:00000000000011d3 .LASF109
     /tmp/ccjsL3AI.s:7038   .debug_str:0000000000000bb4 .LASF294
     /tmp/ccjsL3AI.s:6906   .debug_str:0000000000000795 .LASF42
     /tmp/ccjsL3AI.s:6800   .debug_str:0000000000000403 .LASF43
     /tmp/ccjsL3AI.s:7236   .debug_str:000000000000128a .LASF44
     /tmp/ccjsL3AI.s:6852   .debug_str:00000000000005cc .LASF45
     /tmp/ccjsL3AI.s:6860   .debug_str:00000000000005f8 .LASF47
     /tmp/ccjsL3AI.s:7232   .debug_str:000000000000126c .LASF46
     /tmp/ccjsL3AI.s:6772   .debug_str:0000000000000354 .LASF48
     /tmp/ccjsL3AI.s:6776   .debug_str:000000000000036c .LASF49
     /tmp/ccjsL3AI.s:7048   .debug_str:0000000000000bf6 .LASF51
     /tmp/ccjsL3AI.s:6856   .debug_str:00000000000005e0 .LASF53
     /tmp/ccjsL3AI.s:6770   .debug_str:0000000000000342 .LASF55
     /tmp/ccjsL3AI.s:7178   .debug_str:0000000000001100 .LASF50
     /tmp/ccjsL3AI.s:7162   .debug_str:000000000000107d .LASF52
     /tmp/ccjsL3AI.s:7052   .debug_str:0000000000000c1a .LASF54
     /tmp/ccjsL3AI.s:6986   .debug_str:0000000000000a0c .LASF56
     /tmp/ccjsL3AI.s:7218   .debug_str:000000000000122c .LASF57
     /tmp/ccjsL3AI.s:6990   .debug_str:0000000000000a2e .LASF58
     /tmp/ccjsL3AI.s:7220   .debug_str:0000000000001231 .LASF59
     /tmp/ccjsL3AI.s:6884   .debug_str:00000000000006a8 .LASF60
     /tmp/ccjsL3AI.s:7222   .debug_str:0000000000001236 .LASF61
     /tmp/ccjsL3AI.s:6780   .debug_str:0000000000000378 .LASF62
     /tmp/ccjsL3AI.s:7224   .debug_str:000000000000123b .LASF63
     /tmp/ccjsL3AI.s:7278   .debug_str:00000000000013df .LASF64
     /tmp/ccjsL3AI.s:7226   .debug_str:0000000000001240 .LASF65
     /tmp/ccjsL3AI.s:7154   .debug_str:000000000000104f .LASF66
     /tmp/ccjsL3AI.s:7026   .debug_str:0000000000000b3d .LASF67
     /tmp/ccjsL3AI.s:7034   .debug_str:0000000000000b8d .LASF68
     /tmp/ccjsL3AI.s:6970   .debug_str:0000000000000994 .LASF69
     /tmp/ccjsL3AI.s:6894   .debug_str:00000000000006fd .LASF70
     /tmp/ccjsL3AI.s:6958   .debug_str:0000000000000944 .LASF71
     /tmp/ccjsL3AI.s:7142   .debug_str:0000000000000ff0 .LASF72
     /tmp/ccjsL3AI.s:6962   .debug_str:000000000000096b .LASF73
     /tmp/ccjsL3AI.s:6984   .debug_str:00000000000009f8 .LASF74
     /tmp/ccjsL3AI.s:6910   .debug_str:00000000000007ad .LASF75
     /tmp/ccjsL3AI.s:7036   .debug_str:0000000000000ba0 .LASF76
     /tmp/ccjsL3AI.s:7274   .debug_str:00000000000013c4 .LASF77
     /tmp/ccjsL3AI.s:6872   .debug_str:0000000000000651 .LASF78
     /tmp/ccjsL3AI.s:7102   .debug_str:0000000000000deb .LASF79
     /tmp/ccjsL3AI.s:7064   .debug_str:0000000000000c69 .LASF80
     /tmp/ccjsL3AI.s:7066   .debug_str:0000000000000c7c .LASF81
     /tmp/ccjsL3AI.s:6756   .debug_str:00000000000002b5 .LASF82
     /tmp/ccjsL3AI.s:6788   .debug_str:00000000000003a7 .LASF83
     /tmp/ccjsL3AI.s:6858   .debug_str:00000000000005e6 .LASF84
     /tmp/ccjsL3AI.s:6930   .debug_str:000000000000084b .LASF85
     /tmp/ccjsL3AI.s:6850   .debug_str:00000000000005a4 .LASF86
     /tmp/ccjsL3AI.s:7150   .debug_str:0000000000001020 .LASF87
     /tmp/ccjsL3AI.s:6734   .debug_str:00000000000001dd .LASF88
     /tmp/ccjsL3AI.s:6870   .debug_str:000000000000064b .LASF89
     /tmp/ccjsL3AI.s:6918   .debug_str:00000000000007db .LASF90
     /tmp/ccjsL3AI.s:6692   .debug_str:0000000000000046 .LASF91
     /tmp/ccjsL3AI.s:7058   .debug_str:0000000000000c3c .LASF92
GAS LISTING /tmp/ccjsL3AI.s 			page 56


     /tmp/ccjsL3AI.s:7054   .debug_str:0000000000000c23 .LASF93
     /tmp/ccjsL3AI.s:7262   .debug_str:0000000000001364 .LASF94
     /tmp/ccjsL3AI.s:7212   .debug_str:00000000000011ec .LASF95
     /tmp/ccjsL3AI.s:7242   .debug_str:00000000000012a3 .LASF96
     /tmp/ccjsL3AI.s:6754   .debug_str:00000000000002ab .LASF97
     /tmp/ccjsL3AI.s:6946   .debug_str:00000000000008d5 .LASF98
     /tmp/ccjsL3AI.s:6896   .debug_str:0000000000000710 .LASF99
     /tmp/ccjsL3AI.s:6944   .debug_str:00000000000008c4 .LASF100
     /tmp/ccjsL3AI.s:7190   .debug_str:000000000000115b .LASF101
     /tmp/ccjsL3AI.s:6904   .debug_str:0000000000000779 .LASF102
     /tmp/ccjsL3AI.s:7062   .debug_str:0000000000000c5b .LASF103
     /tmp/ccjsL3AI.s:6840   .debug_str:000000000000053a .LASF105
     /tmp/ccjsL3AI.s:7156   .debug_str:0000000000001060 .LASF104
     /tmp/ccjsL3AI.s:7228   .debug_str:0000000000001245 .LASF106
     /tmp/ccjsL3AI.s:7004   .debug_str:0000000000000aa6 .LASF107
     /tmp/ccjsL3AI.s:7170   .debug_str:00000000000010ca .LASF108
     /tmp/ccjsL3AI.s:7000   .debug_str:0000000000000a91 .LASF110
     /tmp/ccjsL3AI.s:6786   .debug_str:0000000000000397 .LASF295
     /tmp/ccjsL3AI.s:7012   .debug_str:0000000000000ada .LASF111
     /tmp/ccjsL3AI.s:7268   .debug_str:000000000000139f .LASF112
     /tmp/ccjsL3AI.s:7032   .debug_str:0000000000000b78 .LASF113
     /tmp/ccjsL3AI.s:6702   .debug_str:0000000000000087 .LASF114
     /tmp/ccjsL3AI.s:7130   .debug_str:0000000000000ee4 .LASF115
     /tmp/ccjsL3AI.s:6834   .debug_str:0000000000000508 .LASF117
     /tmp/ccjsL3AI.s:6940   .debug_str:000000000000089e .LASF116
     /tmp/ccjsL3AI.s:6994   .debug_str:0000000000000a4f .LASF118
     /tmp/ccjsL3AI.s:6920   .debug_str:00000000000007ed .LASF119
     /tmp/ccjsL3AI.s:7100   .debug_str:0000000000000dc6 .LASF120
     /tmp/ccjsL3AI.s:6954   .debug_str:0000000000000920 .LASF124
     /tmp/ccjsL3AI.s:6728   .debug_str:000000000000019c .LASF126
     /tmp/ccjsL3AI.s:6708   .debug_str:00000000000000f8 .LASF121
     /tmp/ccjsL3AI.s:6812   .debug_str:0000000000000449 .LASF122
     /tmp/ccjsL3AI.s:7202   .debug_str:00000000000011b1 .LASF123
     /tmp/ccjsL3AI.s:7250   .debug_str:00000000000012e4 .LASF215
     /tmp/ccjsL3AI.s:7264   .debug_str:000000000000137c .LASF125
     /tmp/ccjsL3AI.s:6838   .debug_str:000000000000052e .LASF127
     /tmp/ccjsL3AI.s:6684   .debug_str:000000000000000b .LASF128
     /tmp/ccjsL3AI.s:6926   .debug_str:000000000000081d .LASF129
     /tmp/ccjsL3AI.s:6830   .debug_str:00000000000004ec .LASF130
     /tmp/ccjsL3AI.s:7084   .debug_str:0000000000000d32 .LASF131
     /tmp/ccjsL3AI.s:6682   .debug_str:0000000000000000 .LASF132
     /tmp/ccjsL3AI.s:7128   .debug_str:0000000000000ecc .LASF133
     /tmp/ccjsL3AI.s:6782   .debug_str:0000000000000389 .LASF134
     /tmp/ccjsL3AI.s:6758   .debug_str:00000000000002c8 .LASF135
     /tmp/ccjsL3AI.s:7148   .debug_str:000000000000101a .LASF136
     /tmp/ccjsL3AI.s:7118   .debug_str:0000000000000e62 .LASF137
     /tmp/ccjsL3AI.s:6760   .debug_str:00000000000002db .LASF138
     /tmp/ccjsL3AI.s:6820   .debug_str:0000000000000493 .LASF139
     /tmp/ccjsL3AI.s:7146   .debug_str:000000000000100e .LASF140
     /tmp/ccjsL3AI.s:7246   .debug_str:00000000000012c1 .LASF141
     /tmp/ccjsL3AI.s:6934   .debug_str:0000000000000870 .LASF142
     /tmp/ccjsL3AI.s:7186   .debug_str:0000000000001133 .LASF143
     /tmp/ccjsL3AI.s:6900   .debug_str:0000000000000753 .LASF144
     /tmp/ccjsL3AI.s:7192   .debug_str:000000000000116a .LASF145
     /tmp/ccjsL3AI.s:6892   .debug_str:00000000000006ea .LASF146
     /tmp/ccjsL3AI.s:7256   .debug_str:000000000000130c .LASF147
     /tmp/ccjsL3AI.s:7096   .debug_str:0000000000000da6 .LASF148
GAS LISTING /tmp/ccjsL3AI.s 			page 57


     /tmp/ccjsL3AI.s:7076   .debug_str:0000000000000cf2 .LASF149
     /tmp/ccjsL3AI.s:6696   .debug_str:0000000000000061 .LASF150
     /tmp/ccjsL3AI.s:6912   .debug_str:00000000000007b5 .LASF151
     /tmp/ccjsL3AI.s:6704   .debug_str:00000000000000b4 .LASF152
     /tmp/ccjsL3AI.s:7164   .debug_str:0000000000001092 .LASF153
     /tmp/ccjsL3AI.s:6828   .debug_str:00000000000004cf .LASF154
     /tmp/ccjsL3AI.s:7260   .debug_str:000000000000133c .LASF155
     /tmp/ccjsL3AI.s:6888   .debug_str:00000000000006c7 .LASF156
     /tmp/ccjsL3AI.s:7112   .debug_str:0000000000000e24 .LASF157
     /tmp/ccjsL3AI.s:6816   .debug_str:000000000000045d .LASF158
     /tmp/ccjsL3AI.s:7016   .debug_str:0000000000000aec .LASF159
     /tmp/ccjsL3AI.s:6938   .debug_str:000000000000088e .LASF160
     /tmp/ccjsL3AI.s:6980   .debug_str:00000000000009c3 .LASF161
     /tmp/ccjsL3AI.s:7108   .debug_str:0000000000000e06 .LASF162
     /tmp/ccjsL3AI.s:6774   .debug_str:0000000000000365 .LASF163
     /tmp/ccjsL3AI.s:6746   .debug_str:0000000000000267 .LASF164
     /tmp/ccjsL3AI.s:7144   .debug_str:0000000000001004 .LASF165
     /tmp/ccjsL3AI.s:7200   .debug_str:00000000000011a1 .LASF166
     /tmp/ccjsL3AI.s:7134   .debug_str:0000000000000ef6 .LASF167
     /tmp/ccjsL3AI.s:6732   .debug_str:00000000000001cf .LASF168
     /tmp/ccjsL3AI.s:7234   .debug_str:0000000000001271 .LASF169
     /tmp/ccjsL3AI.s:6726   .debug_str:0000000000000191 .LASF170
     /tmp/ccjsL3AI.s:6952   .debug_str:0000000000000916 .LASF171
     /tmp/ccjsL3AI.s:6744   .debug_str:000000000000025a .LASF172
     /tmp/ccjsL3AI.s:6974   .debug_str:00000000000009a1 .LASF173
     /tmp/ccjsL3AI.s:6854   .debug_str:00000000000005d7 .LASF174
     /tmp/ccjsL3AI.s:6792   .debug_str:00000000000003b9 .LASF175
     /tmp/ccjsL3AI.s:6716   .debug_str:000000000000013c .LASF176
     /tmp/ccjsL3AI.s:7196   .debug_str:000000000000118d .LASF177
     /tmp/ccjsL3AI.s:6790   .debug_str:00000000000003ad .LASF178
     /tmp/ccjsL3AI.s:7176   .debug_str:00000000000010f4 .LASF179
     /tmp/ccjsL3AI.s:7088   .debug_str:0000000000000d5e .LASF180
     /tmp/ccjsL3AI.s:6932   .debug_str:0000000000000866 .LASF181
     /tmp/ccjsL3AI.s:7198   .debug_str:0000000000001197 .LASF182
     /tmp/ccjsL3AI.s:6712   .debug_str:000000000000011a .LASF183
     /tmp/ccjsL3AI.s:6738   .debug_str:0000000000000214 .LASF184
     /tmp/ccjsL3AI.s:7002   .debug_str:0000000000000aa1 .LASF185
     /tmp/ccjsL3AI.s:6988   .debug_str:0000000000000a21 .LASF186
     /tmp/ccjsL3AI.s:7166   .debug_str:00000000000010b9 .LASF187
     /tmp/ccjsL3AI.s:6698   .debug_str:0000000000000069 .LASF188
     /tmp/ccjsL3AI.s:7078   .debug_str:0000000000000d12 .LASF189
     /tmp/ccjsL3AI.s:7024   .debug_str:0000000000000b2f .LASF190
     /tmp/ccjsL3AI.s:6784   .debug_str:0000000000000392 .LASF191
     /tmp/ccjsL3AI.s:6992   .debug_str:0000000000000a3f .LASF192
     /tmp/ccjsL3AI.s:7116   .debug_str:0000000000000e5b .LASF193
     /tmp/ccjsL3AI.s:6730   .debug_str:00000000000001bd .LASF194
     /tmp/ccjsL3AI.s:6996   .debug_str:0000000000000a73 .LASF195
     /tmp/ccjsL3AI.s:6948   .debug_str:00000000000008eb .LASF196
     /tmp/ccjsL3AI.s:7018   .debug_str:0000000000000b08 .LASF197
     /tmp/ccjsL3AI.s:6810   .debug_str:0000000000000434 .LASF198
     /tmp/ccjsL3AI.s:7104   .debug_str:0000000000000df2 .LASF199
     /tmp/ccjsL3AI.s:7210   .debug_str:00000000000011d9 .LASF200
     /tmp/ccjsL3AI.s:6864   .debug_str:000000000000062b .LASF201
     /tmp/ccjsL3AI.s:6922   .debug_str:00000000000007f8 .LASF202
     /tmp/ccjsL3AI.s:7028   .debug_str:0000000000000b44 .LASF203
     /tmp/ccjsL3AI.s:7214   .debug_str:00000000000011f6 .LASF204
     /tmp/ccjsL3AI.s:6686   .debug_str:000000000000001b .LASF205
GAS LISTING /tmp/ccjsL3AI.s 			page 58


     /tmp/ccjsL3AI.s:6880   .debug_str:0000000000000683 .LASF206
     /tmp/ccjsL3AI.s:7254   .debug_str:0000000000001302 .LASF207
     /tmp/ccjsL3AI.s:6806   .debug_str:000000000000041e .LASF208
     /tmp/ccjsL3AI.s:6848   .debug_str:0000000000000591 .LASF209
     /tmp/ccjsL3AI.s:6842   .debug_str:0000000000000555 .LASF210
     /tmp/ccjsL3AI.s:7266   .debug_str:0000000000001389 .LASF211
     /tmp/ccjsL3AI.s:7120   .debug_str:0000000000000e77 .LASF212
     /tmp/ccjsL3AI.s:7010   .debug_str:0000000000000acf .LASF213
     /tmp/ccjsL3AI.s:7092   .debug_str:0000000000000d81 .LASF214
     /tmp/ccjsL3AI.s:6862   .debug_str:0000000000000610 .LASF216
     /tmp/ccjsL3AI.s:7050   .debug_str:0000000000000c08 .LASF217
     /tmp/ccjsL3AI.s:6706   .debug_str:00000000000000cf .LASF218
     /tmp/ccjsL3AI.s:6924   .debug_str:0000000000000809 .LASF219
     /tmp/ccjsL3AI.s:7126   .debug_str:0000000000000eb8 .LASF220
     /tmp/ccjsL3AI.s:7070   .debug_str:0000000000000c9a .LASF222
     /tmp/ccjsL3AI.s:7074   .debug_str:0000000000000ce0 .LASF221
     /tmp/ccjsL3AI.s:7138   .debug_str:0000000000000fc2 .LASF223
     /tmp/ccjsL3AI.s:7044   .debug_str:0000000000000be9 .LASF224
     /tmp/ccjsL3AI.s:7072   .debug_str:0000000000000cc5 .LASF233
     /tmp/ccjsL3AI.s:6824   .debug_str:00000000000004bb .LASF225
     /tmp/ccjsL3AI.s:7022   .debug_str:0000000000000b19 .LASF226
     /tmp/ccjsL3AI.s:7216   .debug_str:0000000000001214 .LASF296
     /tmp/ccjsL3AI.s:6688   .debug_str:0000000000000023 .LASF227
     /tmp/ccjsL3AI.s:6694   .debug_str:0000000000000051 .LASF228
     /tmp/ccjsL3AI.s:6818   .debug_str:000000000000046d .LASF229
     /tmp/ccjsL3AI.s:6752   .debug_str:000000000000029e .LASF230
     /tmp/ccjsL3AI.s:7030   .debug_str:0000000000000b52 .LASF231
     /tmp/ccjsL3AI.s:6964   .debug_str:0000000000000973 .LASF232
     /tmp/ccjsL3AI.s:6722   .debug_str:000000000000016d .LASF234
     /tmp/ccjsL3AI.s:6916   .debug_str:00000000000007d2 .LASF235
     /tmp/ccjsL3AI.s:6936   .debug_str:000000000000087d .LASF236
     /tmp/ccjsL3AI.s:6878   .debug_str:000000000000067b .LASF237
     /tmp/ccjsL3AI.s:7114   .debug_str:0000000000000e44 .LASF238
     /tmp/ccjsL3AI.s:7252   .debug_str:00000000000012fa .LASF239
     /tmp/ccjsL3AI.s:7068   .debug_str:0000000000000c83 .LASF240
     /tmp/ccjsL3AI.s:6710   .debug_str:0000000000000111 .LASF241
     /tmp/ccjsL3AI.s:6982   .debug_str:00000000000009df .LASF242
     /tmp/ccjsL3AI.s:7132   .debug_str:0000000000000eed .LASF243
     /tmp/ccjsL3AI.s:7090   .debug_str:0000000000000d68 .LASF244
     /tmp/ccjsL3AI.s:6766   .debug_str:0000000000000306 .LASF245
     /tmp/ccjsL3AI.s:7042   .debug_str:0000000000000bc6 .LASF246
     /tmp/ccjsL3AI.s:7152   .debug_str:000000000000103c .LASF247
     /tmp/ccjsL3AI.s:6846   .debug_str:000000000000056e .LASF248
     /tmp/ccjsL3AI.s:6836   .debug_str:0000000000000528 .LASF249
     /tmp/ccjsL3AI.s:7158   .debug_str:000000000000106c .LASF250
     /tmp/ccjsL3AI.s:7270   .debug_str:00000000000013a9 .LASF251
     /tmp/ccjsL3AI.s:7014   .debug_str:0000000000000ae6 .LASF252
     /tmp/ccjsL3AI.s:7168   .debug_str:00000000000010c1 .LASF297
     /tmp/ccjsL3AI.s:7122   .debug_str:0000000000000ea0 .LASF253
     /tmp/ccjsL3AI.s:6950   .debug_str:0000000000000908 .LASF254
     /tmp/ccjsL3AI.s:7124   .debug_str:0000000000000ea5 .LASF255
     /tmp/ccjsL3AI.s:6768   .debug_str:0000000000000319 .LASF256
     /tmp/ccjsL3AI.s:7182   .debug_str:0000000000001114 .LASF257
     /tmp/ccjsL3AI.s:6942   .debug_str:00000000000008a9 .LASF258
     /tmp/ccjsL3AI.s:7280   .debug_str:00000000000013f0 .LASF259
     /tmp/ccjsL3AI.s:6956   .debug_str:0000000000000925 .LASF260
     /tmp/ccjsL3AI.s:6802   .debug_str:000000000000040c .LASF261
GAS LISTING /tmp/ccjsL3AI.s 			page 59


     /tmp/ccjsL3AI.s:6740   .debug_str:000000000000021a .LASF262
     /tmp/ccjsL3AI.s:7206   .debug_str:00000000000011c9 .LASF263
     /tmp/ccjsL3AI.s:6960   .debug_str:000000000000094c .LASF264
     /tmp/ccjsL3AI.s:7180   .debug_str:0000000000001109 .LASF265
     /tmp/ccjsL3AI.s:6928   .debug_str:000000000000082a .LASF266
     /tmp/ccjsL3AI.s:7238   .debug_str:0000000000001293 .LASF267
     /tmp/ccjsL3AI.s:6742   .debug_str:000000000000023b .LASF268
     /tmp/ccjsL3AI.s:7244   .debug_str:00000000000012b9 .LASF269
     /tmp/ccjsL3AI.s:6796   .debug_str:00000000000003df .LASF270
     /tmp/ccjsL3AI.s:6798   .debug_str:00000000000003fd .LASF271
     /tmp/ccjsL3AI.s:7040   .debug_str:0000000000000bbf .LASF272
     /tmp/ccjsL3AI.s:6968   .debug_str:000000000000097d .LASF273
     /tmp/ccjsL3AI.s:1271   .text:000000000000045c .LFB36
     /tmp/ccjsL3AI.s:1476   .text:0000000000000550 .LFE36
     /tmp/ccjsL3AI.s:7140   .debug_str:0000000000000feb .LASF274
     /tmp/ccjsL3AI.s:6724   .debug_str:0000000000000189 .LASF275
     /tmp/ccjsL3AI.s:6978   .debug_str:00000000000009bb .LASF276
     /tmp/ccjsL3AI.s:1397   .text:00000000000004ec .LBB196
     /tmp/ccjsL3AI.s:1421   .text:0000000000000528 .LBE196
     /tmp/ccjsL3AI.s:1409   .text:000000000000050c .LVL103
     /tmp/ccjsL3AI.s:1418   .text:0000000000000524 .LVL104
     /tmp/ccjsL3AI.s:1287   .text:0000000000000470 .LBB188
     /tmp/ccjsL3AI.s:1302   .text:000000000000047c .LBE188
     /tmp/ccjsL3AI.s:1308   .text:0000000000000484 .LBB190
     /tmp/ccjsL3AI.s:1323   .text:0000000000000490 .LBE190
     /tmp/ccjsL3AI.s:1337   .text:00000000000004a8 .LBB192
     /tmp/ccjsL3AI.s:1348   .text:00000000000004ac .LBE192
     /tmp/ccjsL3AI.s:6195   .debug_loc:0000000000000000 .LLST47
     /tmp/ccjsL3AI.s:1353   .text:00000000000004b0 .LBB194
     /tmp/ccjsL3AI.s:1364   .text:00000000000004b4 .LBE194
     /tmp/ccjsL3AI.s:6202   .debug_loc:0000000000000023 .LLST48
     /tmp/ccjsL3AI.s:1431   .text:0000000000000538 .LBB197
     /tmp/ccjsL3AI.s:1442   .text:000000000000053c .LBE197
     /tmp/ccjsL3AI.s:6209   .debug_loc:0000000000000046 .LLST49
     /tmp/ccjsL3AI.s:1447   .text:0000000000000540 .LBB199
     /tmp/ccjsL3AI.s:1458   .text:0000000000000544 .LBE199
     /tmp/ccjsL3AI.s:6216   .debug_loc:0000000000000069 .LLST50
     /tmp/ccjsL3AI.s:1460   .text:0000000000000544 .LBB201
     /tmp/ccjsL3AI.s:1474   .text:0000000000000550 .LBE201
     /tmp/ccjsL3AI.s:1329   .text:000000000000049c .LVL96
     /tmp/ccjsL3AI.s:1384   .text:00000000000004d0 .LVL101
     /tmp/ccjsL3AI.s:1426   .text:0000000000000534 .LVL105
     /tmp/ccjsL3AI.s:1072   .text:000000000000039c .LFB35
     /tmp/ccjsL3AI.s:1265   .text:000000000000045c .LFE35
     /tmp/ccjsL3AI.s:6223   .debug_loc:000000000000008c .LLST42
     /tmp/ccjsL3AI.s:1087   .text:00000000000003b0 .LBB172
     /tmp/ccjsL3AI.s:1099   .text:00000000000003b8 .LBE172
     /tmp/ccjsL3AI.s:6230   .debug_loc:00000000000000af .LLST43
     /tmp/ccjsL3AI.s:1107   .text:00000000000003c0 .LBB174
     /tmp/ccjsL3AI.s:1119   .text:00000000000003c8 .LBE174
     /tmp/ccjsL3AI.s:1121   .text:00000000000003c8 .LBB176
     /tmp/ccjsL3AI.s:1136   .text:00000000000003d4 .LBE176
     /tmp/ccjsL3AI.s:1142   .text:00000000000003dc .LBB178
     /tmp/ccjsL3AI.s:1157   .text:00000000000003e8 .LBE178
     /tmp/ccjsL3AI.s:1177   .text:0000000000000410 .LBB180
     /tmp/ccjsL3AI.s:1188   .text:0000000000000414 .LBE180
     /tmp/ccjsL3AI.s:6238   .debug_loc:00000000000000d3 .LLST44
GAS LISTING /tmp/ccjsL3AI.s 			page 60


     /tmp/ccjsL3AI.s:1193   .text:0000000000000418 .LBB182
     /tmp/ccjsL3AI.s:1204   .text:000000000000041c .LBE182
     /tmp/ccjsL3AI.s:6245   .debug_loc:00000000000000f6 .LLST45
     /tmp/ccjsL3AI.s:1235   .text:000000000000044c .LBB184
     /tmp/ccjsL3AI.s:1246   .text:0000000000000450 .LBE184
     /tmp/ccjsL3AI.s:6252   .debug_loc:0000000000000119 .LLST46
     /tmp/ccjsL3AI.s:1251   .text:0000000000000454 .LBB186
     /tmp/ccjsL3AI.s:1263   .text:000000000000045c .LBE186
     /tmp/ccjsL3AI.s:1103   .text:00000000000003c0 .LVL82
     /tmp/ccjsL3AI.s:1163   .text:00000000000003f4 .LVL83
     /tmp/ccjsL3AI.s:1167   .text:0000000000000400 .LVL84
     /tmp/ccjsL3AI.s:1169   .text:0000000000000408 .LVL85
     /tmp/ccjsL3AI.s:1208   .text:0000000000000424 .LVL90
     /tmp/ccjsL3AI.s:1212   .text:000000000000042c .LVL91
     /tmp/ccjsL3AI.s:1230   .text:0000000000000448 .LVL92
     /tmp/ccjsL3AI.s:1030   .text:000000000000039c .LFE34
     /tmp/ccjsL3AI.s:6259   .debug_loc:000000000000013c .LLST0
     /tmp/ccjsL3AI.s:6270   .debug_loc:0000000000000172 .LLST1
     /tmp/ccjsL3AI.s:7046   .debug_str:0000000000000bee .LASF277
     /tmp/ccjsL3AI.s:6285   .debug_loc:00000000000001bb .LLST2
     /tmp/ccjsL3AI.s:331    .text:00000000000000f0 .LBB116
     /tmp/ccjsL3AI.s:370    .text:0000000000000118 .LBE116
     /tmp/ccjsL3AI.s:6292   .debug_loc:00000000000001de .LLST4
     /tmp/ccjsL3AI.s:6299   .debug_loc:0000000000000201 .LLST5
     /tmp/ccjsL3AI.s:6804   .debug_str:0000000000000417 .LASF278
     /tmp/ccjsL3AI.s:6306   .debug_loc:0000000000000224 .LLST6
     /tmp/ccjsL3AI.s:337    .text:00000000000000f8 .LBB117
     /tmp/ccjsL3AI.s:353    .text:0000000000000104 .LBE117
     /tmp/ccjsL3AI.s:335    .text:00000000000000f8 .LVL13
     /tmp/ccjsL3AI.s:358    .text:0000000000000110 .LVL15
     /tmp/ccjsL3AI.s:373    .text:0000000000000118 .LBB119
     /tmp/ccjsL3AI.s:411    .text:000000000000013c .LBE119
     /tmp/ccjsL3AI.s:6313   .debug_loc:0000000000000247 .LLST7
     /tmp/ccjsL3AI.s:6320   .debug_loc:000000000000026a .LLST8
     /tmp/ccjsL3AI.s:6327   .debug_loc:000000000000028d .LLST9
     /tmp/ccjsL3AI.s:379    .text:0000000000000120 .LBB120
     /tmp/ccjsL3AI.s:395    .text:000000000000012c .LBE120
     /tmp/ccjsL3AI.s:377    .text:0000000000000120 .LVL17
     /tmp/ccjsL3AI.s:399    .text:0000000000000134 .LVL19
     /tmp/ccjsL3AI.s:6666   .debug_ranges:0000000000000000 .Ldebug_ranges0
     /tmp/ccjsL3AI.s:6334   .debug_loc:00000000000002b0 .LLST10
     /tmp/ccjsL3AI.s:6966   .debug_str:0000000000000978 .LASF279
     /tmp/ccjsL3AI.s:6345   .debug_loc:00000000000002e6 .LLST11
     /tmp/ccjsL3AI.s:7240   .debug_str:000000000000129c .LASF280
     /tmp/ccjsL3AI.s:6356   .debug_loc:000000000000031c .LLST12
     /tmp/ccjsL3AI.s:6367   .debug_loc:0000000000000352 .LLST13
     /tmp/ccjsL3AI.s:6874   .debug_str:0000000000000665 .LASF281
     /tmp/ccjsL3AI.s:6378   .debug_loc:0000000000000388 .LLST14
     /tmp/ccjsL3AI.s:6385   .debug_loc:00000000000003ab .LLST15
     /tmp/ccjsL3AI.s:423    .text:0000000000000140 .LBB123
     /tmp/ccjsL3AI.s:439    .text:000000000000014c .LBE123
     /tmp/ccjsL3AI.s:441    .text:000000000000014c .LBB125
     /tmp/ccjsL3AI.s:457    .text:0000000000000158 .LBE125
     /tmp/ccjsL3AI.s:459    .text:0000000000000158 .LBB127
     /tmp/ccjsL3AI.s:475    .text:0000000000000164 .LBE127
     /tmp/ccjsL3AI.s:477    .text:0000000000000164 .LBB129
     /tmp/ccjsL3AI.s:493    .text:0000000000000170 .LBE129
GAS LISTING /tmp/ccjsL3AI.s 			page 61


     /tmp/ccjsL3AI.s:498    .text:000000000000017c .LVL25
     /tmp/ccjsL3AI.s:506    .text:0000000000000194 .LVL26
     /tmp/ccjsL3AI.s:1006   .text:0000000000000374 .LVL75
     /tmp/ccjsL3AI.s:537    .text:00000000000001b0 .LBB131
     /tmp/ccjsL3AI.s:561    .text:00000000000001d0 .LBE131
     /tmp/ccjsL3AI.s:7006   .debug_str:0000000000000ab4 .LASF282
     /tmp/ccjsL3AI.s:6392   .debug_loc:00000000000003ce .LLST16
     /tmp/ccjsL3AI.s:6399   .debug_loc:00000000000003f1 .LLST17
     /tmp/ccjsL3AI.s:542    .text:00000000000001b8 .LVL30
     /tmp/ccjsL3AI.s:547    .text:00000000000001c4 .LVL31
     /tmp/ccjsL3AI.s:6407   .debug_loc:0000000000000415 .LLST18
     /tmp/ccjsL3AI.s:6418   .debug_loc:000000000000044b .LLST19
     /tmp/ccjsL3AI.s:7248   .debug_str:00000000000012d9 .LASF283
     /tmp/ccjsL3AI.s:6429   .debug_loc:0000000000000481 .LLST20
     /tmp/ccjsL3AI.s:6436   .debug_loc:00000000000004a4 .LLST21
     /tmp/ccjsL3AI.s:575    .text:00000000000001dc .LBB133
     /tmp/ccjsL3AI.s:591    .text:00000000000001e8 .LBE133
     /tmp/ccjsL3AI.s:593    .text:00000000000001e8 .LBB135
     /tmp/ccjsL3AI.s:608    .text:00000000000001f4 .LBE135
     /tmp/ccjsL3AI.s:616    .text:0000000000000204 .LVL36
     /tmp/ccjsL3AI.s:622    .text:0000000000000214 .LVL37
     /tmp/ccjsL3AI.s:1020   .text:0000000000000390 .LVL78
     /tmp/ccjsL3AI.s:653    .text:0000000000000230 .LBB137
     /tmp/ccjsL3AI.s:701    .text:000000000000025c .LBE137
     /tmp/ccjsL3AI.s:6443   .debug_loc:00000000000004c7 .LLST22
     /tmp/ccjsL3AI.s:6454   .debug_loc:00000000000004fd .LLST23
     /tmp/ccjsL3AI.s:655    .text:0000000000000230 .LBB138
     /tmp/ccjsL3AI.s:671    .text:000000000000023c .LBE138
     /tmp/ccjsL3AI.s:694    .text:0000000000000254 .LVL44
     /tmp/ccjsL3AI.s:704    .text:000000000000025c .LBB140
     /tmp/ccjsL3AI.s:739    .text:0000000000000278 .LBE140
     /tmp/ccjsL3AI.s:6478   .debug_loc:000000000000055e .LLST24
     /tmp/ccjsL3AI.s:6485   .debug_loc:0000000000000581 .LLST25
     /tmp/ccjsL3AI.s:706    .text:000000000000025c .LBB141
     /tmp/ccjsL3AI.s:722    .text:0000000000000268 .LBE141
     /tmp/ccjsL3AI.s:727    .text:0000000000000270 .LVL47
     /tmp/ccjsL3AI.s:742    .text:0000000000000278 .LBB143
     /tmp/ccjsL3AI.s:777    .text:0000000000000294 .LBE143
     /tmp/ccjsL3AI.s:6492   .debug_loc:00000000000005a4 .LLST26
     /tmp/ccjsL3AI.s:6499   .debug_loc:00000000000005c7 .LLST27
     /tmp/ccjsL3AI.s:744    .text:0000000000000278 .LBB144
     /tmp/ccjsL3AI.s:760    .text:0000000000000284 .LBE144
     /tmp/ccjsL3AI.s:765    .text:000000000000028c .LVL50
     /tmp/ccjsL3AI.s:780    .text:0000000000000294 .LBB146
     /tmp/ccjsL3AI.s:833    .text:00000000000002bc .LBE146
     /tmp/ccjsL3AI.s:6506   .debug_loc:00000000000005ea .LLST28
     /tmp/ccjsL3AI.s:7174   .debug_str:00000000000010ef .LASF284
     /tmp/ccjsL3AI.s:6513   .debug_loc:000000000000060d .LLST29
     /tmp/ccjsL3AI.s:6520   .debug_loc:0000000000000630 .LLST30
     /tmp/ccjsL3AI.s:782    .text:0000000000000294 .LBB147
     /tmp/ccjsL3AI.s:798    .text:00000000000002a0 .LBE147
     /tmp/ccjsL3AI.s:801    .text:00000000000002a0 .LBB149
     /tmp/ccjsL3AI.s:817    .text:00000000000002ac .LBE149
     /tmp/ccjsL3AI.s:821    .text:00000000000002b4 .LVL54
     /tmp/ccjsL3AI.s:836    .text:00000000000002bc .LBB151
     /tmp/ccjsL3AI.s:871    .text:00000000000002d8 .LBE151
     /tmp/ccjsL3AI.s:6527   .debug_loc:0000000000000653 .LLST31
GAS LISTING /tmp/ccjsL3AI.s 			page 62


     /tmp/ccjsL3AI.s:6534   .debug_loc:0000000000000676 .LLST32
     /tmp/ccjsL3AI.s:838    .text:00000000000002bc .LBB152
     /tmp/ccjsL3AI.s:854    .text:00000000000002c8 .LBE152
     /tmp/ccjsL3AI.s:859    .text:00000000000002d0 .LVL57
     /tmp/ccjsL3AI.s:874    .text:00000000000002d8 .LBB154
     /tmp/ccjsL3AI.s:938    .text:0000000000000324 .LBE154
     /tmp/ccjsL3AI.s:6972   .debug_str:000000000000099b .LASF285
     /tmp/ccjsL3AI.s:6541   .debug_loc:0000000000000699 .LLST33
     /tmp/ccjsL3AI.s:6548   .debug_loc:00000000000006bc .LLST34
     /tmp/ccjsL3AI.s:914    .text:00000000000002f4 .LBB158
     /tmp/ccjsL3AI.s:933    .text:0000000000000320 .LBE158
     /tmp/ccjsL3AI.s:6560   .debug_loc:00000000000006f3 .LLST35
     /tmp/ccjsL3AI.s:918    .text:00000000000002fc .LVL62
     /tmp/ccjsL3AI.s:924    .text:0000000000000308 .LVL64
     /tmp/ccjsL3AI.s:929    .text:000000000000031c .LVL65
     /tmp/ccjsL3AI.s:876    .text:00000000000002d8 .LBB155
     /tmp/ccjsL3AI.s:892    .text:00000000000002e4 .LBE155
     /tmp/ccjsL3AI.s:941    .text:0000000000000324 .LBB160
     /tmp/ccjsL3AI.s:961    .text:000000000000033c .LBE160
     /tmp/ccjsL3AI.s:6571   .debug_loc:0000000000000729 .LLST36
     /tmp/ccjsL3AI.s:6578   .debug_loc:000000000000074c .LLST37
     /tmp/ccjsL3AI.s:945    .text:000000000000032c .LVL67
     /tmp/ccjsL3AI.s:949    .text:0000000000000334 .LVL68
     /tmp/ccjsL3AI.s:964    .text:000000000000033c .LBB161
     /tmp/ccjsL3AI.s:1001   .text:0000000000000368 .LBE161
     /tmp/ccjsL3AI.s:6585   .debug_loc:000000000000076f .LLST38
     /tmp/ccjsL3AI.s:6592   .debug_loc:0000000000000792 .LLST39
     /tmp/ccjsL3AI.s:966    .text:000000000000033c .LBB162
     /tmp/ccjsL3AI.s:981    .text:0000000000000348 .LBE162
     /tmp/ccjsL3AI.s:988    .text:0000000000000354 .LVL71
     /tmp/ccjsL3AI.s:993    .text:0000000000000360 .LVL72
     /tmp/ccjsL3AI.s:76     .text:000000000000004c .LBB102
     /tmp/ccjsL3AI.s:93     .text:0000000000000058 .LBE102
     /tmp/ccjsL3AI.s:95     .text:0000000000000058 .LBB104
     /tmp/ccjsL3AI.s:111    .text:0000000000000064 .LBE104
     /tmp/ccjsL3AI.s:113    .text:0000000000000064 .LBB106
     /tmp/ccjsL3AI.s:125    .text:000000000000006c .LBE106
     /tmp/ccjsL3AI.s:127    .text:000000000000006c .LBB108
     /tmp/ccjsL3AI.s:143    .text:0000000000000078 .LBE108
     /tmp/ccjsL3AI.s:238    .text:00000000000000ac .LBB112
     /tmp/ccjsL3AI.s:249    .text:00000000000000b0 .LBE112
     /tmp/ccjsL3AI.s:6599   .debug_loc:00000000000007b5 .LLST3
     /tmp/ccjsL3AI.s:251    .text:00000000000000b0 .LBB114
     /tmp/ccjsL3AI.s:267    .text:00000000000000bc .LBE114
     /tmp/ccjsL3AI.s:273    .text:00000000000000bc .LBB167
     /tmp/ccjsL3AI.s:284    .text:00000000000000c0 .LBE167
     /tmp/ccjsL3AI.s:6606   .debug_loc:00000000000007d8 .LLST40
     /tmp/ccjsL3AI.s:286    .text:00000000000000c0 .LBB169
     /tmp/ccjsL3AI.s:297    .text:00000000000000c4 .LBE169
     /tmp/ccjsL3AI.s:6613   .debug_loc:00000000000007fb .LLST41
     /tmp/ccjsL3AI.s:235    .text:00000000000000a4 .LVL4
     /tmp/ccjsL3AI.s:237    .text:00000000000000ac .LVL5
     /tmp/ccjsL3AI.s:567    .text:00000000000001d8 .LVL33
     /tmp/ccjsL3AI.s:1010   .text:0000000000000380 .LVL76
     /tmp/ccjsL3AI.s:1024   .text:000000000000039c .LVL79
     /tmp/ccjsL3AI.s:1482   .text:0000000000000550 .LFB33
     /tmp/ccjsL3AI.s:1609   .text:0000000000000600 .LFE33
GAS LISTING /tmp/ccjsL3AI.s 			page 63


     /tmp/ccjsL3AI.s:6778   .debug_str:0000000000000372 .LASF286
     /tmp/ccjsL3AI.s:6620   .debug_loc:000000000000081e .LLST51
     /tmp/ccjsL3AI.s:1502   .text:0000000000000564 .LBB203
     /tmp/ccjsL3AI.s:1518   .text:0000000000000570 .LBE203
     /tmp/ccjsL3AI.s:1554   .text:00000000000005bc .LBB205
     /tmp/ccjsL3AI.s:1570   .text:00000000000005d0 .LBE205
     /tmp/ccjsL3AI.s:6643   .debug_loc:000000000000088d .LLST52
     /tmp/ccjsL3AI.s:1535   .text:00000000000005a0 .LVL111
     /tmp/ccjsL3AI.s:1595   .text:00000000000005f0 .LVL118
     /tmp/ccjsL3AI.s:1605   .text:00000000000005fc .LVL120
     /tmp/ccjsL3AI.s:10     .text:0000000000000000 .LFB32
     /tmp/ccjsL3AI.s:40     .text:0000000000000020 .LFE32
     /tmp/ccjsL3AI.s:7194   .debug_str:0000000000001188 .LASF287
     /tmp/ccjsL3AI.s:7094   .debug_str:0000000000000d9f .LASF288
     /tmp/ccjsL3AI.s:6914   .debug_str:00000000000007c7 .LASF289
     /tmp/ccjsL3AI.s:7080   .debug_str:0000000000000d1f .LASF290
     /tmp/ccjsL3AI.s:7188   .debug_str:000000000000114c .LASF298
     /tmp/ccjsL3AI.s:6714   .debug_str:0000000000000124 .LASF299
     /tmp/ccjsL3AI.s:1336   .text:00000000000004a8 .LVL97
     /tmp/ccjsL3AI.s:1345   .text:00000000000004ac .LVL98
     /tmp/ccjsL3AI.s:1352   .text:00000000000004b0 .LVL99
     /tmp/ccjsL3AI.s:1361   .text:00000000000004b4 .LVL100
     /tmp/ccjsL3AI.s:1430   .text:0000000000000538 .LVL106
     /tmp/ccjsL3AI.s:1439   .text:000000000000053c .LVL107
     /tmp/ccjsL3AI.s:1446   .text:0000000000000540 .LVL108
     /tmp/ccjsL3AI.s:1455   .text:0000000000000544 .LVL109
     /tmp/ccjsL3AI.s:1086   .text:00000000000003b0 .LVL80
     /tmp/ccjsL3AI.s:1096   .text:00000000000003b8 .LVL81
     /tmp/ccjsL3AI.s:1176   .text:0000000000000410 .LVL86
     /tmp/ccjsL3AI.s:1185   .text:0000000000000414 .LVL87
     /tmp/ccjsL3AI.s:1192   .text:0000000000000418 .LVL88
     /tmp/ccjsL3AI.s:1201   .text:000000000000041c .LVL89
     /tmp/ccjsL3AI.s:1234   .text:000000000000044c .LVL93
     /tmp/ccjsL3AI.s:1243   .text:0000000000000450 .LVL94
     /tmp/ccjsL3AI.s:91     .text:0000000000000058 .LVL0
     /tmp/ccjsL3AI.s:310    .text:00000000000000d4 .LVL11
     /tmp/ccjsL3AI.s:324    .text:00000000000000f0 .LVL12
     /tmp/ccjsL3AI.s:109    .text:0000000000000064 .LVL1
     /tmp/ccjsL3AI.s:307    .text:00000000000000d0 .LVL10
     /tmp/ccjsL3AI.s:1000   .text:0000000000000368 .LVL74
     /tmp/ccjsL3AI.s:1014   .text:0000000000000384 .LVL77
     /tmp/ccjsL3AI.s:141    .text:0000000000000078 .LVL2
     /tmp/ccjsL3AI.s:148    .text:0000000000000084 .LVL3
     /tmp/ccjsL3AI.s:351    .text:0000000000000104 .LVL14
     /tmp/ccjsL3AI.s:368    .text:0000000000000118 .LVL16
     /tmp/ccjsL3AI.s:393    .text:000000000000012c .LVL18
     /tmp/ccjsL3AI.s:409    .text:000000000000013c .LVL20
     /tmp/ccjsL3AI.s:437    .text:000000000000014c .LVL21
     /tmp/ccjsL3AI.s:532    .text:00000000000001b0 .LVL29
     /tmp/ccjsL3AI.s:997    .text:0000000000000364 .LVL73
     /tmp/ccjsL3AI.s:455    .text:0000000000000158 .LVL22
     /tmp/ccjsL3AI.s:473    .text:0000000000000164 .LVL23
     /tmp/ccjsL3AI.s:491    .text:0000000000000170 .LVL24
     /tmp/ccjsL3AI.s:517    .text:00000000000001a0 .LVL27
     /tmp/ccjsL3AI.s:527    .text:00000000000001a8 .LVL28
     /tmp/ccjsL3AI.s:559    .text:00000000000001d0 .LVL32
     /tmp/ccjsL3AI.s:589    .text:00000000000001e8 .LVL34
GAS LISTING /tmp/ccjsL3AI.s 			page 64


     /tmp/ccjsL3AI.s:648    .text:0000000000000230 .LVL40
     /tmp/ccjsL3AI.s:611    .text:00000000000001f8 .LVL35
     /tmp/ccjsL3AI.s:633    .text:0000000000000220 .LVL38
     /tmp/ccjsL3AI.s:643    .text:0000000000000228 .LVL39
     /tmp/ccjsL3AI.s:669    .text:000000000000023c .LVL41
     /tmp/ccjsL3AI.s:677    .text:0000000000000244 .LVL42
     /tmp/ccjsL3AI.s:688    .text:000000000000024c .LVL43
     /tmp/ccjsL3AI.s:699    .text:000000000000025c .LVL45
     /tmp/ccjsL3AI.s:720    .text:0000000000000268 .LVL46
     /tmp/ccjsL3AI.s:737    .text:0000000000000278 .LVL48
     /tmp/ccjsL3AI.s:758    .text:0000000000000284 .LVL49
     /tmp/ccjsL3AI.s:775    .text:0000000000000294 .LVL51
     /tmp/ccjsL3AI.s:796    .text:00000000000002a0 .LVL52
     /tmp/ccjsL3AI.s:815    .text:00000000000002ac .LVL53
     /tmp/ccjsL3AI.s:831    .text:00000000000002bc .LVL55
     /tmp/ccjsL3AI.s:852    .text:00000000000002c8 .LVL56
     /tmp/ccjsL3AI.s:869    .text:00000000000002d8 .LVL58
     /tmp/ccjsL3AI.s:890    .text:00000000000002e4 .LVL59
     /tmp/ccjsL3AI.s:935    .text:0000000000000324 .LVL66
     /tmp/ccjsL3AI.s:900    .text:00000000000002ec .LVL60
     /tmp/ccjsL3AI.s:911    .text:00000000000002f4 .LVL61
     /tmp/ccjsL3AI.s:920    .text:0000000000000300 .LVL63
     /tmp/ccjsL3AI.s:959    .text:000000000000033c .LVL69
     /tmp/ccjsL3AI.s:984    .text:000000000000034c .LVL70
     /tmp/ccjsL3AI.s:246    .text:00000000000000b0 .LVL6
     /tmp/ccjsL3AI.s:265    .text:00000000000000bc .LVL7
     /tmp/ccjsL3AI.s:281    .text:00000000000000c0 .LVL8
     /tmp/ccjsL3AI.s:294    .text:00000000000000c4 .LVL9
     /tmp/ccjsL3AI.s:1516   .text:0000000000000570 .LVL110
     /tmp/ccjsL3AI.s:1539   .text:00000000000005a4 .LVL112
     /tmp/ccjsL3AI.s:1562   .text:00000000000005c4 .LVL114
     /tmp/ccjsL3AI.s:1567   .text:00000000000005d0 .LVL115
     /tmp/ccjsL3AI.s:1574   .text:00000000000005d8 .LVL116
     /tmp/ccjsL3AI.s:1586   .text:00000000000005e8 .LVL117
     /tmp/ccjsL3AI.s:1598   .text:00000000000005f4 .LVL119
     /tmp/ccjsL3AI.s:1557   .text:00000000000005bc .LVL113
     /tmp/ccjsL3AI.s:1623   .debug_info:0000000000000000 .Ldebug_info0
     /tmp/ccjsL3AI.s:414    .text:000000000000013c .LBB122
     /tmp/ccjsL3AI.s:534    .text:00000000000001b0 .LBE122
     /tmp/ccjsL3AI.s:1002   .text:0000000000000368 .LBB164
     /tmp/ccjsL3AI.s:1015   .text:0000000000000384 .LBE164
     /tmp/ccjsL3AI.s:573    .text:00000000000001dc .LBB132
     /tmp/ccjsL3AI.s:650    .text:0000000000000230 .LBE132
     /tmp/ccjsL3AI.s:1016   .text:0000000000000384 .LBB165
     /tmp/ccjsL3AI.s:1026   .text:000000000000039c .LBE165
     /tmp/ccjsL3AI.s:1033   .gcc_except_table:0000000000000000 .LLSDA34

UNDEFINED SYMBOLS
_ZN3TCB10getRunningEv
_ZNK3TCB15getSavedSStatusEv
_ZN15MemoryAllocator20getAllocatorInstanceEv
_ZN15MemoryAllocator8allocateEi
_ZN15MemoryAllocator10deallocateEPv
_ZN3TCBnwEm
_ZN3TCBC1EPFvPvES0_Pm
_ZN3TCB12setCompletedEb
_ZN3TCB8dispatchEv
GAS LISTING /tmp/ccjsL3AI.s 			page 65


_ZN4SemCnwEm
_ZN4SemCC1Ej
_ZN4SemC7closingEv
_ZN4SemC4waitEv
_ZN4SemC6signalEv
_ZN4SemC9timedwaitEm
_ZN4SemC7trywaitEv
_ZN10SleepQueue21getSleepQueueInstanceEv
_ZN10SleepQueue3putEP3TCBm
_ZN13KernelConsole18getConsoleInstanceEv
_ZN13KernelConsole9getCharInEv
_ZN13KernelConsole10putCharOutEc
_ZN3TCBdlEPv
_Unwind_Resume
_ZN4SemCdlEPv
__gxx_personality_v0
_ZN3TCB18incTimeSlicePassedEv
_ZN3TCB18getTimeSlicePassedEv
_ZNK3TCB12getTimeSliceEv
_ZN10SleepQueue10updateTickEv
plic_claim
CONSOLE_STATUS
CONSOLE_TX_DATA
_ZNK13KernelConsole7slotsInEv
_ZN13KernelConsole9putCharInEc
plic_complete
