GAS LISTING /tmp/ccZ3YIrd.s 			page 1


   1              		.file	"Scheduler.cpp"
   2              		.option pic
   3              		.option norelax
   4              		.text
   5              	.Ltext0:
   6              		.align	2
   7              		.globl	_ZN9Scheduler20getSchedulerInstanceEv
   9              	_ZN9Scheduler20getSchedulerInstanceEv:
  10              	.LFB3:
  11              		.file 1 "src/Scheduler.cpp"
   1:src/Scheduler.cpp **** #include "../h/Scheduler.hpp"
   2:src/Scheduler.cpp **** #include "../h/TCB.hpp"
   3:src/Scheduler.cpp **** Scheduler &Scheduler::getSchedulerInstance() {
  12              		.loc 1 3 46
  13              		.cfi_startproc
  14 0000 130101FF 		addi	sp,sp,-16
  15              		.cfi_def_cfa_offset 16
  16 0004 23348100 		sd	s0,8(sp)
  17              		.cfi_offset 8, -8
  18 0008 13040101 		addi	s0,sp,16
  19              		.cfi_def_cfa 8, 0
   4:src/Scheduler.cpp ****     static Scheduler instance;
  20              		.loc 1 4 5
   5:src/Scheduler.cpp ****     return instance;
  21              		.loc 1 5 5
   6:src/Scheduler.cpp **** }
  22              		.loc 1 6 1 is_stmt 0
  23 000c 17050000 		lla	a0,.LANCHOR0
  23      13050500 
  24 0014 03348100 		ld	s0,8(sp)
  25              		.cfi_restore 8
  26              		.cfi_def_cfa 2, 16
  27 0018 13010101 		addi	sp,sp,16
  28              		.cfi_def_cfa_offset 0
  29 001c 67800000 		jr	ra
  30              		.cfi_endproc
  31              	.LFE3:
  33              		.align	2
  34              		.globl	_ZN9Scheduler3putEP3TCB
  36              	_ZN9Scheduler3putEP3TCB:
  37              	.LFB7:
   7:src/Scheduler.cpp **** 
   8:src/Scheduler.cpp **** void Scheduler::put(TCB *t) {
  38              		.loc 1 8 29 is_stmt 1
  39              		.cfi_startproc
  40              	.LVL0:
  41 0020 130101FF 		addi	sp,sp,-16
  42              		.cfi_def_cfa_offset 16
  43 0024 23348100 		sd	s0,8(sp)
  44              		.cfi_offset 8, -8
  45 0028 13040101 		addi	s0,sp,16
  46              		.cfi_def_cfa 8, 0
   9:src/Scheduler.cpp ****     if(!head){
  47              		.loc 1 9 5
  48              		.loc 1 9 9 is_stmt 0
  49 002c 83378500 		ld	a5,8(a0)
  50              		.loc 1 9 5
GAS LISTING /tmp/ccZ3YIrd.s 			page 2


  51 0030 63840702 		beqz	a5,.L7
  10:src/Scheduler.cpp ****         head=t;
  11:src/Scheduler.cpp ****         tail=t;
  12:src/Scheduler.cpp ****         threadCnt++;
  13:src/Scheduler.cpp ****         return;
  14:src/Scheduler.cpp ****     }
  15:src/Scheduler.cpp ****     threadCnt++;
  52              		.loc 1 15 5 is_stmt 1
  53 0034 83270500 		lw	a5,0(a0)
  54              		.loc 1 15 14 is_stmt 0
  55 0038 9B871700 		addiw	a5,a5,1
  56 003c 2320F500 		sw	a5,0(a0)
  16:src/Scheduler.cpp ****     tail->nextReady=t;
  57              		.loc 1 16 5 is_stmt 1
  58 0040 83370501 		ld	a5,16(a0)
  59              		.loc 1 16 20 is_stmt 0
  60 0044 23B8B704 		sd	a1,80(a5)
  17:src/Scheduler.cpp ****     tail=t;
  61              		.loc 1 17 5 is_stmt 1
  62              		.loc 1 17 9 is_stmt 0
  63 0048 2338B500 		sd	a1,16(a0)
  64              	.L3:
  18:src/Scheduler.cpp **** }
  65              		.loc 1 18 1
  66 004c 03348100 		ld	s0,8(sp)
  67              		.cfi_remember_state
  68              		.cfi_restore 8
  69              		.cfi_def_cfa 2, 16
  70 0050 13010101 		addi	sp,sp,16
  71              		.cfi_def_cfa_offset 0
  72 0054 67800000 		jr	ra
  73              	.L7:
  74              		.cfi_restore_state
  10:src/Scheduler.cpp ****         tail=t;
  75              		.loc 1 10 9 is_stmt 1
  10:src/Scheduler.cpp ****         tail=t;
  76              		.loc 1 10 13 is_stmt 0
  77 0058 2334B500 		sd	a1,8(a0)
  11:src/Scheduler.cpp ****         threadCnt++;
  78              		.loc 1 11 9 is_stmt 1
  11:src/Scheduler.cpp ****         threadCnt++;
  79              		.loc 1 11 13 is_stmt 0
  80 005c 2338B500 		sd	a1,16(a0)
  12:src/Scheduler.cpp ****         return;
  81              		.loc 1 12 9 is_stmt 1
  82 0060 83270500 		lw	a5,0(a0)
  12:src/Scheduler.cpp ****         return;
  83              		.loc 1 12 18 is_stmt 0
  84 0064 9B871700 		addiw	a5,a5,1
  85 0068 2320F500 		sw	a5,0(a0)
  13:src/Scheduler.cpp ****     }
  86              		.loc 1 13 9 is_stmt 1
  87 006c 6FF01FFE 		j	.L3
  88              		.cfi_endproc
  89              	.LFE7:
  91              		.align	2
  92              		.globl	_ZN9Scheduler3getEv
GAS LISTING /tmp/ccZ3YIrd.s 			page 3


  94              	_ZN9Scheduler3getEv:
  95              	.LFB8:
  19:src/Scheduler.cpp **** 
  20:src/Scheduler.cpp **** TCB *Scheduler::get() {
  96              		.loc 1 20 23
  97              		.cfi_startproc
  98              	.LVL1:
  99 0070 130101FF 		addi	sp,sp,-16
 100              		.cfi_def_cfa_offset 16
 101 0074 23348100 		sd	s0,8(sp)
 102              		.cfi_offset 8, -8
 103 0078 13040101 		addi	s0,sp,16
 104              		.cfi_def_cfa 8, 0
 105 007c 93070500 		mv	a5,a0
  21:src/Scheduler.cpp ****     if(!head) return nullptr;
 106              		.loc 1 21 5
 107              		.loc 1 21 9 is_stmt 0
 108 0080 03358500 		ld	a0,8(a0)
 109              	.LVL2:
 110              		.loc 1 21 5
 111 0084 630E0500 		beqz	a0,.L8
  22:src/Scheduler.cpp ****     TCB* t=head;
 112              		.loc 1 22 5 is_stmt 1
 113              	.LVL3:
  23:src/Scheduler.cpp ****     head=head->nextReady;
 114              		.loc 1 23 5
 115              		.loc 1 23 16 is_stmt 0
 116 0088 03370505 		ld	a4,80(a0)
 117              		.loc 1 23 9
 118 008c 23B4E700 		sd	a4,8(a5)
  24:src/Scheduler.cpp ****     t->nextReady=nullptr;
 119              		.loc 1 24 5 is_stmt 1
 120              		.loc 1 24 17 is_stmt 0
 121 0090 23380504 		sd	zero,80(a0)
  25:src/Scheduler.cpp ****     threadCnt--;
 122              		.loc 1 25 5 is_stmt 1
 123 0094 03A70700 		lw	a4,0(a5)
 124              		.loc 1 25 14 is_stmt 0
 125 0098 1B07F7FF 		addiw	a4,a4,-1
 126 009c 23A0E700 		sw	a4,0(a5)
  26:src/Scheduler.cpp ****     return t;
 127              		.loc 1 26 5 is_stmt 1
 128              	.LVL4:
 129              	.L8:
  27:src/Scheduler.cpp **** }
 130              		.loc 1 27 1 is_stmt 0
 131 00a0 03348100 		ld	s0,8(sp)
 132              		.cfi_restore 8
 133              		.cfi_def_cfa 2, 16
 134 00a4 13010101 		addi	sp,sp,16
 135              		.cfi_def_cfa_offset 0
 136 00a8 67800000 		jr	ra
 137              		.cfi_endproc
 138              	.LFE8:
 140              		.align	2
 141              		.globl	_ZNK9Scheduler12getThreadCntEv
 143              	_ZNK9Scheduler12getThreadCntEv:
GAS LISTING /tmp/ccZ3YIrd.s 			page 4


 144              	.LFB9:
  28:src/Scheduler.cpp **** 
  29:src/Scheduler.cpp **** int Scheduler::getThreadCnt() const{
 145              		.loc 1 29 36 is_stmt 1
 146              		.cfi_startproc
 147              	.LVL5:
 148 00ac 130101FF 		addi	sp,sp,-16
 149              		.cfi_def_cfa_offset 16
 150 00b0 23348100 		sd	s0,8(sp)
 151              		.cfi_offset 8, -8
 152 00b4 13040101 		addi	s0,sp,16
 153              		.cfi_def_cfa 8, 0
  30:src/Scheduler.cpp ****     return threadCnt;
 154              		.loc 1 30 5
  31:src/Scheduler.cpp **** }...
 155              		.loc 1 31 1 is_stmt 0
 156 00b8 03250500 		lw	a0,0(a0)
 157              	.LVL6:
 158 00bc 03348100 		ld	s0,8(sp)
 159              		.cfi_restore 8
 160              		.cfi_def_cfa 2, 16
 161 00c0 13010101 		addi	sp,sp,16
 162              		.cfi_def_cfa_offset 0
 163 00c4 67800000 		jr	ra
 164              		.cfi_endproc
 165              	.LFE9:
 167              		.bss
 168              		.align	3
 169              		.set	.LANCHOR0,. + 0
 172              	_ZZN9Scheduler20getSchedulerInstanceEvE8instance:
 173 0000 00000000 		.zero	24
 173      00000000 
 173      00000000 
 173      00000000 
 173      00000000 
 174              		.text
 175              	.Letext0:
 176              		.file 2 "src/../h/../lib/hw.h"
 177              		.file 3 "src/../h/TCB.hpp"
 178              		.file 4 "src/../h/Scheduler.hpp"
 179              		.file 5 "src/../h/syscall_c.hpp"
GAS LISTING /tmp/ccZ3YIrd.s 			page 5

