GAS LISTING /tmp/cct6YsCM.s 			page 1


   1              		.file	"SemC.cpp"
   2              		.option pic
   3              		.option norelax
   4              		.text
   5              	.Ltext0:
   6              		.align	2
   8              	_Z41__static_initialization_and_destruction_0ii:
   9              	.LFB25:
  10              		.file 1 "src/SemC.cpp"
   1:src/SemC.cpp  **** #include "../h/SemC.hpp"
   2:src/SemC.cpp  **** int SemC::sid=0;
   3:src/SemC.cpp  **** KernelResourceManager<SemC> SemC::semaphoreAllocator;
   4:src/SemC.cpp  **** SemC::SemC(unsigned int v):val((int)v) {
   5:src/SemC.cpp  ****     resourceId=sid;
   6:src/SemC.cpp  **** }
   7:src/SemC.cpp  **** 
   8:src/SemC.cpp  **** int SemC::wait() {
   9:src/SemC.cpp  ****     if(--val<0){
  10:src/SemC.cpp  ****         block();
  11:src/SemC.cpp  ****     }
  12:src/SemC.cpp  ****     if(isClosing){
  13:src/SemC.cpp  ****         return -1;
  14:src/SemC.cpp  ****     }
  15:src/SemC.cpp  ****     return 0;
  16:src/SemC.cpp  **** }
  17:src/SemC.cpp  **** 
  18:src/SemC.cpp  **** int SemC::signal() {
  19:src/SemC.cpp  ****     if(++val<=0){
  20:src/SemC.cpp  ****         unblock();
  21:src/SemC.cpp  ****     }
  22:src/SemC.cpp  ****     return 0;
  23:src/SemC.cpp  **** }
  24:src/SemC.cpp  **** 
  25:src/SemC.cpp  **** int SemC::signalAwoken(TCB *thr) {
  26:src/SemC.cpp  ****     val++;
  27:src/SemC.cpp  ****     unblockAwoken(thr);
  28:src/SemC.cpp  ****     return 0;
  29:src/SemC.cpp  **** }
  30:src/SemC.cpp  **** int SemC::timedwait(time_t time) {
  31:src/SemC.cpp  ****     if(--val<0){
  32:src/SemC.cpp  ****         TCB* thr=TCB::getRunning();
  33:src/SemC.cpp  ****         thr->setTimedWaitSem(this);
  34:src/SemC.cpp  ****         queue.put(thr);
  35:src/SemC.cpp  ****         SleepQueue &sl=SleepQueue::getSleepQueueInstance();
  36:src/SemC.cpp  ****         sl.put(thr, time);
  37:src/SemC.cpp  ****         if(isClosing){
  38:src/SemC.cpp  ****             TCB::getRunning()->resetInterruptedWhileWaiting();
  39:src/SemC.cpp  ****             return -1;
  40:src/SemC.cpp  ****         }
  41:src/SemC.cpp  ****         if(TCB::getRunning()->getInterruptedWhileWaiting()){
  42:src/SemC.cpp  ****             TCB::getRunning()->resetInterruptedWhileWaiting();
  43:src/SemC.cpp  ****             return -2;
  44:src/SemC.cpp  ****         }
  45:src/SemC.cpp  ****         TCB::getRunning()->resetInterruptedWhileWaiting();
  46:src/SemC.cpp  ****         return 0;
  47:src/SemC.cpp  ****     }
  48:src/SemC.cpp  ****     if(isClosing){
GAS LISTING /tmp/cct6YsCM.s 			page 2


  49:src/SemC.cpp  ****         return -1;
  50:src/SemC.cpp  ****     }
  51:src/SemC.cpp  ****     return 0;
  52:src/SemC.cpp  **** }
  53:src/SemC.cpp  **** int SemC::trywait() {
  54:src/SemC.cpp  **** 
  55:src/SemC.cpp  ****     val--;
  56:src/SemC.cpp  ****     return val>=0;
  57:src/SemC.cpp  **** }
  58:src/SemC.cpp  **** void *SemC::operator new(size_t) {
  59:src/SemC.cpp  ****     return semaphoreAllocator.allocResource(sid);
  60:src/SemC.cpp  **** }
  61:src/SemC.cpp  **** 
  62:src/SemC.cpp  **** void SemC::operator delete(void *ptr) {
  63:src/SemC.cpp  ****     SemC* s=(SemC*)ptr;
  64:src/SemC.cpp  ****     semaphoreAllocator.deallocResource(s->resourceId);
  65:src/SemC.cpp  **** }
  66:src/SemC.cpp  **** 
  67:src/SemC.cpp  **** void SemC::closing() {
  68:src/SemC.cpp  ****     isClosing=true;
  69:src/SemC.cpp  ****     while(queue.getNumOfBlocked()){
  70:src/SemC.cpp  ****         unblock();
  71:src/SemC.cpp  ****     }
  72:src/SemC.cpp  **** }
  73:src/SemC.cpp  **** 
  74:src/SemC.cpp  **** void SemC::block() {
  75:src/SemC.cpp  ****     Scheduler &s=Scheduler::getSchedulerInstance();
  76:src/SemC.cpp  ****     TCB* newThread=s.get();
  77:src/SemC.cpp  ****     TCB* oldThread=TCB::getRunning();
  78:src/SemC.cpp  ****     if(newThread==oldThread&&s.getThreadCnt()){
  79:src/SemC.cpp  ****         newThread=s.get();
  80:src/SemC.cpp  ****     }
  81:src/SemC.cpp  ****     queue.put(oldThread);
  82:src/SemC.cpp  ****     TCB::setRunning(newThread);
  83:src/SemC.cpp  ****     TCB::yield(oldThread,newThread);
  84:src/SemC.cpp  **** }
  85:src/SemC.cpp  **** 
  86:src/SemC.cpp  **** void SemC::unblockAwoken(TCB *thr) {
  87:src/SemC.cpp  ****     Scheduler &s=Scheduler::getSchedulerInstance();
  88:src/SemC.cpp  ****     queue.removeAwoken(thr);
  89:src/SemC.cpp  ****     s.put(thr);
  90:src/SemC.cpp  **** }
  91:src/SemC.cpp  **** void SemC::unblock() {
  92:src/SemC.cpp  ****     Scheduler &s=Scheduler::getSchedulerInstance();
  93:src/SemC.cpp  ****     TCB* t=queue.get();
  94:src/SemC.cpp  ****     if(t->getTimedWaitSem()==this){
  95:src/SemC.cpp  ****         SleepQueue &sl=SleepQueue::getSleepQueueInstance();
  96:src/SemC.cpp  ****         sl.removeInterrupted(t);
  97:src/SemC.cpp  ****     }
  98:src/SemC.cpp  ****     s.put(t);
  99:src/SemC.cpp  **** }...
  11              		.loc 1 99 1
  12              		.cfi_startproc
  13              	.LVL0:
  14 0000 130101FF 		addi	sp,sp,-16
  15              		.cfi_def_cfa_offset 16
  16 0004 23348100 		sd	s0,8(sp)
GAS LISTING /tmp/cct6YsCM.s 			page 3


  17              		.cfi_offset 8, -8
  18 0008 13040101 		addi	s0,sp,16
  19              		.cfi_def_cfa 8, 0
  20              		.loc 1 99 1 is_stmt 0
  21 000c 93071000 		li	a5,1
  22 0010 6308F500 		beq	a0,a5,.L5
  23              	.L1:
  24 0014 03348100 		ld	s0,8(sp)
  25              		.cfi_remember_state
  26              		.cfi_restore 8
  27              		.cfi_def_cfa 2, 16
  28 0018 13010101 		addi	sp,sp,16
  29              		.cfi_def_cfa_offset 0
  30 001c 67800000 		jr	ra
  31              	.L5:
  32              		.cfi_restore_state
  33              		.loc 1 99 1 discriminator 1
  34 0020 B7070100 		li	a5,65536
  35 0024 9387F7FF 		addi	a5,a5,-1
  36 0028 E396F5FE 		bne	a1,a5,.L1
  37              	.LVL1:
  38              	.LBB14:
  39              	.LBB15:
  40              	.LBB16:
  41              		.file 2 "src/../h/KernelResourceManager.hpp"
   1:src/../h/KernelResourceManager.hpp **** #ifndef PROJECT_BASE_V1_1_2_KERNELRESOURCEMANAGER_HPP
   2:src/../h/KernelResourceManager.hpp **** #define PROJECT_BASE_V1_1_2_KERNELRESOURCEMANAGER_HPP
   3:src/../h/KernelResourceManager.hpp **** #include "../lib/hw.h"
   4:src/../h/KernelResourceManager.hpp **** #include "MemoryAllocator.hpp"
   5:src/../h/KernelResourceManager.hpp **** template<typename T> class KernelResourceManager{
   6:src/../h/KernelResourceManager.hpp **** public:
   7:src/../h/KernelResourceManager.hpp ****     KernelResourceManager(){
  42              		.loc 2 7 28
  43 002c 97070000 		sw	zero,_ZN4SemC18semaphoreAllocatorE+40960,a5
  43      23A00700 
  44              	.LVL2:
  45              	.LBB17:
   8:src/../h/KernelResourceManager.hpp ****         for(int i=0;i<DEFAULT_SIZE;i++){
  46              		.loc 2 8 17
  47 0034 93070000 		li	a5,0
  48              	.LVL3:
  49              	.L3:
  50              		.loc 2 8 22 is_stmt 1
  51 0038 1307F03F 		li	a4,1023
  52 003c E34CF7FC 		bgt	a5,a4,.L1
   9:src/../h/KernelResourceManager.hpp ****             occupied[i]=false;
  53              		.loc 2 9 13 is_stmt 0
  54 0040 17070000 		lla	a4,_ZN4SemC18semaphoreAllocatorE
  54      13070700 
  55 0048 B306F700 		add	a3,a4,a5
  56 004c 37A70000 		li	a4,40960
  57 0050 3307D700 		add	a4,a4,a3
  58 0054 23020700 		sb	zero,4(a4)
   8:src/../h/KernelResourceManager.hpp ****         for(int i=0;i<DEFAULT_SIZE;i++){
  59              		.loc 2 8 9 is_stmt 1
  60 0058 9B871700 		addiw	a5,a5,1
  61              	.LVL4:
GAS LISTING /tmp/cct6YsCM.s 			page 4


  62 005c 6FF0DFFD 		j	.L3
  63              	.LBE17:
  64              	.LBE16:
  65              	.LBE15:
  66              	.LBE14:
  67              		.cfi_endproc
  68              	.LFE25:
  70              		.align	2
  71              		.globl	_ZN4SemCC2Ej
  73              	_ZN4SemCC2Ej:
  74              	.LFB7:
   4:src/SemC.cpp  **** SemC::SemC(unsigned int v):val((int)v) {
  75              		.loc 1 4 1
  76              		.cfi_startproc
  77              	.LVL5:
  78 0060 130101FF 		addi	sp,sp,-16
  79              		.cfi_def_cfa_offset 16
  80 0064 23348100 		sd	s0,8(sp)
  81              		.cfi_offset 8, -8
  82 0068 13040101 		addi	s0,sp,16
  83              		.cfi_def_cfa 8, 0
  84              	.LBB18:
   4:src/SemC.cpp  **** SemC::SemC(unsigned int v):val((int)v) {
  85              		.loc 1 4 38 is_stmt 0
  86 006c 23000500 		sb	zero,0(a0)
  87 0070 2322B500 		sw	a1,4(a0)
  88 0074 23340500 		sd	zero,8(a0)
  89 0078 23380500 		sd	zero,16(a0)
  90 007c 232C0500 		sw	zero,24(a0)
   5:src/SemC.cpp  ****     resourceId=sid;
  91              		.loc 1 5 5 is_stmt 1
   5:src/SemC.cpp  ****     resourceId=sid;
  92              		.loc 1 5 15 is_stmt 0
  93 0080 97070000 		lw	a5,.LANCHOR0
  93      83A70700 
  94 0088 2320F502 		sw	a5,32(a0)
  95              	.LBE18:
   6:src/SemC.cpp  **** }
  96              		.loc 1 6 1
  97 008c 03348100 		ld	s0,8(sp)
  98              		.cfi_restore 8
  99              		.cfi_def_cfa 2, 16
 100 0090 13010101 		addi	sp,sp,16
 101              		.cfi_def_cfa_offset 0
 102 0094 67800000 		jr	ra
 103              		.cfi_endproc
 104              	.LFE7:
 106              		.globl	_ZN4SemCC1Ej
 107              		.set	_ZN4SemCC1Ej,_ZN4SemCC2Ej
 108              		.align	2
 109              		.globl	_ZN4SemC9timedwaitEm
 111              	_ZN4SemC9timedwaitEm:
 112              	.LFB12:
  30:src/SemC.cpp  **** int SemC::timedwait(time_t time) {
 113              		.loc 1 30 34 is_stmt 1
 114              		.cfi_startproc
 115              	.LVL6:
GAS LISTING /tmp/cct6YsCM.s 			page 5


 116 0098 130101FD 		addi	sp,sp,-48
 117              		.cfi_def_cfa_offset 48
 118 009c 23341102 		sd	ra,40(sp)
 119 00a0 23308102 		sd	s0,32(sp)
 120 00a4 233C9100 		sd	s1,24(sp)
 121 00a8 23382101 		sd	s2,16(sp)
 122 00ac 23343101 		sd	s3,8(sp)
 123              		.cfi_offset 1, -8
 124              		.cfi_offset 8, -16
 125              		.cfi_offset 9, -24
 126              		.cfi_offset 18, -32
 127              		.cfi_offset 19, -40
 128 00b0 13040103 		addi	s0,sp,48
 129              		.cfi_def_cfa 8, 0
 130 00b4 93040500 		mv	s1,a0
  31:src/SemC.cpp  ****     if(--val<0){
 131              		.loc 1 31 5
 132              	.LBB19:
  31:src/SemC.cpp  ****     if(--val<0){
 133              		.loc 1 31 10 is_stmt 0
 134 00b8 83274500 		lw	a5,4(a0)
  31:src/SemC.cpp  ****     if(--val<0){
 135              		.loc 1 31 8
 136 00bc 9B87F7FF 		addiw	a5,a5,-1
  31:src/SemC.cpp  ****     if(--val<0){
 137              		.loc 1 31 13
 138 00c0 2322F500 		sw	a5,4(a0)
  31:src/SemC.cpp  ****     if(--val<0){
 139              		.loc 1 31 5
 140 00c4 13970702 		slli	a4,a5,32
 141 00c8 63460702 		bltz	a4,.L15
 142              	.LBE19:
  48:src/SemC.cpp  ****     if(isClosing){
 143              		.loc 1 48 5 is_stmt 1
  48:src/SemC.cpp  ****     if(isClosing){
 144              		.loc 1 48 8 is_stmt 0
 145 00cc 83470500 		lbu	a5,0(a0)
  48:src/SemC.cpp  ****     if(isClosing){
 146              		.loc 1 48 5
 147 00d0 6396070C 		bnez	a5,.L13
  51:src/SemC.cpp  ****     return 0;
 148              		.loc 1 51 12
 149 00d4 13050000 		li	a0,0
 150              	.LVL7:
 151              	.L11:
  52:src/SemC.cpp  **** }
 152              		.loc 1 52 1
 153 00d8 83308102 		ld	ra,40(sp)
 154              		.cfi_remember_state
 155              		.cfi_restore 1
 156 00dc 03340102 		ld	s0,32(sp)
 157              		.cfi_restore 8
 158              		.cfi_def_cfa 2, 48
 159 00e0 83348101 		ld	s1,24(sp)
 160              		.cfi_restore 9
 161              	.LVL8:
 162 00e4 03390101 		ld	s2,16(sp)
GAS LISTING /tmp/cct6YsCM.s 			page 6


 163              		.cfi_restore 18
 164 00e8 83398100 		ld	s3,8(sp)
 165              		.cfi_restore 19
 166 00ec 13010103 		addi	sp,sp,48
 167              		.cfi_def_cfa_offset 0
 168 00f0 67800000 		jr	ra
 169              	.LVL9:
 170              	.L15:
 171              		.cfi_restore_state
 172 00f4 13890500 		mv	s2,a1
 173              	.LBB21:
 174              	.LBB20:
  32:src/SemC.cpp  ****         TCB* thr=TCB::getRunning();
 175              		.loc 1 32 9 is_stmt 1
  32:src/SemC.cpp  ****         TCB* thr=TCB::getRunning();
 176              		.loc 1 32 33 is_stmt 0
 177 00f8 97000000 		call	_ZN3TCB10getRunningEv@plt
 177      E7800000 
 178              	.LVL10:
 179 0100 93090500 		mv	s3,a0
 180              	.LVL11:
  33:src/SemC.cpp  ****         thr->setTimedWaitSem(this);
 181              		.loc 1 33 9 is_stmt 1
  33:src/SemC.cpp  ****         thr->setTimedWaitSem(this);
 182              		.loc 1 33 29 is_stmt 0
 183 0104 93850400 		mv	a1,s1
 184 0108 97000000 		call	_ZN3TCB15setTimedWaitSemEP4SemC@plt
 184      E7800000 
 185              	.LVL12:
  34:src/SemC.cpp  ****         queue.put(thr);
 186              		.loc 1 34 9 is_stmt 1
  34:src/SemC.cpp  ****         queue.put(thr);
 187              		.loc 1 34 18 is_stmt 0
 188 0110 93850900 		mv	a1,s3
 189 0114 13858400 		addi	a0,s1,8
 190 0118 97000000 		call	_ZN12BlockedQueue3putEP3TCB@plt
 190      E7800000 
 191              	.LVL13:
  35:src/SemC.cpp  ****         SleepQueue &sl=SleepQueue::getSleepQueueInstance();
 192              		.loc 1 35 9 is_stmt 1
  35:src/SemC.cpp  ****         SleepQueue &sl=SleepQueue::getSleepQueueInstance();
 193              		.loc 1 35 58 is_stmt 0
 194 0120 97000000 		call	_ZN10SleepQueue21getSleepQueueInstanceEv@plt
 194      E7800000 
 195              	.LVL14:
  36:src/SemC.cpp  ****         sl.put(thr, time);
 196              		.loc 1 36 9 is_stmt 1
  36:src/SemC.cpp  ****         sl.put(thr, time);
 197              		.loc 1 36 15 is_stmt 0
 198 0128 13060900 		mv	a2,s2
 199 012c 93850900 		mv	a1,s3
 200 0130 97000000 		call	_ZN10SleepQueue3putEP3TCBm@plt
 200      E7800000 
 201              	.LVL15:
  37:src/SemC.cpp  ****         if(isClosing){
 202              		.loc 1 37 9 is_stmt 1
  37:src/SemC.cpp  ****         if(isClosing){
GAS LISTING /tmp/cct6YsCM.s 			page 7


 203              		.loc 1 37 12 is_stmt 0
 204 0138 83C70400 		lbu	a5,0(s1)
  37:src/SemC.cpp  ****         if(isClosing){
 205              		.loc 1 37 9
 206 013c 63980702 		bnez	a5,.L16
  41:src/SemC.cpp  ****         if(TCB::getRunning()->getInterruptedWhileWaiting()){
 207              		.loc 1 41 9 is_stmt 1
  41:src/SemC.cpp  ****         if(TCB::getRunning()->getInterruptedWhileWaiting()){
 208              		.loc 1 41 57 is_stmt 0
 209 0140 97000000 		call	_ZN3TCB10getRunningEv@plt
 209      E7800000 
 210              	.LVL16:
 211 0148 97000000 		call	_ZNK3TCB26getInterruptedWhileWaitingEv@plt
 211      E7800000 
 212              	.LVL17:
  41:src/SemC.cpp  ****         if(TCB::getRunning()->getInterruptedWhileWaiting()){
 213              		.loc 1 41 9
 214 0150 631A0502 		bnez	a0,.L17
  45:src/SemC.cpp  ****         TCB::getRunning()->resetInterruptedWhileWaiting();
 215              		.loc 1 45 9 is_stmt 1
  45:src/SemC.cpp  ****         TCB::getRunning()->resetInterruptedWhileWaiting();
 216              		.loc 1 45 56 is_stmt 0
 217 0154 97000000 		call	_ZN3TCB10getRunningEv@plt
 217      E7800000 
 218              	.LVL18:
 219 015c 97000000 		call	_ZN3TCB28resetInterruptedWhileWaitingEv@plt
 219      E7800000 
 220              	.LVL19:
  46:src/SemC.cpp  ****         return 0;
 221              		.loc 1 46 9 is_stmt 1
  46:src/SemC.cpp  ****         return 0;
 222              		.loc 1 46 16 is_stmt 0
 223 0164 13050000 		li	a0,0
 224 0168 6FF01FF7 		j	.L11
 225              	.L16:
  38:src/SemC.cpp  ****             TCB::getRunning()->resetInterruptedWhileWaiting();
 226              		.loc 1 38 13 is_stmt 1
  38:src/SemC.cpp  ****             TCB::getRunning()->resetInterruptedWhileWaiting();
 227              		.loc 1 38 60 is_stmt 0
 228 016c 97000000 		call	_ZN3TCB10getRunningEv@plt
 228      E7800000 
 229              	.LVL20:
 230 0174 97000000 		call	_ZN3TCB28resetInterruptedWhileWaitingEv@plt
 230      E7800000 
 231              	.LVL21:
  39:src/SemC.cpp  ****             return -1;
 232              		.loc 1 39 13 is_stmt 1
  39:src/SemC.cpp  ****             return -1;
 233              		.loc 1 39 21 is_stmt 0
 234 017c 1305F0FF 		li	a0,-1
 235 0180 6FF09FF5 		j	.L11
 236              	.L17:
  42:src/SemC.cpp  ****             TCB::getRunning()->resetInterruptedWhileWaiting();
 237              		.loc 1 42 13 is_stmt 1
  42:src/SemC.cpp  ****             TCB::getRunning()->resetInterruptedWhileWaiting();
 238              		.loc 1 42 60 is_stmt 0
 239 0184 97000000 		call	_ZN3TCB10getRunningEv@plt
GAS LISTING /tmp/cct6YsCM.s 			page 8


 239      E7800000 
 240              	.LVL22:
 241 018c 97000000 		call	_ZN3TCB28resetInterruptedWhileWaitingEv@plt
 241      E7800000 
 242              	.LVL23:
  43:src/SemC.cpp  ****             return -2;
 243              		.loc 1 43 13 is_stmt 1
  43:src/SemC.cpp  ****             return -2;
 244              		.loc 1 43 21 is_stmt 0
 245 0194 1305E0FF 		li	a0,-2
 246 0198 6FF01FF4 		j	.L11
 247              	.LVL24:
 248              	.L13:
 249              	.LBE20:
 250              	.LBE21:
  49:src/SemC.cpp  ****         return -1;
 251              		.loc 1 49 17
 252 019c 1305F0FF 		li	a0,-1
 253 01a0 6FF09FF3 		j	.L11
 254              		.cfi_endproc
 255              	.LFE12:
 257              		.align	2
 258              		.globl	_ZN4SemC7trywaitEv
 260              	_ZN4SemC7trywaitEv:
 261              	.LFB13:
  53:src/SemC.cpp  **** int SemC::trywait() {
 262              		.loc 1 53 21 is_stmt 1
 263              		.cfi_startproc
 264              	.LVL25:
 265 01a4 130101FF 		addi	sp,sp,-16
 266              		.cfi_def_cfa_offset 16
 267 01a8 23348100 		sd	s0,8(sp)
 268              		.cfi_offset 8, -8
 269 01ac 13040101 		addi	s0,sp,16
 270              		.cfi_def_cfa 8, 0
  55:src/SemC.cpp  ****     val--;
 271              		.loc 1 55 5
 272 01b0 83274500 		lw	a5,4(a0)
  55:src/SemC.cpp  ****     val--;
 273              		.loc 1 55 8 is_stmt 0
 274 01b4 9B87F7FF 		addiw	a5,a5,-1
 275 01b8 1B870700 		sext.w	a4,a5
 276 01bc 2322F500 		sw	a5,4(a0)
  56:src/SemC.cpp  ****     return val>=0;
 277              		.loc 1 56 5 is_stmt 1
  56:src/SemC.cpp  ****     return val>=0;
 278              		.loc 1 56 15 is_stmt 0
 279 01c0 1345F7FF 		not	a0,a4
 280              	.LVL26:
  57:src/SemC.cpp  **** }
 281              		.loc 1 57 1
 282 01c4 1B55F501 		srliw	a0,a0,31
 283 01c8 03348100 		ld	s0,8(sp)
 284              		.cfi_restore 8
 285              		.cfi_def_cfa 2, 16
 286 01cc 13010101 		addi	sp,sp,16
 287              		.cfi_def_cfa_offset 0
GAS LISTING /tmp/cct6YsCM.s 			page 9


 288 01d0 67800000 		jr	ra
 289              		.cfi_endproc
 290              	.LFE13:
 292              		.align	2
 293              		.globl	_ZN4SemCnwEm
 295              	_ZN4SemCnwEm:
 296              	.LFB14:
  58:src/SemC.cpp  **** void *SemC::operator new(size_t) {
 297              		.loc 1 58 34 is_stmt 1
 298              		.cfi_startproc
 299 01d4 130101FF 		addi	sp,sp,-16
 300              		.cfi_def_cfa_offset 16
 301 01d8 23348100 		sd	s0,8(sp)
 302              		.cfi_offset 8, -8
 303 01dc 13040101 		addi	s0,sp,16
 304              		.cfi_def_cfa 8, 0
  59:src/SemC.cpp  ****     return semaphoreAllocator.allocResource(sid);
 305              		.loc 1 59 5
 306              	.LVL27:
 307              	.LBB22:
 308              	.LBB23:
  10:src/../h/KernelResourceManager.hpp ****         }
  11:src/../h/KernelResourceManager.hpp ****     };
  12:src/../h/KernelResourceManager.hpp ****     void* allocResource(int &id){
  13:src/../h/KernelResourceManager.hpp ****         if(indexFree>=DEFAULT_SIZE) return nullptr;
 309              		.loc 2 13 12 is_stmt 0
 310 01e0 97070000 		lw	a5,_ZN4SemC18semaphoreAllocatorE+40960
 310      83A70700 
 311              		.loc 2 13 9
 312 01e8 1307F03F 		li	a4,1023
 313 01ec 634CF706 		bgt	a5,a4,.L24
  14:src/../h/KernelResourceManager.hpp ****         void *ret=&resourceBlock[indexFree*sizeof (T)];
 314              		.loc 2 14 43
 315 01f0 13972700 		slli	a4,a5,2
 316 01f4 3307F700 		add	a4,a4,a5
 317 01f8 13153700 		slli	a0,a4,3
 318              		.loc 2 14 15
 319 01fc 17070000 		lla	a4,_ZN4SemC18semaphoreAllocatorE
 319      13070700 
 320 0204 3305E500 		add	a0,a0,a4
 321              	.LVL28:
  15:src/../h/KernelResourceManager.hpp ****         occupied[indexFree]=true;
 322              		.loc 2 15 9
 323 0208 3307F700 		add	a4,a4,a5
 324 020c B7A60000 		li	a3,40960
 325 0210 3387E600 		add	a4,a3,a4
 326 0214 93061000 		li	a3,1
 327 0218 2302D700 		sb	a3,4(a4)
  16:src/../h/KernelResourceManager.hpp ****         id=indexFree;
 328              		.loc 2 16 9
 329 021c 17070000 		sw	a5,.LANCHOR0,a4
 329      2320F700 
 330              	.LVL29:
 331              	.L23:
  17:src/../h/KernelResourceManager.hpp ****         int i;
  18:src/../h/KernelResourceManager.hpp ****         for(i=indexFree;i<DEFAULT_SIZE;i++){
 332              		.loc 2 18 26 is_stmt 1
GAS LISTING /tmp/cct6YsCM.s 			page 10


 333 0224 1307F03F 		li	a4,1023
 334 0228 6344F702 		bgt	a5,a4,.L22
  19:src/../h/KernelResourceManager.hpp ****             if(!occupied[i]) break;
 335              		.loc 2 19 16 is_stmt 0
 336 022c 17070000 		lla	a4,_ZN4SemC18semaphoreAllocatorE
 336      13070700 
 337 0234 B306F700 		add	a3,a4,a5
 338 0238 37A70000 		li	a4,40960
 339 023c 3307D700 		add	a4,a4,a3
 340 0240 03474700 		lbu	a4,4(a4)
 341              		.loc 2 19 13
 342 0244 63060700 		beqz	a4,.L22
  18:src/../h/KernelResourceManager.hpp ****             if(!occupied[i]) break;
 343              		.loc 2 18 9 is_stmt 1
 344 0248 9B871700 		addiw	a5,a5,1
 345              	.LVL30:
 346 024c 6FF09FFD 		j	.L23
 347              	.LVL31:
 348              	.L22:
  20:src/../h/KernelResourceManager.hpp ****         }
  21:src/../h/KernelResourceManager.hpp ****         indexFree=i;
 349              		.loc 2 21 9 is_stmt 0
 350 0250 17070000 		sw	a5,_ZN4SemC18semaphoreAllocatorE+40960,a4
 350      2320F700 
 351              	.LVL32:
 352              	.L20:
 353              	.LBE23:
 354              	.LBE22:
  60:src/SemC.cpp  **** }
 355              		.loc 1 60 1
 356 0258 03348100 		ld	s0,8(sp)
 357              		.cfi_remember_state
 358              		.cfi_restore 8
 359              		.cfi_def_cfa 2, 16
 360 025c 13010101 		addi	sp,sp,16
 361              		.cfi_def_cfa_offset 0
 362 0260 67800000 		jr	ra
 363              	.LVL33:
 364              	.L24:
 365              		.cfi_restore_state
 366              	.LBB25:
 367              	.LBB24:
  13:src/../h/KernelResourceManager.hpp ****         void *ret=&resourceBlock[indexFree*sizeof (T)];
 368              		.loc 2 13 44
 369 0264 13050000 		li	a0,0
 370              	.LVL34:
 371              	.LBE24:
 372              	.LBE25:
  59:src/SemC.cpp  ****     return semaphoreAllocator.allocResource(sid);
 373              		.loc 1 59 48
 374 0268 6FF01FFF 		j	.L20
 375              		.cfi_endproc
 376              	.LFE14:
 378              		.align	2
 379              		.globl	_ZN4SemCdlEPv
 381              	_ZN4SemCdlEPv:
 382              	.LFB15:
GAS LISTING /tmp/cct6YsCM.s 			page 11


  62:src/SemC.cpp  **** void SemC::operator delete(void *ptr) {
 383              		.loc 1 62 39 is_stmt 1
 384              		.cfi_startproc
 385              	.LVL35:
 386 026c 130101FF 		addi	sp,sp,-16
 387              		.cfi_def_cfa_offset 16
 388 0270 23348100 		sd	s0,8(sp)
 389              		.cfi_offset 8, -8
 390 0274 13040101 		addi	s0,sp,16
 391              		.cfi_def_cfa 8, 0
  63:src/SemC.cpp  ****     SemC* s=(SemC*)ptr;
 392              		.loc 1 63 5
 393              	.LVL36:
  64:src/SemC.cpp  ****     semaphoreAllocator.deallocResource(s->resourceId);
 394              		.loc 1 64 5
  64:src/SemC.cpp  ****     semaphoreAllocator.deallocResource(s->resourceId);
 395              		.loc 1 64 39 is_stmt 0
 396 0278 83260502 		lw	a3,32(a0)
 397              	.LVL37:
 398              	.LBB26:
 399              	.LBB27:
  22:src/../h/KernelResourceManager.hpp ****         return ret;
  23:src/../h/KernelResourceManager.hpp ****     };
  24:src/../h/KernelResourceManager.hpp ****     //T* getResource(uint64 id);
  25:src/../h/KernelResourceManager.hpp ****     void deallocResource(int id){
  26:src/../h/KernelResourceManager.hpp ****         occupied[id]=false;
 400              		.loc 2 26 9
 401 027c 97070000 		lla	a5,_ZN4SemC18semaphoreAllocatorE
 401      93870700 
 402 0284 3387D700 		add	a4,a5,a3
 403 0288 B7A70000 		li	a5,40960
 404 028c B387E700 		add	a5,a5,a4
 405 0290 23820700 		sb	zero,4(a5)
  27:src/../h/KernelResourceManager.hpp ****         if(indexFree>id){
 406              		.loc 2 27 12
 407 0294 97070000 		lw	a5,_ZN4SemC18semaphoreAllocatorE+40960
 407      83A70700 
 408              		.loc 2 27 9
 409 029c 63D6F600 		bge	a3,a5,.L26
  28:src/../h/KernelResourceManager.hpp ****             indexFree=id;
 410              		.loc 2 28 13
 411 02a0 97070000 		sw	a3,_ZN4SemC18semaphoreAllocatorE+40960,a5
 411      23A0D700 
 412              	.LVL38:
 413              	.L26:
 414              	.LBE27:
 415              	.LBE26:
  65:src/SemC.cpp  **** }
 416              		.loc 1 65 1
 417 02a8 03348100 		ld	s0,8(sp)
 418              		.cfi_restore 8
 419              		.cfi_def_cfa 2, 16
 420 02ac 13010101 		addi	sp,sp,16
 421              		.cfi_def_cfa_offset 0
 422 02b0 67800000 		jr	ra
 423              		.cfi_endproc
 424              	.LFE15:
GAS LISTING /tmp/cct6YsCM.s 			page 12


 426              		.align	2
 427              		.globl	_ZN4SemC5blockEv
 429              	_ZN4SemC5blockEv:
 430              	.LFB17:
  74:src/SemC.cpp  **** void SemC::block() {
 431              		.loc 1 74 20 is_stmt 1
 432              		.cfi_startproc
 433              	.LVL39:
 434 02b4 130101FD 		addi	sp,sp,-48
 435              		.cfi_def_cfa_offset 48
 436 02b8 23341102 		sd	ra,40(sp)
 437 02bc 23308102 		sd	s0,32(sp)
 438 02c0 233C9100 		sd	s1,24(sp)
 439 02c4 23382101 		sd	s2,16(sp)
 440 02c8 23343101 		sd	s3,8(sp)
 441 02cc 23304101 		sd	s4,0(sp)
 442              		.cfi_offset 1, -8
 443              		.cfi_offset 8, -16
 444              		.cfi_offset 9, -24
 445              		.cfi_offset 18, -32
 446              		.cfi_offset 19, -40
 447              		.cfi_offset 20, -48
 448 02d0 13040103 		addi	s0,sp,48
 449              		.cfi_def_cfa 8, 0
 450 02d4 93090500 		mv	s3,a0
  75:src/SemC.cpp  ****     Scheduler &s=Scheduler::getSchedulerInstance();
 451              		.loc 1 75 5
  75:src/SemC.cpp  ****     Scheduler &s=Scheduler::getSchedulerInstance();
 452              		.loc 1 75 50 is_stmt 0
 453 02d8 97000000 		call	_ZN9Scheduler20getSchedulerInstanceEv@plt
 453      E7800000 
 454              	.LVL40:
 455 02e0 130A0500 		mv	s4,a0
 456              	.LVL41:
  76:src/SemC.cpp  ****     TCB* newThread=s.get();
 457              		.loc 1 76 5 is_stmt 1
  76:src/SemC.cpp  ****     TCB* newThread=s.get();
 458              		.loc 1 76 25 is_stmt 0
 459 02e4 97000000 		call	_ZN9Scheduler3getEv@plt
 459      E7800000 
 460              	.LVL42:
 461 02ec 93040500 		mv	s1,a0
 462              	.LVL43:
  77:src/SemC.cpp  ****     TCB* oldThread=TCB::getRunning();
 463              		.loc 1 77 5 is_stmt 1
  77:src/SemC.cpp  ****     TCB* oldThread=TCB::getRunning();
 464              		.loc 1 77 35 is_stmt 0
 465 02f0 97000000 		call	_ZN3TCB10getRunningEv@plt
 465      E7800000 
 466              	.LVL44:
 467 02f8 13090500 		mv	s2,a0
 468              	.LVL45:
  78:src/SemC.cpp  ****     if(newThread==oldThread&&s.getThreadCnt()){
 469              		.loc 1 78 5 is_stmt 1
  78:src/SemC.cpp  ****     if(newThread==oldThread&&s.getThreadCnt()){
 470              		.loc 1 78 28 is_stmt 0
 471 02fc 6388A404 		beq	s1,a0,.L32
GAS LISTING /tmp/cct6YsCM.s 			page 13


 472              	.LVL46:
 473              	.L30:
  81:src/SemC.cpp  ****     queue.put(oldThread);
 474              		.loc 1 81 5 is_stmt 1
  81:src/SemC.cpp  ****     queue.put(oldThread);
 475              		.loc 1 81 14 is_stmt 0
 476 0300 93050900 		mv	a1,s2
 477 0304 13858900 		addi	a0,s3,8
 478 0308 97000000 		call	_ZN12BlockedQueue3putEP3TCB@plt
 478      E7800000 
 479              	.LVL47:
  82:src/SemC.cpp  ****     TCB::setRunning(newThread);
 480              		.loc 1 82 5 is_stmt 1
  82:src/SemC.cpp  ****     TCB::setRunning(newThread);
 481              		.loc 1 82 20 is_stmt 0
 482 0310 13850400 		mv	a0,s1
 483 0314 97000000 		call	_ZN3TCB10setRunningEPS_@plt
 483      E7800000 
 484              	.LVL48:
  83:src/SemC.cpp  ****     TCB::yield(oldThread,newThread);
 485              		.loc 1 83 5 is_stmt 1
  83:src/SemC.cpp  ****     TCB::yield(oldThread,newThread);
 486              		.loc 1 83 15 is_stmt 0
 487 031c 93850400 		mv	a1,s1
 488 0320 13050900 		mv	a0,s2
 489 0324 97000000 		call	_ZN3TCB5yieldEPS_S0_@plt
 489      E7800000 
 490              	.LVL49:
  84:src/SemC.cpp  **** }
 491              		.loc 1 84 1
 492 032c 83308102 		ld	ra,40(sp)
 493              		.cfi_remember_state
 494              		.cfi_restore 1
 495 0330 03340102 		ld	s0,32(sp)
 496              		.cfi_restore 8
 497              		.cfi_def_cfa 2, 48
 498 0334 83348101 		ld	s1,24(sp)
 499              		.cfi_restore 9
 500              	.LVL50:
 501 0338 03390101 		ld	s2,16(sp)
 502              		.cfi_restore 18
 503              	.LVL51:
 504 033c 83398100 		ld	s3,8(sp)
 505              		.cfi_restore 19
 506              	.LVL52:
 507 0340 033A0100 		ld	s4,0(sp)
 508              		.cfi_restore 20
 509              	.LVL53:
 510 0344 13010103 		addi	sp,sp,48
 511              		.cfi_def_cfa_offset 0
 512 0348 67800000 		jr	ra
 513              	.LVL54:
 514              	.L32:
 515              		.cfi_restore_state
  78:src/SemC.cpp  ****     if(newThread==oldThread&&s.getThreadCnt()){
 516              		.loc 1 78 44 discriminator 1
 517 034c 13050A00 		mv	a0,s4
GAS LISTING /tmp/cct6YsCM.s 			page 14


 518              	.LVL55:
 519 0350 97000000 		call	_ZNK9Scheduler12getThreadCntEv@plt
 519      E7800000 
 520              	.LVL56:
  78:src/SemC.cpp  ****     if(newThread==oldThread&&s.getThreadCnt()){
 521              		.loc 1 78 28 discriminator 1
 522 0358 E30405FA 		beqz	a0,.L30
  79:src/SemC.cpp  ****         newThread=s.get();
 523              		.loc 1 79 9 is_stmt 1
  79:src/SemC.cpp  ****         newThread=s.get();
 524              		.loc 1 79 24 is_stmt 0
 525 035c 13050A00 		mv	a0,s4
 526 0360 97000000 		call	_ZN9Scheduler3getEv@plt
 526      E7800000 
 527              	.LVL57:
 528 0368 93040500 		mv	s1,a0
 529              	.LVL58:
 530 036c 6FF05FF9 		j	.L30
 531              		.cfi_endproc
 532              	.LFE17:
 534              		.align	2
 535              		.globl	_ZN4SemC4waitEv
 537              	_ZN4SemC4waitEv:
 538              	.LFB9:
   8:src/SemC.cpp  **** int SemC::wait() {
 539              		.loc 1 8 18 is_stmt 1
 540              		.cfi_startproc
 541              	.LVL59:
 542 0370 130101FE 		addi	sp,sp,-32
 543              		.cfi_def_cfa_offset 32
 544 0374 233C1100 		sd	ra,24(sp)
 545 0378 23388100 		sd	s0,16(sp)
 546 037c 23349100 		sd	s1,8(sp)
 547              		.cfi_offset 1, -8
 548              		.cfi_offset 8, -16
 549              		.cfi_offset 9, -24
 550 0380 13040102 		addi	s0,sp,32
 551              		.cfi_def_cfa 8, 0
 552 0384 93040500 		mv	s1,a0
   9:src/SemC.cpp  ****     if(--val<0){
 553              		.loc 1 9 5
   9:src/SemC.cpp  ****     if(--val<0){
 554              		.loc 1 9 10 is_stmt 0
 555 0388 83274500 		lw	a5,4(a0)
   9:src/SemC.cpp  ****     if(--val<0){
 556              		.loc 1 9 8
 557 038c 9B87F7FF 		addiw	a5,a5,-1
   9:src/SemC.cpp  ****     if(--val<0){
 558              		.loc 1 9 13
 559 0390 2322F500 		sw	a5,4(a0)
   9:src/SemC.cpp  ****     if(--val<0){
 560              		.loc 1 9 5
 561 0394 13970702 		slli	a4,a5,32
 562 0398 63420702 		bltz	a4,.L38
 563              	.LVL60:
 564              	.L34:
  12:src/SemC.cpp  ****     if(isClosing){
GAS LISTING /tmp/cct6YsCM.s 			page 15


 565              		.loc 1 12 5 is_stmt 1
  12:src/SemC.cpp  ****     if(isClosing){
 566              		.loc 1 12 8 is_stmt 0
 567 039c 83C70400 		lbu	a5,0(s1)
  12:src/SemC.cpp  ****     if(isClosing){
 568              		.loc 1 12 5
 569 03a0 63940702 		bnez	a5,.L36
  15:src/SemC.cpp  ****     return 0;
 570              		.loc 1 15 12
 571 03a4 13050000 		li	a0,0
 572              	.L35:
  16:src/SemC.cpp  **** }
 573              		.loc 1 16 1
 574 03a8 83308101 		ld	ra,24(sp)
 575              		.cfi_remember_state
 576              		.cfi_restore 1
 577 03ac 03340101 		ld	s0,16(sp)
 578              		.cfi_restore 8
 579              		.cfi_def_cfa 2, 32
 580 03b0 83348100 		ld	s1,8(sp)
 581              		.cfi_restore 9
 582              	.LVL61:
 583 03b4 13010102 		addi	sp,sp,32
 584              		.cfi_def_cfa_offset 0
 585 03b8 67800000 		jr	ra
 586              	.LVL62:
 587              	.L38:
 588              		.cfi_restore_state
  10:src/SemC.cpp  ****         block();
 589              		.loc 1 10 9 is_stmt 1
  10:src/SemC.cpp  ****         block();
 590              		.loc 1 10 14 is_stmt 0
 591 03bc 97000000 		call	_ZN4SemC5blockEv
 591      E7800000 
 592              	.LVL63:
 593 03c4 6FF09FFD 		j	.L34
 594              	.L36:
  13:src/SemC.cpp  ****         return -1;
 595              		.loc 1 13 17
 596 03c8 1305F0FF 		li	a0,-1
 597 03cc 6FF0DFFD 		j	.L35
 598              		.cfi_endproc
 599              	.LFE9:
 601              		.align	2
 602              		.globl	_ZN4SemC13unblockAwokenEP3TCB
 604              	_ZN4SemC13unblockAwokenEP3TCB:
 605              	.LFB18:
  86:src/SemC.cpp  **** void SemC::unblockAwoken(TCB *thr) {
 606              		.loc 1 86 36 is_stmt 1
 607              		.cfi_startproc
 608              	.LVL64:
 609 03d0 130101FD 		addi	sp,sp,-48
 610              		.cfi_def_cfa_offset 48
 611 03d4 23341102 		sd	ra,40(sp)
 612 03d8 23308102 		sd	s0,32(sp)
 613 03dc 233C9100 		sd	s1,24(sp)
 614 03e0 23382101 		sd	s2,16(sp)
GAS LISTING /tmp/cct6YsCM.s 			page 16


 615 03e4 23343101 		sd	s3,8(sp)
 616              		.cfi_offset 1, -8
 617              		.cfi_offset 8, -16
 618              		.cfi_offset 9, -24
 619              		.cfi_offset 18, -32
 620              		.cfi_offset 19, -40
 621 03e8 13040103 		addi	s0,sp,48
 622              		.cfi_def_cfa 8, 0
 623 03ec 93090500 		mv	s3,a0
 624 03f0 93840500 		mv	s1,a1
  87:src/SemC.cpp  ****     Scheduler &s=Scheduler::getSchedulerInstance();
 625              		.loc 1 87 5
  87:src/SemC.cpp  ****     Scheduler &s=Scheduler::getSchedulerInstance();
 626              		.loc 1 87 50 is_stmt 0
 627 03f4 97000000 		call	_ZN9Scheduler20getSchedulerInstanceEv@plt
 627      E7800000 
 628              	.LVL65:
 629 03fc 13090500 		mv	s2,a0
 630              	.LVL66:
  88:src/SemC.cpp  ****     queue.removeAwoken(thr);
 631              		.loc 1 88 5 is_stmt 1
  88:src/SemC.cpp  ****     queue.removeAwoken(thr);
 632              		.loc 1 88 23 is_stmt 0
 633 0400 93850400 		mv	a1,s1
 634 0404 13858900 		addi	a0,s3,8
 635              	.LVL67:
 636 0408 97000000 		call	_ZN12BlockedQueue12removeAwokenEP3TCB@plt
 636      E7800000 
 637              	.LVL68:
  89:src/SemC.cpp  ****     s.put(thr);
 638              		.loc 1 89 5 is_stmt 1
  89:src/SemC.cpp  ****     s.put(thr);
 639              		.loc 1 89 10 is_stmt 0
 640 0410 93850400 		mv	a1,s1
 641 0414 13050900 		mv	a0,s2
 642 0418 97000000 		call	_ZN9Scheduler3putEP3TCB@plt
 642      E7800000 
 643              	.LVL69:
  90:src/SemC.cpp  **** }
 644              		.loc 1 90 1
 645 0420 83308102 		ld	ra,40(sp)
 646              		.cfi_restore 1
 647 0424 03340102 		ld	s0,32(sp)
 648              		.cfi_restore 8
 649              		.cfi_def_cfa 2, 48
 650 0428 83348101 		ld	s1,24(sp)
 651              		.cfi_restore 9
 652              	.LVL70:
 653 042c 03390101 		ld	s2,16(sp)
 654              		.cfi_restore 18
 655              	.LVL71:
 656 0430 83398100 		ld	s3,8(sp)
 657              		.cfi_restore 19
 658              	.LVL72:
 659 0434 13010103 		addi	sp,sp,48
 660              		.cfi_def_cfa_offset 0
 661 0438 67800000 		jr	ra
GAS LISTING /tmp/cct6YsCM.s 			page 17


 662              		.cfi_endproc
 663              	.LFE18:
 665              		.align	2
 666              		.globl	_ZN4SemC12signalAwokenEP3TCB
 668              	_ZN4SemC12signalAwokenEP3TCB:
 669              	.LFB11:
  25:src/SemC.cpp  **** int SemC::signalAwoken(TCB *thr) {
 670              		.loc 1 25 34 is_stmt 1
 671              		.cfi_startproc
 672              	.LVL73:
 673 043c 130101FF 		addi	sp,sp,-16
 674              		.cfi_def_cfa_offset 16
 675 0440 23341100 		sd	ra,8(sp)
 676 0444 23308100 		sd	s0,0(sp)
 677              		.cfi_offset 1, -8
 678              		.cfi_offset 8, -16
 679 0448 13040101 		addi	s0,sp,16
 680              		.cfi_def_cfa 8, 0
  26:src/SemC.cpp  ****     val++;
 681              		.loc 1 26 5
 682 044c 03274500 		lw	a4,4(a0)
  26:src/SemC.cpp  ****     val++;
 683              		.loc 1 26 8 is_stmt 0
 684 0450 1B071700 		addiw	a4,a4,1
 685 0454 2322E500 		sw	a4,4(a0)
  27:src/SemC.cpp  ****     unblockAwoken(thr);
 686              		.loc 1 27 5 is_stmt 1
  27:src/SemC.cpp  ****     unblockAwoken(thr);
 687              		.loc 1 27 18 is_stmt 0
 688 0458 97000000 		call	_ZN4SemC13unblockAwokenEP3TCB
 688      E7800000 
 689              	.LVL74:
  28:src/SemC.cpp  ****     return 0;
 690              		.loc 1 28 5 is_stmt 1
  29:src/SemC.cpp  **** }
 691              		.loc 1 29 1 is_stmt 0
 692 0460 13050000 		li	a0,0
 693 0464 83308100 		ld	ra,8(sp)
 694              		.cfi_restore 1
 695 0468 03340100 		ld	s0,0(sp)
 696              		.cfi_restore 8
 697              		.cfi_def_cfa 2, 16
 698 046c 13010101 		addi	sp,sp,16
 699              		.cfi_def_cfa_offset 0
 700 0470 67800000 		jr	ra
 701              		.cfi_endproc
 702              	.LFE11:
 704              		.align	2
 705              		.globl	_ZN4SemC7unblockEv
 707              	_ZN4SemC7unblockEv:
 708              	.LFB19:
  91:src/SemC.cpp  **** void SemC::unblock() {
 709              		.loc 1 91 22 is_stmt 1
 710              		.cfi_startproc
 711              	.LVL75:
 712 0474 130101FD 		addi	sp,sp,-48
 713              		.cfi_def_cfa_offset 48
GAS LISTING /tmp/cct6YsCM.s 			page 18


 714 0478 23341102 		sd	ra,40(sp)
 715 047c 23308102 		sd	s0,32(sp)
 716 0480 233C9100 		sd	s1,24(sp)
 717 0484 23382101 		sd	s2,16(sp)
 718 0488 23343101 		sd	s3,8(sp)
 719              		.cfi_offset 1, -8
 720              		.cfi_offset 8, -16
 721              		.cfi_offset 9, -24
 722              		.cfi_offset 18, -32
 723              		.cfi_offset 19, -40
 724 048c 13040103 		addi	s0,sp,48
 725              		.cfi_def_cfa 8, 0
 726 0490 93040500 		mv	s1,a0
  92:src/SemC.cpp  ****     Scheduler &s=Scheduler::getSchedulerInstance();
 727              		.loc 1 92 5
  92:src/SemC.cpp  ****     Scheduler &s=Scheduler::getSchedulerInstance();
 728              		.loc 1 92 50 is_stmt 0
 729 0494 97000000 		call	_ZN9Scheduler20getSchedulerInstanceEv@plt
 729      E7800000 
 730              	.LVL76:
 731 049c 93090500 		mv	s3,a0
 732              	.LVL77:
  93:src/SemC.cpp  ****     TCB* t=queue.get();
 733              		.loc 1 93 5 is_stmt 1
  93:src/SemC.cpp  ****     TCB* t=queue.get();
 734              		.loc 1 93 21 is_stmt 0
 735 04a0 13858400 		addi	a0,s1,8
 736              	.LVL78:
 737 04a4 97000000 		call	_ZN12BlockedQueue3getEv@plt
 737      E7800000 
 738              	.LVL79:
 739 04ac 13090500 		mv	s2,a0
 740              	.LVL80:
  94:src/SemC.cpp  ****     if(t->getTimedWaitSem()==this){
 741              		.loc 1 94 5 is_stmt 1
 742              	.LBB28:
  94:src/SemC.cpp  ****     if(t->getTimedWaitSem()==this){
 743              		.loc 1 94 26 is_stmt 0
 744 04b0 97000000 		call	_ZNK3TCB15getTimedWaitSemEv@plt
 744      E7800000 
 745              	.LVL81:
  94:src/SemC.cpp  ****     if(t->getTimedWaitSem()==this){
 746              		.loc 1 94 5
 747 04b8 6388A402 		beq	s1,a0,.L46
 748              	.L44:
 749              	.LBE28:
  98:src/SemC.cpp  ****     s.put(t);
 750              		.loc 1 98 5 is_stmt 1
  98:src/SemC.cpp  ****     s.put(t);
 751              		.loc 1 98 10 is_stmt 0
 752 04bc 93050900 		mv	a1,s2
 753 04c0 13850900 		mv	a0,s3
 754 04c4 97000000 		call	_ZN9Scheduler3putEP3TCB@plt
 754      E7800000 
 755              	.LVL82:
 756              		.loc 1 99 1
 757 04cc 83308102 		ld	ra,40(sp)
GAS LISTING /tmp/cct6YsCM.s 			page 19


 758              		.cfi_remember_state
 759              		.cfi_restore 1
 760 04d0 03340102 		ld	s0,32(sp)
 761              		.cfi_restore 8
 762              		.cfi_def_cfa 2, 48
 763 04d4 83348101 		ld	s1,24(sp)
 764              		.cfi_restore 9
 765              	.LVL83:
 766 04d8 03390101 		ld	s2,16(sp)
 767              		.cfi_restore 18
 768              	.LVL84:
 769 04dc 83398100 		ld	s3,8(sp)
 770              		.cfi_restore 19
 771              	.LVL85:
 772 04e0 13010103 		addi	sp,sp,48
 773              		.cfi_def_cfa_offset 0
 774 04e4 67800000 		jr	ra
 775              	.LVL86:
 776              	.L46:
 777              		.cfi_restore_state
 778              	.LBB30:
 779              	.LBB29:
  95:src/SemC.cpp  ****         SleepQueue &sl=SleepQueue::getSleepQueueInstance();
 780              		.loc 1 95 9 is_stmt 1
  95:src/SemC.cpp  ****         SleepQueue &sl=SleepQueue::getSleepQueueInstance();
 781              		.loc 1 95 58 is_stmt 0
 782 04e8 97000000 		call	_ZN10SleepQueue21getSleepQueueInstanceEv@plt
 782      E7800000 
 783              	.LVL87:
  96:src/SemC.cpp  ****         sl.removeInterrupted(t);
 784              		.loc 1 96 9 is_stmt 1
  96:src/SemC.cpp  ****         sl.removeInterrupted(t);
 785              		.loc 1 96 29 is_stmt 0
 786 04f0 93050900 		mv	a1,s2
 787 04f4 97000000 		call	_ZN10SleepQueue17removeInterruptedEP3TCB@plt
 787      E7800000 
 788              	.LVL88:
 789              	.LBE29:
 790 04fc 6FF01FFC 		j	.L44
 791              	.LBE30:
 792              		.cfi_endproc
 793              	.LFE19:
 795              		.align	2
 796              		.globl	_ZN4SemC6signalEv
 798              	_ZN4SemC6signalEv:
 799              	.LFB10:
  18:src/SemC.cpp  **** int SemC::signal() {
 800              		.loc 1 18 20 is_stmt 1
 801              		.cfi_startproc
 802              	.LVL89:
  19:src/SemC.cpp  ****     if(++val<=0){
 803              		.loc 1 19 5
  19:src/SemC.cpp  ****     if(++val<=0){
 804              		.loc 1 19 10 is_stmt 0
 805 0500 83274500 		lw	a5,4(a0)
  19:src/SemC.cpp  ****     if(++val<=0){
 806              		.loc 1 19 8
GAS LISTING /tmp/cct6YsCM.s 			page 20


 807 0504 9B871700 		addiw	a5,a5,1
 808 0508 1B870700 		sext.w	a4,a5
  19:src/SemC.cpp  ****     if(++val<=0){
 809              		.loc 1 19 13
 810 050c 2322F500 		sw	a5,4(a0)
  19:src/SemC.cpp  ****     if(++val<=0){
 811              		.loc 1 19 5
 812 0510 6356E000 		blez	a4,.L53
  22:src/SemC.cpp  ****     return 0;
 813              		.loc 1 22 5 is_stmt 1
  23:src/SemC.cpp  **** }
 814              		.loc 1 23 1 is_stmt 0
 815 0514 13050000 		li	a0,0
 816              	.LVL90:
 817 0518 67800000 		ret
 818              	.LVL91:
 819              	.L53:
  18:src/SemC.cpp  **** int SemC::signal() {
 820              		.loc 1 18 20
 821 051c 130101FF 		addi	sp,sp,-16
 822              		.cfi_def_cfa_offset 16
 823 0520 23341100 		sd	ra,8(sp)
 824 0524 23308100 		sd	s0,0(sp)
 825              		.cfi_offset 1, -8
 826              		.cfi_offset 8, -16
 827 0528 13040101 		addi	s0,sp,16
 828              		.cfi_def_cfa 8, 0
  20:src/SemC.cpp  ****         unblock();
 829              		.loc 1 20 9 is_stmt 1
  20:src/SemC.cpp  ****         unblock();
 830              		.loc 1 20 16 is_stmt 0
 831 052c 97000000 		call	_ZN4SemC7unblockEv
 831      E7800000 
 832              	.LVL92:
  22:src/SemC.cpp  ****     return 0;
 833              		.loc 1 22 5 is_stmt 1
  23:src/SemC.cpp  **** }
 834              		.loc 1 23 1 is_stmt 0
 835 0534 13050000 		li	a0,0
 836 0538 83308100 		ld	ra,8(sp)
 837              		.cfi_restore 1
 838 053c 03340100 		ld	s0,0(sp)
 839              		.cfi_restore 8
 840              		.cfi_def_cfa 2, 16
 841 0540 13010101 		addi	sp,sp,16
 842              		.cfi_def_cfa_offset 0
 843 0544 67800000 		jr	ra
 844              		.cfi_endproc
 845              	.LFE10:
 847              		.align	2
 848              		.globl	_ZN4SemC7closingEv
 850              	_ZN4SemC7closingEv:
 851              	.LFB16:
  67:src/SemC.cpp  **** void SemC::closing() {
 852              		.loc 1 67 22 is_stmt 1
 853              		.cfi_startproc
 854              	.LVL93:
GAS LISTING /tmp/cct6YsCM.s 			page 21


 855 0548 130101FE 		addi	sp,sp,-32
 856              		.cfi_def_cfa_offset 32
 857 054c 233C1100 		sd	ra,24(sp)
 858 0550 23388100 		sd	s0,16(sp)
 859 0554 23349100 		sd	s1,8(sp)
 860              		.cfi_offset 1, -8
 861              		.cfi_offset 8, -16
 862              		.cfi_offset 9, -24
 863 0558 13040102 		addi	s0,sp,32
 864              		.cfi_def_cfa 8, 0
 865 055c 93040500 		mv	s1,a0
  68:src/SemC.cpp  ****     isClosing=true;
 866              		.loc 1 68 5
  68:src/SemC.cpp  ****     isClosing=true;
 867              		.loc 1 68 14 is_stmt 0
 868 0560 93071000 		li	a5,1
 869 0564 2300F500 		sb	a5,0(a0)
 870              	.LVL94:
 871              	.L56:
  69:src/SemC.cpp  ****     while(queue.getNumOfBlocked()){
 872              		.loc 1 69 5 is_stmt 1
  69:src/SemC.cpp  ****     while(queue.getNumOfBlocked()){
 873              		.loc 1 69 33
  69:src/SemC.cpp  ****     while(queue.getNumOfBlocked()){
 874              		.loc 1 69 32 is_stmt 0
 875 0568 13858400 		addi	a0,s1,8
 876 056c 97000000 		call	_ZNK12BlockedQueue15getNumOfBlockedEv@plt
 876      E7800000 
 877              	.LVL95:
  69:src/SemC.cpp  ****     while(queue.getNumOfBlocked()){
 878              		.loc 1 69 33
 879 0574 630A0500 		beqz	a0,.L54
  70:src/SemC.cpp  ****         unblock();
 880              		.loc 1 70 9 is_stmt 1
  70:src/SemC.cpp  ****         unblock();
 881              		.loc 1 70 16 is_stmt 0
 882 0578 13850400 		mv	a0,s1
 883 057c 97000000 		call	_ZN4SemC7unblockEv
 883      E7800000 
 884              	.LVL96:
  69:src/SemC.cpp  ****     while(queue.getNumOfBlocked()){
 885              		.loc 1 69 5
 886 0584 6FF05FFE 		j	.L56
 887              	.L54:
  72:src/SemC.cpp  **** }
 888              		.loc 1 72 1
 889 0588 83308101 		ld	ra,24(sp)
 890              		.cfi_restore 1
 891 058c 03340101 		ld	s0,16(sp)
 892              		.cfi_restore 8
 893              		.cfi_def_cfa 2, 32
 894 0590 83348100 		ld	s1,8(sp)
 895              		.cfi_restore 9
 896              	.LVL97:
 897 0594 13010102 		addi	sp,sp,32
 898              		.cfi_def_cfa_offset 0
 899 0598 67800000 		jr	ra
GAS LISTING /tmp/cct6YsCM.s 			page 22


 900              		.cfi_endproc
 901              	.LFE16:
 903              		.align	2
 905              	_GLOBAL__sub_I__ZN4SemC3sidE:
 906              	.LFB26:
 907              		.loc 1 99 1 is_stmt 1
 908              		.cfi_startproc
 909 059c 130101FF 		addi	sp,sp,-16
 910              		.cfi_def_cfa_offset 16
 911 05a0 23341100 		sd	ra,8(sp)
 912 05a4 23308100 		sd	s0,0(sp)
 913              		.cfi_offset 1, -8
 914              		.cfi_offset 8, -16
 915 05a8 13040101 		addi	s0,sp,16
 916              		.cfi_def_cfa 8, 0
 917              		.loc 1 99 1 is_stmt 0
 918 05ac B7050100 		li	a1,65536
 919 05b0 9385F5FF 		addi	a1,a1,-1
 920 05b4 13051000 		li	a0,1
 921 05b8 97000000 		call	_Z41__static_initialization_and_destruction_0ii
 921      E7800000 
 922              	.LVL98:
 923 05c0 83308100 		ld	ra,8(sp)
 924              		.cfi_restore 1
 925 05c4 03340100 		ld	s0,0(sp)
 926              		.cfi_restore 8
 927              		.cfi_def_cfa 2, 16
 928 05c8 13010101 		addi	sp,sp,16
 929              		.cfi_def_cfa_offset 0
 930 05cc 67800000 		jr	ra
 931              		.cfi_endproc
 932              	.LFE26:
 934              		.section	.init_array,"aw"
 935              		.align	3
 936 0000 00000000 		.dword	_GLOBAL__sub_I__ZN4SemC3sidE
 936      00000000 
 937              		.globl	_ZN4SemC18semaphoreAllocatorE
 938              		.globl	_ZN4SemC3sidE
 939              		.bss
 940              		.align	3
 941              		.set	.LANCHOR0,. + 0
 944              	_ZN4SemC3sidE:
 945 0000 00000000 		.zero	4
 946 0004 00000000 		.zero	4
 949              	_ZN4SemC18semaphoreAllocatorE:
 950 0008 00000000 		.zero	41988
 950      00000000 
 950      00000000 
 950      00000000 
 950      00000000 
 951              		.text
 952              	.Letext0:
 953              		.file 3 "src/../h/../lib/hw.h"
 954              		.file 4 "src/../h/TCB.hpp"
 955              		.file 5 "src/../h/SemC.hpp"
 956              		.file 6 "src/../h/../h/Scheduler.hpp"
 957              		.file 7 "src/../h/SleepQueue.hpp"
GAS LISTING /tmp/cct6YsCM.s 			page 23


 958              		.file 8 "src/../h/BlockedQueue.hpp"
 959              		.file 9 "src/../h/syscall_c.hpp"
GAS LISTING /tmp/cct6YsCM.s 			page 24

