GAS LISTING /tmp/cc1RLg4y.s 			page 1


   1              		.file	"SleepQueue.cpp"
   2              		.option pic
   3              		.option norelax
   4              		.text
   5              	.Ltext0:
   6              		.align	2
   7              		.globl	_ZN10SleepQueue21getSleepQueueInstanceEv
   9              	_ZN10SleepQueue21getSleepQueueInstanceEv:
  10              	.LFB6:
  11              		.file 1 "src/SleepQueue.cpp"
   1:src/SleepQueue.cpp **** #include "../h/SleepQueue.hpp"
   2:src/SleepQueue.cpp **** #include "../h/SemC.hpp"
   3:src/SleepQueue.cpp **** SleepQueue &SleepQueue::getSleepQueueInstance() {
  12              		.loc 1 3 49
  13              		.cfi_startproc
  14 0000 130101FF 		addi	sp,sp,-16
  15              		.cfi_def_cfa_offset 16
  16 0004 23348100 		sd	s0,8(sp)
  17              		.cfi_offset 8, -8
  18 0008 13040101 		addi	s0,sp,16
  19              		.cfi_def_cfa 8, 0
   4:src/SleepQueue.cpp ****     static SleepQueue instance;
  20              		.loc 1 4 5
   5:src/SleepQueue.cpp ****     return instance;
  21              		.loc 1 5 5
   6:src/SleepQueue.cpp **** }
  22              		.loc 1 6 1 is_stmt 0
  23 000c 17050000 		lla	a0,.LANCHOR0
  23      13050500 
  24 0014 03348100 		ld	s0,8(sp)
  25              		.cfi_restore 8
  26              		.cfi_def_cfa 2, 16
  27 0018 13010101 		addi	sp,sp,16
  28              		.cfi_def_cfa_offset 0
  29 001c 67800000 		jr	ra
  30              		.cfi_endproc
  31              	.LFE6:
  33              		.align	2
  34              		.globl	_ZN10SleepQueue19removeFromSchedulerEP3TCB
  36              	_ZN10SleepQueue19removeFromSchedulerEP3TCB:
  37              	.LFB11:
   7:src/SleepQueue.cpp **** void SleepQueue::put(TCB *thr, time_t ticks) {
   8:src/SleepQueue.cpp ****     if(!head){
   9:src/SleepQueue.cpp ****         head=thr;
  10:src/SleepQueue.cpp ****     }
  11:src/SleepQueue.cpp ****     else {
  12:src/SleepQueue.cpp ****         TCB *cur = head, *prev = nullptr;
  13:src/SleepQueue.cpp ****         while (cur) {
  14:src/SleepQueue.cpp ****             if (ticks <= cur->sleptTime) break;
  15:src/SleepQueue.cpp ****             ticks -= cur->sleptTime;
  16:src/SleepQueue.cpp ****             prev = cur;
  17:src/SleepQueue.cpp ****             cur = cur->nextSlept;
  18:src/SleepQueue.cpp ****         }
  19:src/SleepQueue.cpp ****         if(!prev){
  20:src/SleepQueue.cpp ****             thr->nextSlept=head;
  21:src/SleepQueue.cpp ****             thr->prevSlept= nullptr;
  22:src/SleepQueue.cpp ****             head=thr;
GAS LISTING /tmp/cc1RLg4y.s 			page 2


  23:src/SleepQueue.cpp ****         }
  24:src/SleepQueue.cpp ****         else{
  25:src/SleepQueue.cpp ****             thr->nextSlept=prev->nextSlept;
  26:src/SleepQueue.cpp ****             prev->nextSlept=thr;
  27:src/SleepQueue.cpp ****             thr->prevSlept=prev;
  28:src/SleepQueue.cpp ****         }
  29:src/SleepQueue.cpp ****         if(thr->nextSlept){
  30:src/SleepQueue.cpp ****             thr->nextSlept->prevSlept=thr;
  31:src/SleepQueue.cpp ****             thr->nextSlept->sleptTime-=ticks;
  32:src/SleepQueue.cpp ****         }
  33:src/SleepQueue.cpp ****     }
  34:src/SleepQueue.cpp ****     thr->sleptTime=ticks;
  35:src/SleepQueue.cpp ****     removeFromScheduler(thr);
  36:src/SleepQueue.cpp **** }
  37:src/SleepQueue.cpp **** 
  38:src/SleepQueue.cpp **** void SleepQueue::removeFromScheduler(TCB *thr) {
  38              		.loc 1 38 48 is_stmt 1
  39              		.cfi_startproc
  40              	.LVL0:
  41 0020 130101FE 		addi	sp,sp,-32
  42              		.cfi_def_cfa_offset 32
  43 0024 233C1100 		sd	ra,24(sp)
  44 0028 23388100 		sd	s0,16(sp)
  45 002c 23349100 		sd	s1,8(sp)
  46 0030 23302101 		sd	s2,0(sp)
  47              		.cfi_offset 1, -8
  48              		.cfi_offset 8, -16
  49              		.cfi_offset 9, -24
  50              		.cfi_offset 18, -32
  51 0034 13040102 		addi	s0,sp,32
  52              		.cfi_def_cfa 8, 0
  53 0038 93040500 		mv	s1,a0
  39:src/SleepQueue.cpp ****     Scheduler &s=Scheduler::getSchedulerInstance();
  54              		.loc 1 39 5
  55              		.loc 1 39 50 is_stmt 0
  56 003c 97000000 		call	_ZN9Scheduler20getSchedulerInstanceEv@plt
  56      E7800000 
  57              	.LVL1:
  40:src/SleepQueue.cpp ****     TCB* newThread=s.get();
  58              		.loc 1 40 5 is_stmt 1
  59              		.loc 1 40 25 is_stmt 0
  60 0044 97000000 		call	_ZN9Scheduler3getEv@plt
  60      E7800000 
  61              	.LVL2:
  62 004c 13090500 		mv	s2,a0
  63              	.LVL3:
  41:src/SleepQueue.cpp ****     TCB::setRunning(newThread);
  64              		.loc 1 41 5 is_stmt 1
  65              		.loc 1 41 20 is_stmt 0
  66 0050 97000000 		call	_ZN3TCB10setRunningEPS_@plt
  66      E7800000 
  67              	.LVL4:
  42:src/SleepQueue.cpp ****     TCB::yield(thr,newThread);
  68              		.loc 1 42 5 is_stmt 1
  69              		.loc 1 42 15 is_stmt 0
  70 0058 93050900 		mv	a1,s2
  71 005c 13850400 		mv	a0,s1
GAS LISTING /tmp/cc1RLg4y.s 			page 3


  72 0060 97000000 		call	_ZN3TCB5yieldEPS_S0_@plt
  72      E7800000 
  73              	.LVL5:
  43:src/SleepQueue.cpp **** }
  74              		.loc 1 43 1
  75 0068 83308101 		ld	ra,24(sp)
  76              		.cfi_restore 1
  77 006c 03340101 		ld	s0,16(sp)
  78              		.cfi_restore 8
  79              		.cfi_def_cfa 2, 32
  80 0070 83348100 		ld	s1,8(sp)
  81              		.cfi_restore 9
  82              	.LVL6:
  83 0074 03390100 		ld	s2,0(sp)
  84              		.cfi_restore 18
  85              	.LVL7:
  86 0078 13010102 		addi	sp,sp,32
  87              		.cfi_def_cfa_offset 0
  88 007c 67800000 		jr	ra
  89              		.cfi_endproc
  90              	.LFE11:
  92              		.align	2
  93              		.globl	_ZN10SleepQueue3putEP3TCBm
  95              	_ZN10SleepQueue3putEP3TCBm:
  96              	.LFB10:
   7:src/SleepQueue.cpp ****     if(!head){
  97              		.loc 1 7 46 is_stmt 1
  98              		.cfi_startproc
  99              	.LVL8:
 100 0080 130101FF 		addi	sp,sp,-16
 101              		.cfi_def_cfa_offset 16
 102 0084 23341100 		sd	ra,8(sp)
 103 0088 23308100 		sd	s0,0(sp)
 104              		.cfi_offset 1, -8
 105              		.cfi_offset 8, -16
 106 008c 13040101 		addi	s0,sp,16
 107              		.cfi_def_cfa 8, 0
 108 0090 13080500 		mv	a6,a0
 109 0094 13850500 		mv	a0,a1
 110              	.LVL9:
   8:src/SleepQueue.cpp ****         head=thr;
 111              		.loc 1 8 5
 112              	.LBB2:
   8:src/SleepQueue.cpp ****         head=thr;
 113              		.loc 1 8 9 is_stmt 0
 114 0098 83350800 		ld	a1,0(a6)
 115              	.LVL10:
   8:src/SleepQueue.cpp ****         head=thr;
 116              		.loc 1 8 5
 117 009c 63880500 		beqz	a1,.L13
 118              	.LBB3:
  12:src/SleepQueue.cpp ****         while (cur) {
 119              		.loc 1 12 14
 120 00a0 93870500 		mv	a5,a1
  12:src/SleepQueue.cpp ****         while (cur) {
 121              		.loc 1 12 27
 122 00a4 93060000 		li	a3,0
GAS LISTING /tmp/cc1RLg4y.s 			page 4


 123 00a8 6F008001 		j	.L6
 124              	.L13:
 125              	.LBE3:
   9:src/SleepQueue.cpp ****     }
 126              		.loc 1 9 9 is_stmt 1
   9:src/SleepQueue.cpp ****     }
 127              		.loc 1 9 13 is_stmt 0
 128 00ac 2330A800 		sd	a0,0(a6)
 129 00b0 6F00C004 		j	.L7
 130              	.LVL11:
 131              	.L14:
 132              	.LBB4:
  15:src/SleepQueue.cpp ****             prev = cur;
 133              		.loc 1 15 13 is_stmt 1
  15:src/SleepQueue.cpp ****             prev = cur;
 134              		.loc 1 15 19 is_stmt 0
 135 00b4 3306E640 		sub	a2,a2,a4
 136              	.LVL12:
  16:src/SleepQueue.cpp ****             cur = cur->nextSlept;
 137              		.loc 1 16 13 is_stmt 1
  17:src/SleepQueue.cpp ****         }
 138              		.loc 1 17 13
  16:src/SleepQueue.cpp ****             cur = cur->nextSlept;
 139              		.loc 1 16 18 is_stmt 0
 140 00b8 93860700 		mv	a3,a5
  17:src/SleepQueue.cpp ****         }
 141              		.loc 1 17 17
 142 00bc 83B70707 		ld	a5,112(a5)
 143              	.LVL13:
 144              	.L6:
  13:src/SleepQueue.cpp ****             if (ticks <= cur->sleptTime) break;
 145              		.loc 1 13 9 is_stmt 1
  13:src/SleepQueue.cpp ****             if (ticks <= cur->sleptTime) break;
 146              		.loc 1 13 16
 147 00c0 63860700 		beqz	a5,.L8
  14:src/SleepQueue.cpp ****             ticks -= cur->sleptTime;
 148              		.loc 1 14 13
  14:src/SleepQueue.cpp ****             ticks -= cur->sleptTime;
 149              		.loc 1 14 31 is_stmt 0
 150 00c4 03B78707 		ld	a4,120(a5)
  14:src/SleepQueue.cpp ****             ticks -= cur->sleptTime;
 151              		.loc 1 14 13
 152 00c8 E366C7FE 		bltu	a4,a2,.L14
 153              	.L8:
  19:src/SleepQueue.cpp ****             thr->nextSlept=head;
 154              		.loc 1 19 9 is_stmt 1
 155 00cc 63860604 		beqz	a3,.L15
  25:src/SleepQueue.cpp ****             prev->nextSlept=thr;
 156              		.loc 1 25 13
  25:src/SleepQueue.cpp ****             prev->nextSlept=thr;
 157              		.loc 1 25 34 is_stmt 0
 158 00d0 83B70607 		ld	a5,112(a3)
 159              	.LVL14:
  25:src/SleepQueue.cpp ****             prev->nextSlept=thr;
 160              		.loc 1 25 27
 161 00d4 2338F506 		sd	a5,112(a0)
  26:src/SleepQueue.cpp ****             thr->prevSlept=prev;
GAS LISTING /tmp/cc1RLg4y.s 			page 5


 162              		.loc 1 26 13 is_stmt 1
  26:src/SleepQueue.cpp ****             thr->prevSlept=prev;
 163              		.loc 1 26 28 is_stmt 0
 164 00d8 23B8A606 		sd	a0,112(a3)
  27:src/SleepQueue.cpp ****         }
 165              		.loc 1 27 13 is_stmt 1
  27:src/SleepQueue.cpp ****         }
 166              		.loc 1 27 27 is_stmt 0
 167 00dc 2334D506 		sd	a3,104(a0)
 168              	.L10:
  29:src/SleepQueue.cpp ****             thr->nextSlept->prevSlept=thr;
 169              		.loc 1 29 9 is_stmt 1
  29:src/SleepQueue.cpp ****             thr->nextSlept->prevSlept=thr;
 170              		.loc 1 29 17 is_stmt 0
 171 00e0 83370507 		ld	a5,112(a0)
  29:src/SleepQueue.cpp ****             thr->nextSlept->prevSlept=thr;
 172              		.loc 1 29 9
 173 00e4 638C0700 		beqz	a5,.L7
  30:src/SleepQueue.cpp ****             thr->nextSlept->sleptTime-=ticks;
 174              		.loc 1 30 13 is_stmt 1
  30:src/SleepQueue.cpp ****             thr->nextSlept->sleptTime-=ticks;
 175              		.loc 1 30 38 is_stmt 0
 176 00e8 23B4A706 		sd	a0,104(a5)
  31:src/SleepQueue.cpp ****         }
 177              		.loc 1 31 13 is_stmt 1
  31:src/SleepQueue.cpp ****         }
 178              		.loc 1 31 18 is_stmt 0
 179 00ec 03370507 		ld	a4,112(a0)
  31:src/SleepQueue.cpp ****         }
 180              		.loc 1 31 38
 181 00f0 83378707 		ld	a5,120(a4)
 182 00f4 B387C740 		sub	a5,a5,a2
 183 00f8 233CF706 		sd	a5,120(a4)
 184              	.LVL15:
 185              	.L7:
 186              	.LBE4:
 187              	.LBE2:
  34:src/SleepQueue.cpp ****     removeFromScheduler(thr);
 188              		.loc 1 34 5 is_stmt 1
  34:src/SleepQueue.cpp ****     removeFromScheduler(thr);
 189              		.loc 1 34 19 is_stmt 0
 190 00fc 233CC506 		sd	a2,120(a0)
  35:src/SleepQueue.cpp **** }
 191              		.loc 1 35 5 is_stmt 1
  35:src/SleepQueue.cpp **** }
 192              		.loc 1 35 24 is_stmt 0
 193 0100 97000000 		call	_ZN10SleepQueue19removeFromSchedulerEP3TCB
 193      E7800000 
 194              	.LVL16:
  36:src/SleepQueue.cpp **** 
 195              		.loc 1 36 1
 196 0108 83308100 		ld	ra,8(sp)
 197              		.cfi_remember_state
 198              		.cfi_restore 1
 199 010c 03340100 		ld	s0,0(sp)
 200              		.cfi_restore 8
 201              		.cfi_def_cfa 2, 16
GAS LISTING /tmp/cc1RLg4y.s 			page 6


 202 0110 13010101 		addi	sp,sp,16
 203              		.cfi_def_cfa_offset 0
 204 0114 67800000 		jr	ra
 205              	.LVL17:
 206              	.L15:
 207              		.cfi_restore_state
 208              	.LBB6:
 209              	.LBB5:
  20:src/SleepQueue.cpp ****             thr->prevSlept= nullptr;
 210              		.loc 1 20 13 is_stmt 1
  20:src/SleepQueue.cpp ****             thr->prevSlept= nullptr;
 211              		.loc 1 20 27 is_stmt 0
 212 0118 2338B506 		sd	a1,112(a0)
  21:src/SleepQueue.cpp ****             head=thr;
 213              		.loc 1 21 13 is_stmt 1
  21:src/SleepQueue.cpp ****             head=thr;
 214              		.loc 1 21 27 is_stmt 0
 215 011c 23340506 		sd	zero,104(a0)
  22:src/SleepQueue.cpp ****         }
 216              		.loc 1 22 13 is_stmt 1
  22:src/SleepQueue.cpp ****         }
 217              		.loc 1 22 17 is_stmt 0
 218 0120 2330A800 		sd	a0,0(a6)
 219 0124 6FF0DFFB 		j	.L10
 220              	.LBE5:
 221              	.LBE6:
 222              		.cfi_endproc
 223              	.LFE10:
 225              		.align	2
 226              		.globl	_ZN10SleepQueue17returnToSchedulerEP3TCB
 228              	_ZN10SleepQueue17returnToSchedulerEP3TCB:
 229              	.LFB12:
  44:src/SleepQueue.cpp **** 
  45:src/SleepQueue.cpp **** void SleepQueue::returnToScheduler(TCB *thr) {
 230              		.loc 1 45 46 is_stmt 1
 231              		.cfi_startproc
 232              	.LVL18:
 233 0128 130101FE 		addi	sp,sp,-32
 234              		.cfi_def_cfa_offset 32
 235 012c 233C1100 		sd	ra,24(sp)
 236 0130 23388100 		sd	s0,16(sp)
 237 0134 23349100 		sd	s1,8(sp)
 238              		.cfi_offset 1, -8
 239              		.cfi_offset 8, -16
 240              		.cfi_offset 9, -24
 241 0138 13040102 		addi	s0,sp,32
 242              		.cfi_def_cfa 8, 0
 243 013c 93040500 		mv	s1,a0
  46:src/SleepQueue.cpp ****     Scheduler &s=Scheduler::getSchedulerInstance();
 244              		.loc 1 46 5
 245              		.loc 1 46 50 is_stmt 0
 246 0140 97000000 		call	_ZN9Scheduler20getSchedulerInstanceEv@plt
 246      E7800000 
 247              	.LVL19:
  47:src/SleepQueue.cpp ****     s.put(thr);
 248              		.loc 1 47 5 is_stmt 1
 249              		.loc 1 47 10 is_stmt 0
GAS LISTING /tmp/cc1RLg4y.s 			page 7


 250 0148 93850400 		mv	a1,s1
 251 014c 97000000 		call	_ZN9Scheduler3putEP3TCB@plt
 251      E7800000 
 252              	.LVL20:
  48:src/SleepQueue.cpp **** }
 253              		.loc 1 48 1
 254 0154 83308101 		ld	ra,24(sp)
 255              		.cfi_restore 1
 256 0158 03340101 		ld	s0,16(sp)
 257              		.cfi_restore 8
 258              		.cfi_def_cfa 2, 32
 259 015c 83348100 		ld	s1,8(sp)
 260              		.cfi_restore 9
 261              	.LVL21:
 262 0160 13010102 		addi	sp,sp,32
 263              		.cfi_def_cfa_offset 0
 264 0164 67800000 		jr	ra
 265              		.cfi_endproc
 266              	.LFE12:
 268              		.align	2
 269              		.globl	_ZN10SleepQueue10updateTickEv
 271              	_ZN10SleepQueue10updateTickEv:
 272              	.LFB13:
  49:src/SleepQueue.cpp **** 
  50:src/SleepQueue.cpp **** void SleepQueue::updateTick() {
 273              		.loc 1 50 31 is_stmt 1
 274              		.cfi_startproc
 275              	.LVL22:
  51:src/SleepQueue.cpp ****     if(head){
 276              		.loc 1 51 5
 277              	.LBB7:
 278              		.loc 1 51 8 is_stmt 0
 279 0168 83370500 		ld	a5,0(a0)
 280              		.loc 1 51 5
 281 016c 63880708 		beqz	a5,.L25
 282              	.LBE7:
  50:src/SleepQueue.cpp ****     if(head){
 283              		.loc 1 50 31
 284 0170 130101FE 		addi	sp,sp,-32
 285              		.cfi_def_cfa_offset 32
 286 0174 233C1100 		sd	ra,24(sp)
 287 0178 23388100 		sd	s0,16(sp)
 288 017c 23349100 		sd	s1,8(sp)
 289              		.cfi_offset 1, -8
 290              		.cfi_offset 8, -16
 291              		.cfi_offset 9, -24
 292 0180 13040102 		addi	s0,sp,32
 293              		.cfi_def_cfa 8, 0
 294 0184 93040500 		mv	s1,a0
 295              	.LBB11:
 296              	.LBB8:
  52:src/SleepQueue.cpp ****         head->sleptTime--;
 297              		.loc 1 52 9 is_stmt 1
 298              		.loc 1 52 15 is_stmt 0
 299 0188 03B78707 		ld	a4,120(a5)
 300              		.loc 1 52 24
 301 018c 1307F7FF 		addi	a4,a4,-1
GAS LISTING /tmp/cc1RLg4y.s 			page 8


 302 0190 23BCE706 		sd	a4,120(a5)
 303 0194 6F000001 		j	.L20
 304              	.LVL23:
 305              	.L22:
 306              	.LBB9:
  53:src/SleepQueue.cpp ****         while(head&&head->sleptTime==0){
  54:src/SleepQueue.cpp ****             TCB* temp=head;
  55:src/SleepQueue.cpp ****             head=head->nextSlept;
  56:src/SleepQueue.cpp ****             if(head){
  57:src/SleepQueue.cpp ****                 head->prevSlept=nullptr;
  58:src/SleepQueue.cpp ****             }
  59:src/SleepQueue.cpp ****             temp->prevSlept=temp->nextSlept= nullptr;
  60:src/SleepQueue.cpp ****             if(temp->timedWaitSem){
  61:src/SleepQueue.cpp ****                 temp->interruptedWhileWaiting=true;
  62:src/SleepQueue.cpp ****                 temp->timedWaitSem->signalAwoken(temp);
  63:src/SleepQueue.cpp ****             }
  64:src/SleepQueue.cpp ****             else{
  65:src/SleepQueue.cpp ****                 returnToScheduler(temp);
 307              		.loc 1 65 17 is_stmt 1
 308              		.loc 1 65 34 is_stmt 0
 309 0198 13850500 		mv	a0,a1
 310 019c 97000000 		call	_ZN10SleepQueue17returnToSchedulerEP3TCB
 310      E7800000 
 311              	.LVL24:
 312              	.L20:
 313              	.LBE9:
  53:src/SleepQueue.cpp ****         while(head&&head->sleptTime==0){
 314              		.loc 1 53 9 is_stmt 1
  53:src/SleepQueue.cpp ****         while(head&&head->sleptTime==0){
 315              		.loc 1 53 19
  53:src/SleepQueue.cpp ****         while(head&&head->sleptTime==0){
 316              		.loc 1 53 15 is_stmt 0
 317 01a4 83B50400 		ld	a1,0(s1)
  53:src/SleepQueue.cpp ****         while(head&&head->sleptTime==0){
 318              		.loc 1 53 19
 319 01a8 63800504 		beqz	a1,.L18
  53:src/SleepQueue.cpp ****         while(head&&head->sleptTime==0){
 320              		.loc 1 53 27 discriminator 1
 321 01ac 83B78507 		ld	a5,120(a1)
  53:src/SleepQueue.cpp ****         while(head&&head->sleptTime==0){
 322              		.loc 1 53 19 discriminator 1
 323 01b0 639C0702 		bnez	a5,.L18
 324              	.LBB10:
  54:src/SleepQueue.cpp ****             head=head->nextSlept;
 325              		.loc 1 54 13 is_stmt 1
 326              	.LVL25:
  55:src/SleepQueue.cpp ****             if(head){
 327              		.loc 1 55 13
  55:src/SleepQueue.cpp ****             if(head){
 328              		.loc 1 55 24 is_stmt 0
 329 01b4 83B70507 		ld	a5,112(a1)
  55:src/SleepQueue.cpp ****             if(head){
 330              		.loc 1 55 17
 331 01b8 23B0F400 		sd	a5,0(s1)
  56:src/SleepQueue.cpp ****                 head->prevSlept=nullptr;
 332              		.loc 1 56 13 is_stmt 1
 333 01bc 63840700 		beqz	a5,.L21
GAS LISTING /tmp/cc1RLg4y.s 			page 9


  57:src/SleepQueue.cpp ****             }
 334              		.loc 1 57 17
  57:src/SleepQueue.cpp ****             }
 335              		.loc 1 57 32 is_stmt 0
 336 01c0 23B40706 		sd	zero,104(a5)
 337              	.L21:
  59:src/SleepQueue.cpp ****             if(temp->timedWaitSem){
 338              		.loc 1 59 13 is_stmt 1
  59:src/SleepQueue.cpp ****             if(temp->timedWaitSem){
 339              		.loc 1 59 44 is_stmt 0
 340 01c4 23B80506 		sd	zero,112(a1)
  59:src/SleepQueue.cpp ****             if(temp->timedWaitSem){
 341              		.loc 1 59 28
 342 01c8 23B40506 		sd	zero,104(a1)
  60:src/SleepQueue.cpp ****                 temp->interruptedWhileWaiting=true;
 343              		.loc 1 60 13 is_stmt 1
  60:src/SleepQueue.cpp ****                 temp->interruptedWhileWaiting=true;
 344              		.loc 1 60 22 is_stmt 0
 345 01cc 03B50500 		ld	a0,0(a1)
  60:src/SleepQueue.cpp ****                 temp->interruptedWhileWaiting=true;
 346              		.loc 1 60 13
 347 01d0 E30405FC 		beqz	a0,.L22
  61:src/SleepQueue.cpp ****                 temp->timedWaitSem->signalAwoken(temp);
 348              		.loc 1 61 17 is_stmt 1
  61:src/SleepQueue.cpp ****                 temp->timedWaitSem->signalAwoken(temp);
 349              		.loc 1 61 46 is_stmt 0
 350 01d4 93071000 		li	a5,1
 351 01d8 A384F500 		sb	a5,9(a1)
  62:src/SleepQueue.cpp ****             }
 352              		.loc 1 62 17 is_stmt 1
  62:src/SleepQueue.cpp ****             }
 353              		.loc 1 62 49 is_stmt 0
 354 01dc 97000000 		call	_ZN4SemC12signalAwokenEP3TCB@plt
 354      E7800000 
 355              	.LVL26:
 356 01e4 6FF01FFC 		j	.L20
 357              	.L18:
 358              	.LBE10:
 359              	.LBE8:
 360              	.LBE11:
  66:src/SleepQueue.cpp ****             }
  67:src/SleepQueue.cpp ****         }
  68:src/SleepQueue.cpp ****     }
  69:src/SleepQueue.cpp **** }
 361              		.loc 1 69 1
 362 01e8 83308101 		ld	ra,24(sp)
 363              		.cfi_restore 1
 364 01ec 03340101 		ld	s0,16(sp)
 365              		.cfi_restore 8
 366              		.cfi_def_cfa 2, 32
 367 01f0 83348100 		ld	s1,8(sp)
 368              		.cfi_restore 9
 369              	.LVL27:
 370 01f4 13010102 		addi	sp,sp,32
 371              		.cfi_def_cfa_offset 0
 372 01f8 67800000 		jr	ra
 373              	.LVL28:
GAS LISTING /tmp/cc1RLg4y.s 			page 10


 374              	.L25:
 375 01fc 67800000 		ret
 376              		.cfi_endproc
 377              	.LFE13:
 379              		.align	2
 380              		.globl	_ZN10SleepQueue17removeInterruptedEP3TCB
 382              	_ZN10SleepQueue17removeInterruptedEP3TCB:
 383              	.LFB14:
  70:src/SleepQueue.cpp **** 
  71:src/SleepQueue.cpp **** void SleepQueue::removeInterrupted(TCB *thr) {
 384              		.loc 1 71 46 is_stmt 1
 385              		.cfi_startproc
 386              	.LVL29:
 387 0200 130101FF 		addi	sp,sp,-16
 388              		.cfi_def_cfa_offset 16
 389 0204 23348100 		sd	s0,8(sp)
 390              		.cfi_offset 8, -8
 391 0208 13040101 		addi	s0,sp,16
 392              		.cfi_def_cfa 8, 0
  72:src/SleepQueue.cpp ****     if(thr->prevSlept) {
 393              		.loc 1 72 5
 394              		.loc 1 72 13 is_stmt 0
 395 020c 83B78506 		ld	a5,104(a1)
 396              		.loc 1 72 5
 397 0210 63820704 		beqz	a5,.L29
  73:src/SleepQueue.cpp ****         thr->prevSlept->nextSlept = thr->nextSlept;
 398              		.loc 1 73 9 is_stmt 1
 399              		.loc 1 73 42 is_stmt 0
 400 0214 03B70507 		ld	a4,112(a1)
 401              		.loc 1 73 35
 402 0218 23B8E706 		sd	a4,112(a5)
 403              	.L30:
  74:src/SleepQueue.cpp ****     }
  75:src/SleepQueue.cpp ****     else{
  76:src/SleepQueue.cpp ****         head=thr->nextSlept;
  77:src/SleepQueue.cpp ****     }
  78:src/SleepQueue.cpp ****     if(thr->nextSlept){
 404              		.loc 1 78 5 is_stmt 1
 405              		.loc 1 78 13 is_stmt 0
 406 021c 83B70507 		ld	a5,112(a1)
 407              		.loc 1 78 5
 408 0220 63800702 		beqz	a5,.L31
  79:src/SleepQueue.cpp ****         thr->nextSlept->prevSlept=thr->prevSlept;
 409              		.loc 1 79 9 is_stmt 1
 410              		.loc 1 79 40 is_stmt 0
 411 0224 03B78506 		ld	a4,104(a1)
 412              		.loc 1 79 34
 413 0228 23B4E706 		sd	a4,104(a5)
  80:src/SleepQueue.cpp ****         thr->nextSlept->sleptTime+=thr->sleptTime;
 414              		.loc 1 80 9 is_stmt 1
 415              		.loc 1 80 14 is_stmt 0
 416 022c 03B70507 		ld	a4,112(a1)
 417              		.loc 1 80 41
 418 0230 83B68507 		ld	a3,120(a1)
 419              		.loc 1 80 34
 420 0234 83378707 		ld	a5,120(a4)
 421 0238 B387D700 		add	a5,a5,a3
GAS LISTING /tmp/cc1RLg4y.s 			page 11


 422 023c 233CF706 		sd	a5,120(a4)
 423              	.L31:
  81:src/SleepQueue.cpp ****     }
  82:src/SleepQueue.cpp ****     thr->prevSlept=thr->nextSlept=nullptr;
 424              		.loc 1 82 5 is_stmt 1
 425              		.loc 1 82 34 is_stmt 0
 426 0240 23B80506 		sd	zero,112(a1)
 427              		.loc 1 82 19
 428 0244 23B40506 		sd	zero,104(a1)
  83:src/SleepQueue.cpp **** }...
 429              		.loc 1 83 1
 430 0248 03348100 		ld	s0,8(sp)
 431              		.cfi_remember_state
 432              		.cfi_restore 8
 433              		.cfi_def_cfa 2, 16
 434 024c 13010101 		addi	sp,sp,16
 435              		.cfi_def_cfa_offset 0
 436 0250 67800000 		jr	ra
 437              	.L29:
 438              		.cfi_restore_state
  76:src/SleepQueue.cpp ****         head=thr->nextSlept;
 439              		.loc 1 76 9 is_stmt 1
  76:src/SleepQueue.cpp ****         head=thr->nextSlept;
 440              		.loc 1 76 19 is_stmt 0
 441 0254 83B70507 		ld	a5,112(a1)
  76:src/SleepQueue.cpp ****         head=thr->nextSlept;
 442              		.loc 1 76 13
 443 0258 2330F500 		sd	a5,0(a0)
 444 025c 6FF01FFC 		j	.L30
 445              		.cfi_endproc
 446              	.LFE14:
 448              		.bss
 449              		.align	3
 450              		.set	.LANCHOR0,. + 0
 453              	_ZZN10SleepQueue21getSleepQueueInstanceEvE8instance:
 454 0000 00000000 		.zero	8
 454      00000000 
 455              		.text
 456              	.Letext0:
 457              		.file 2 "src/../h/../lib/hw.h"
 458              		.file 3 "src/../h/TCB.hpp"
 459              		.file 4 "src/../h/SemC.hpp"
 460              		.file 5 "src/../h/Scheduler.hpp"
 461              		.file 6 "src/../h/SleepQueue.hpp"
 462              		.file 7 "src/../h/BlockedQueue.hpp"
 463              		.file 8 "src/../h/syscall_c.hpp"
GAS LISTING /tmp/cc1RLg4y.s 			page 12

