GAS LISTING /tmp/cc5BZUeL.s 			page 1


   1              		.file	"syscall_cpp.cpp"
   2              		.option pic
   3              		.option norelax
   4              		.text
   5              	.Ltext0:
   6              		.section	.text._ZN6Thread3runEv,"axG",@progbits,_ZN6Thread3runEv,comdat
   7              		.align	2
   8              		.weak	_ZN6Thread3runEv
  10              	_ZN6Thread3runEv:
  11              	.LFB0:
  12              		.file 1 "src/../h/syscall_cpp.hpp"
   1:src/../h/syscall_cpp.hpp **** 
   2:src/../h/syscall_cpp.hpp **** #ifndef PROJECT_BASE_V1_1_2_SYSCALL_CPP_HPP
   3:src/../h/syscall_cpp.hpp **** #define PROJECT_BASE_V1_1_2_SYSCALL_CPP_HPP
   4:src/../h/syscall_cpp.hpp **** #include "syscall_c.hpp"
   5:src/../h/syscall_cpp.hpp **** void* operator new (size_t);
   6:src/../h/syscall_cpp.hpp **** void operator delete (void*);
   7:src/../h/syscall_cpp.hpp **** class Thread {
   8:src/../h/syscall_cpp.hpp **** public:
   9:src/../h/syscall_cpp.hpp ****     Thread (void (*body)(void*), void* arg);
  10:src/../h/syscall_cpp.hpp ****     virtual ~Thread ();
  11:src/../h/syscall_cpp.hpp ****     int start ();
  12:src/../h/syscall_cpp.hpp ****     static void dispatch ();
  13:src/../h/syscall_cpp.hpp ****     static int sleep (time_t);
  14:src/../h/syscall_cpp.hpp **** protected:
  15:src/../h/syscall_cpp.hpp ****     Thread ();
  16:src/../h/syscall_cpp.hpp ****     virtual void run () {}
  13              		.loc 1 16 18
  14              		.cfi_startproc
  15              	.LVL0:
  16 0000 130101FF 		addi	sp,sp,-16
  17              		.cfi_def_cfa_offset 16
  18 0004 23348100 		sd	s0,8(sp)
  19              		.cfi_offset 8, -8
  20 0008 13040101 		addi	s0,sp,16
  21              		.cfi_def_cfa 8, 0
  22              		.loc 1 16 26 is_stmt 0
  23 000c 03348100 		ld	s0,8(sp)
  24              		.cfi_restore 8
  25              		.cfi_def_cfa 2, 16
  26 0010 13010101 		addi	sp,sp,16
  27              		.cfi_def_cfa_offset 0
  28 0014 67800000 		jr	ra
  29              		.cfi_endproc
  30              	.LFE0:
  32              		.section	.text._ZN14PeriodicThread18periodicActivationEv,"axG",@progbits,_ZN14PeriodicThread18peri
  33              		.align	2
  34              		.weak	_ZN14PeriodicThread18periodicActivationEv
  36              	_ZN14PeriodicThread18periodicActivationEv:
  37              	.LFB1:
  17:src/../h/syscall_cpp.hpp **** private:
  18:src/../h/syscall_cpp.hpp ****     thread_t myHandle;
  19:src/../h/syscall_cpp.hpp ****     void (*body)(void*); void* arg;
  20:src/../h/syscall_cpp.hpp **** };
  21:src/../h/syscall_cpp.hpp **** class Semaphore {
  22:src/../h/syscall_cpp.hpp **** public:
  23:src/../h/syscall_cpp.hpp ****     Semaphore (unsigned init = 1);
GAS LISTING /tmp/cc5BZUeL.s 			page 2


  24:src/../h/syscall_cpp.hpp ****     virtual ~Semaphore ();
  25:src/../h/syscall_cpp.hpp ****     int wait ();
  26:src/../h/syscall_cpp.hpp ****     int signal ();
  27:src/../h/syscall_cpp.hpp ****     int timedWait (time_t);
  28:src/../h/syscall_cpp.hpp ****     int tryWait();
  29:src/../h/syscall_cpp.hpp **** private:
  30:src/../h/syscall_cpp.hpp ****     sem_t myHandle;
  31:src/../h/syscall_cpp.hpp **** };
  32:src/../h/syscall_cpp.hpp **** class PeriodicThread : public Thread {
  33:src/../h/syscall_cpp.hpp **** public:
  34:src/../h/syscall_cpp.hpp ****     void terminate ();
  35:src/../h/syscall_cpp.hpp **** protected:
  36:src/../h/syscall_cpp.hpp ****     PeriodicThread (time_t period);
  37:src/../h/syscall_cpp.hpp ****     virtual void periodicActivation () {}
  38              		.loc 1 37 18 is_stmt 1
  39              		.cfi_startproc
  40              	.LVL1:
  41 0000 130101FF 		addi	sp,sp,-16
  42              		.cfi_def_cfa_offset 16
  43 0004 23348100 		sd	s0,8(sp)
  44              		.cfi_offset 8, -8
  45 0008 13040101 		addi	s0,sp,16
  46              		.cfi_def_cfa 8, 0
  47              		.loc 1 37 41 is_stmt 0
  48 000c 03348100 		ld	s0,8(sp)
  49              		.cfi_restore 8
  50              		.cfi_def_cfa 2, 16
  51 0010 13010101 		addi	sp,sp,16
  52              		.cfi_def_cfa_offset 0
  53 0014 67800000 		jr	ra
  54              		.cfi_endproc
  55              	.LFE1:
  57              		.text
  58              		.align	2
  60              	_ZZN6Thread5startEvEN10RunAdapter7adapterEPv:
  61              	.LFB18:
  62              		.file 2 "src/syscall_cpp.cpp"
   1:src/syscall_cpp.cpp **** #include "../h/syscall_cpp.hpp"
   2:src/syscall_cpp.cpp **** #include "../h/TCB.hpp"
   3:src/syscall_cpp.cpp **** #include "../h/SemC.hpp"
   4:src/syscall_cpp.cpp **** void* operator new (size_t sz){
   5:src/syscall_cpp.cpp ****     return mem_alloc(sz);
   6:src/syscall_cpp.cpp **** }
   7:src/syscall_cpp.cpp **** void operator delete (void* adr){
   8:src/syscall_cpp.cpp ****     mem_free(adr);
   9:src/syscall_cpp.cpp **** }
  10:src/syscall_cpp.cpp **** Thread::Thread(void (*body)(void *), void *arg):body(body),arg(arg){
  11:src/syscall_cpp.cpp ****     thread_t handle;
  12:src/syscall_cpp.cpp ****     thread_create(&handle,body,arg);
  13:src/syscall_cpp.cpp ****     myHandle=handle;
  14:src/syscall_cpp.cpp **** }
  15:src/syscall_cpp.cpp **** Thread::Thread() {
  16:src/syscall_cpp.cpp **** 
  17:src/syscall_cpp.cpp **** }
  18:src/syscall_cpp.cpp **** void Thread::dispatch() {
  19:src/syscall_cpp.cpp ****     thread_dispatch();
  20:src/syscall_cpp.cpp **** }
GAS LISTING /tmp/cc5BZUeL.s 			page 3


  21:src/syscall_cpp.cpp **** 
  22:src/syscall_cpp.cpp **** int Thread::start() {
  23:src/syscall_cpp.cpp ****     class RunAdapter{
  24:src/syscall_cpp.cpp ****     public:
  25:src/syscall_cpp.cpp ****         static void adapter(void* a){
  63              		.loc 2 25 21 is_stmt 1
  64              		.cfi_startproc
  65              	.LVL2:
  66 0000 130101FF 		addi	sp,sp,-16
  67              		.cfi_def_cfa_offset 16
  68 0004 23341100 		sd	ra,8(sp)
  69 0008 23308100 		sd	s0,0(sp)
  70              		.cfi_offset 1, -8
  71              		.cfi_offset 8, -16
  72 000c 13040101 		addi	s0,sp,16
  73              		.cfi_def_cfa 8, 0
  26:src/syscall_cpp.cpp ****             Thread* t=(Thread*)a;
  74              		.loc 2 26 13
  75              	.LVL3:
  27:src/syscall_cpp.cpp ****             t->run();
  76              		.loc 2 27 13
  77              		.loc 2 27 20 is_stmt 0
  78 0010 83370500 		ld	a5,0(a0)
  79 0014 83B70701 		ld	a5,16(a5)
  80              		.loc 2 27 19
  81 0018 E7800700 		jalr	a5
  82              	.LVL4:
  28:src/syscall_cpp.cpp ****         }
  83              		.loc 2 28 9
  84 001c 83308100 		ld	ra,8(sp)
  85              		.cfi_restore 1
  86 0020 03340100 		ld	s0,0(sp)
  87              		.cfi_restore 8
  88              		.cfi_def_cfa 2, 16
  89 0024 13010101 		addi	sp,sp,16
  90              		.cfi_def_cfa_offset 0
  91 0028 67800000 		jr	ra
  92              		.cfi_endproc
  93              	.LFE18:
  95              		.align	2
  96              		.globl	_ZN6ThreadD2Ev
  98              	_ZN6ThreadD2Ev:
  99              	.LFB21:
  29:src/syscall_cpp.cpp ****     };
  30:src/syscall_cpp.cpp ****     thread_t handle;
  31:src/syscall_cpp.cpp ****     body=RunAdapter::adapter;
  32:src/syscall_cpp.cpp ****     arg=this;
  33:src/syscall_cpp.cpp ****     int status=thread_create(&handle,body,arg);
  34:src/syscall_cpp.cpp ****     myHandle=handle;
  35:src/syscall_cpp.cpp ****     return status;
  36:src/syscall_cpp.cpp **** }
  37:src/syscall_cpp.cpp **** 
  38:src/syscall_cpp.cpp **** int Thread::sleep(time_t t) {
  39:src/syscall_cpp.cpp ****     return time_sleep(t);
  40:src/syscall_cpp.cpp **** }
  41:src/syscall_cpp.cpp **** Thread::~Thread(){
 100              		.loc 2 41 1 is_stmt 1
GAS LISTING /tmp/cc5BZUeL.s 			page 4


 101              		.cfi_startproc
 102              		.cfi_personality 0x9b,DW.ref.__gxx_personality_v0
 103              		.cfi_lsda 0x1b,.LLSDA21
 104              	.LVL5:
 105 002c 130101FE 		addi	sp,sp,-32
 106              		.cfi_def_cfa_offset 32
 107 0030 233C1100 		sd	ra,24(sp)
 108 0034 23388100 		sd	s0,16(sp)
 109 0038 23349100 		sd	s1,8(sp)
 110              		.cfi_offset 1, -8
 111              		.cfi_offset 8, -16
 112              		.cfi_offset 9, -24
 113 003c 13040102 		addi	s0,sp,32
 114              		.cfi_def_cfa 8, 0
 115 0040 93040500 		mv	s1,a0
 116              	.LBB5:
 117              		.loc 2 41 17 is_stmt 0
 118 0044 97070000 		lla	a5,_ZTV6Thread+16
 118      93870700 
 119 004c 2330F500 		sd	a5,0(a0)
  42:src/syscall_cpp.cpp ****     thread_exit();
 120              		.loc 2 42 5 is_stmt 1
 121              		.loc 2 42 16 is_stmt 0
 122 0050 97000000 		call	_Z11thread_exitv@plt
 122      E7800000 
 123              	.LVL6:
  43:src/syscall_cpp.cpp ****     delete myHandle;
 124              		.loc 2 43 5 is_stmt 1
 125              		.loc 2 43 12 is_stmt 0
 126 0058 03B58400 		ld	a0,8(s1)
 127              		.loc 2 43 20
 128 005c 63060500 		beqz	a0,.L7
 129              		.loc 2 43 12 discriminator 1
 130 0060 97000000 		call	_ZN3TCBdlEPv@plt
 130      E7800000 
 131              	.LVL7:
 132              	.L7:
 133              	.LBE5:
  44:src/syscall_cpp.cpp **** }
 134              		.loc 2 44 1
 135 0068 83308101 		ld	ra,24(sp)
 136              		.cfi_restore 1
 137 006c 03340101 		ld	s0,16(sp)
 138              		.cfi_restore 8
 139              		.cfi_def_cfa 2, 32
 140 0070 83348100 		ld	s1,8(sp)
 141              		.cfi_restore 9
 142              	.LVL8:
 143 0074 13010102 		addi	sp,sp,32
 144              		.cfi_def_cfa_offset 0
 145 0078 67800000 		jr	ra
 146              		.cfi_endproc
 147              	.LFE21:
 148              		.globl	__gxx_personality_v0
 149              		.section	.gcc_except_table,"a",@progbits
 150              	.LLSDA21:
 151 0000 FF       		.byte	0xff
GAS LISTING /tmp/cc5BZUeL.s 			page 5


 152 0001 FF       		.byte	0xff
 153 0002 03       		.byte	0x3
 154 0003 00       		.byte	0
 155              		.text
 157              		.globl	_ZN6ThreadD1Ev
 158              		.set	_ZN6ThreadD1Ev,_ZN6ThreadD2Ev
 159              		.section	.text._ZN14PeriodicThreadD2Ev,"axG",@progbits,_ZN14PeriodicThreadD5Ev,comdat
 160              		.align	2
 161              		.weak	_ZN14PeriodicThreadD2Ev
 163              	_ZN14PeriodicThreadD2Ev:
 164              	.LFB43:
  32:src/../h/syscall_cpp.hpp **** public:
 165              		.loc 1 32 7 is_stmt 1
 166              		.cfi_startproc
 167              	.LVL9:
 168 0000 130101FF 		addi	sp,sp,-16
 169              		.cfi_def_cfa_offset 16
 170 0004 23341100 		sd	ra,8(sp)
 171 0008 23308100 		sd	s0,0(sp)
 172              		.cfi_offset 1, -8
 173              		.cfi_offset 8, -16
 174 000c 13040101 		addi	s0,sp,16
 175              		.cfi_def_cfa 8, 0
 176              	.LBB6:
  32:src/../h/syscall_cpp.hpp **** public:
 177              		.loc 1 32 7 is_stmt 0
 178 0010 97070000 		lla	a5,_ZTV14PeriodicThread+16
 178      93870700 
 179 0018 2330F500 		sd	a5,0(a0)
 180 001c 97000000 		call	_ZN6ThreadD2Ev
 180      E7800000 
 181              	.LVL10:
 182              	.LBE6:
 183 0024 83308100 		ld	ra,8(sp)
 184              		.cfi_restore 1
 185 0028 03340100 		ld	s0,0(sp)
 186              		.cfi_restore 8
 187              		.cfi_def_cfa 2, 16
 188 002c 13010101 		addi	sp,sp,16
 189              		.cfi_def_cfa_offset 0
 190 0030 67800000 		jr	ra
 191              		.cfi_endproc
 192              	.LFE43:
 194              		.weak	_ZN14PeriodicThreadD1Ev
 195              		.set	_ZN14PeriodicThreadD1Ev,_ZN14PeriodicThreadD2Ev
 196              		.text
 197              		.align	2
 198              		.globl	_ZN9SemaphoreD2Ev
 200              	_ZN9SemaphoreD2Ev:
 201              	.LFB33:
  45:src/syscall_cpp.cpp **** PeriodicThread::PeriodicThread(time_t period):period(period) {
  46:src/syscall_cpp.cpp **** 
  47:src/syscall_cpp.cpp **** }
  48:src/syscall_cpp.cpp **** 
  49:src/syscall_cpp.cpp **** void PeriodicThread::terminate() {
  50:src/syscall_cpp.cpp ****     period=0;
  51:src/syscall_cpp.cpp **** }
GAS LISTING /tmp/cc5BZUeL.s 			page 6


  52:src/syscall_cpp.cpp **** 
  53:src/syscall_cpp.cpp **** void PeriodicThread::run() {
  54:src/syscall_cpp.cpp ****     while(period){
  55:src/syscall_cpp.cpp ****         sleep(period);
  56:src/syscall_cpp.cpp ****         periodicActivation();
  57:src/syscall_cpp.cpp ****     }
  58:src/syscall_cpp.cpp **** }
  59:src/syscall_cpp.cpp **** 
  60:src/syscall_cpp.cpp **** Semaphore::Semaphore(unsigned int init) {
  61:src/syscall_cpp.cpp ****     sem_t handle;
  62:src/syscall_cpp.cpp ****     sem_open(&handle,init);
  63:src/syscall_cpp.cpp ****     myHandle=handle;
  64:src/syscall_cpp.cpp **** }
  65:src/syscall_cpp.cpp **** Semaphore::~Semaphore() {
 202              		.loc 2 65 1 is_stmt 1
 203              		.cfi_startproc
 204              		.cfi_personality 0x9b,DW.ref.__gxx_personality_v0
 205              		.cfi_lsda 0x1b,.LLSDA33
 206              	.LVL11:
 207 007c 130101FE 		addi	sp,sp,-32
 208              		.cfi_def_cfa_offset 32
 209 0080 233C1100 		sd	ra,24(sp)
 210 0084 23388100 		sd	s0,16(sp)
 211 0088 23349100 		sd	s1,8(sp)
 212              		.cfi_offset 1, -8
 213              		.cfi_offset 8, -16
 214              		.cfi_offset 9, -24
 215 008c 13040102 		addi	s0,sp,32
 216              		.cfi_def_cfa 8, 0
 217 0090 93040500 		mv	s1,a0
 218              	.LBB7:
 219              		.loc 2 65 23 is_stmt 0
 220 0094 97070000 		lla	a5,_ZTV9Semaphore+16
 220      93870700 
 221 009c 2330F500 		sd	a5,0(a0)
  66:src/syscall_cpp.cpp ****     sem_close(myHandle);
 222              		.loc 2 66 5 is_stmt 1
 223              		.loc 2 66 14 is_stmt 0
 224 00a0 03358500 		ld	a0,8(a0)
 225              	.LVL12:
 226 00a4 97000000 		call	_Z9sem_closeP4SemC@plt
 226      E7800000 
 227              	.LVL13:
  67:src/syscall_cpp.cpp ****     delete myHandle;
 228              		.loc 2 67 5 is_stmt 1
 229              		.loc 2 67 12 is_stmt 0
 230 00ac 03B58400 		ld	a0,8(s1)
 231              		.loc 2 67 20
 232 00b0 63060500 		beqz	a0,.L12
 233              		.loc 2 67 12 discriminator 1
 234 00b4 97000000 		call	_ZN4SemCdlEPv@plt
 234      E7800000 
 235              	.LVL14:
 236              	.L12:
 237              	.LBE7:
  68:src/syscall_cpp.cpp **** }
 238              		.loc 2 68 1
GAS LISTING /tmp/cc5BZUeL.s 			page 7


 239 00bc 83308101 		ld	ra,24(sp)
 240              		.cfi_restore 1
 241 00c0 03340101 		ld	s0,16(sp)
 242              		.cfi_restore 8
 243              		.cfi_def_cfa 2, 32
 244 00c4 83348100 		ld	s1,8(sp)
 245              		.cfi_restore 9
 246              	.LVL15:
 247 00c8 13010102 		addi	sp,sp,32
 248              		.cfi_def_cfa_offset 0
 249 00cc 67800000 		jr	ra
 250              		.cfi_endproc
 251              	.LFE33:
 252              		.section	.gcc_except_table
 253              	.LLSDA33:
 254 0004 FF       		.byte	0xff
 255 0005 FF       		.byte	0xff
 256 0006 03       		.byte	0x3
 257 0007 00       		.byte	0
 258              		.text
 260              		.globl	_ZN9SemaphoreD1Ev
 261              		.set	_ZN9SemaphoreD1Ev,_ZN9SemaphoreD2Ev
 262              		.align	2
 263              		.globl	_Znwm
 265              	_Znwm:
 266              	.LFB8:
   4:src/syscall_cpp.cpp ****     return mem_alloc(sz);
 267              		.loc 2 4 31 is_stmt 1
 268              		.cfi_startproc
 269              	.LVL16:
 270 00d0 130101FF 		addi	sp,sp,-16
 271              		.cfi_def_cfa_offset 16
 272 00d4 23341100 		sd	ra,8(sp)
 273 00d8 23308100 		sd	s0,0(sp)
 274              		.cfi_offset 1, -8
 275              		.cfi_offset 8, -16
 276 00dc 13040101 		addi	s0,sp,16
 277              		.cfi_def_cfa 8, 0
   5:src/syscall_cpp.cpp **** }
 278              		.loc 2 5 5
   5:src/syscall_cpp.cpp **** }
 279              		.loc 2 5 21 is_stmt 0
 280 00e0 97000000 		call	_Z9mem_allocm@plt
 280      E7800000 
 281              	.LVL17:
   6:src/syscall_cpp.cpp **** void operator delete (void* adr){
 282              		.loc 2 6 1
 283 00e8 83308100 		ld	ra,8(sp)
 284              		.cfi_restore 1
 285 00ec 03340100 		ld	s0,0(sp)
 286              		.cfi_restore 8
 287              		.cfi_def_cfa 2, 16
 288 00f0 13010101 		addi	sp,sp,16
 289              		.cfi_def_cfa_offset 0
 290 00f4 67800000 		jr	ra
 291              		.cfi_endproc
 292              	.LFE8:
GAS LISTING /tmp/cc5BZUeL.s 			page 8


 294              		.align	2
 295              		.globl	_ZdlPv
 297              	_ZdlPv:
 298              	.LFB9:
   7:src/syscall_cpp.cpp ****     mem_free(adr);
 299              		.loc 2 7 33 is_stmt 1
 300              		.cfi_startproc
 301              	.LVL18:
 302 00f8 130101FF 		addi	sp,sp,-16
 303              		.cfi_def_cfa_offset 16
 304 00fc 23341100 		sd	ra,8(sp)
 305 0100 23308100 		sd	s0,0(sp)
 306              		.cfi_offset 1, -8
 307              		.cfi_offset 8, -16
 308 0104 13040101 		addi	s0,sp,16
 309              		.cfi_def_cfa 8, 0
   8:src/syscall_cpp.cpp **** }
 310              		.loc 2 8 5
   8:src/syscall_cpp.cpp **** }
 311              		.loc 2 8 13 is_stmt 0
 312 0108 97000000 		call	_Z8mem_freePv@plt
 312      E7800000 
 313              	.LVL19:
   9:src/syscall_cpp.cpp **** Thread::Thread(void (*body)(void *), void *arg):body(body),arg(arg){
 314              		.loc 2 9 1
 315 0110 83308100 		ld	ra,8(sp)
 316              		.cfi_restore 1
 317 0114 03340100 		ld	s0,0(sp)
 318              		.cfi_restore 8
 319              		.cfi_def_cfa 2, 16
 320 0118 13010101 		addi	sp,sp,16
 321              		.cfi_def_cfa_offset 0
 322 011c 67800000 		jr	ra
 323              		.cfi_endproc
 324              	.LFE9:
 326              		.align	2
 327              		.globl	_ZN6ThreadD0Ev
 329              	_ZN6ThreadD0Ev:
 330              	.LFB23:
  41:src/syscall_cpp.cpp ****     thread_exit();
 331              		.loc 2 41 1 is_stmt 1
 332              		.cfi_startproc
 333              	.LVL20:
 334 0120 130101FE 		addi	sp,sp,-32
 335              		.cfi_def_cfa_offset 32
 336 0124 233C1100 		sd	ra,24(sp)
 337 0128 23388100 		sd	s0,16(sp)
 338 012c 23349100 		sd	s1,8(sp)
 339              		.cfi_offset 1, -8
 340              		.cfi_offset 8, -16
 341              		.cfi_offset 9, -24
 342 0130 13040102 		addi	s0,sp,32
 343              		.cfi_def_cfa 8, 0
 344 0134 93040500 		mv	s1,a0
  44:src/syscall_cpp.cpp **** PeriodicThread::PeriodicThread(time_t period):period(period) {
 345              		.loc 2 44 1 is_stmt 0
 346 0138 97000000 		call	_ZN6ThreadD1Ev
GAS LISTING /tmp/cc5BZUeL.s 			page 9


 346      E7800000 
 347              	.LVL21:
 348 0140 13850400 		mv	a0,s1
 349 0144 97000000 		call	_ZdlPv
 349      E7800000 
 350              	.LVL22:
 351 014c 83308101 		ld	ra,24(sp)
 352              		.cfi_restore 1
 353 0150 03340101 		ld	s0,16(sp)
 354              		.cfi_restore 8
 355              		.cfi_def_cfa 2, 32
 356 0154 83348100 		ld	s1,8(sp)
 357              		.cfi_restore 9
 358              	.LVL23:
 359 0158 13010102 		addi	sp,sp,32
 360              		.cfi_def_cfa_offset 0
 361 015c 67800000 		jr	ra
 362              		.cfi_endproc
 363              	.LFE23:
 365              		.align	2
 366              		.globl	_ZN9SemaphoreD0Ev
 368              	_ZN9SemaphoreD0Ev:
 369              	.LFB35:
  65:src/syscall_cpp.cpp ****     sem_close(myHandle);
 370              		.loc 2 65 1 is_stmt 1
 371              		.cfi_startproc
 372              	.LVL24:
 373 0160 130101FE 		addi	sp,sp,-32
 374              		.cfi_def_cfa_offset 32
 375 0164 233C1100 		sd	ra,24(sp)
 376 0168 23388100 		sd	s0,16(sp)
 377 016c 23349100 		sd	s1,8(sp)
 378              		.cfi_offset 1, -8
 379              		.cfi_offset 8, -16
 380              		.cfi_offset 9, -24
 381 0170 13040102 		addi	s0,sp,32
 382              		.cfi_def_cfa 8, 0
 383 0174 93040500 		mv	s1,a0
 384              		.loc 2 68 1 is_stmt 0
 385 0178 97000000 		call	_ZN9SemaphoreD1Ev
 385      E7800000 
 386              	.LVL25:
 387 0180 13850400 		mv	a0,s1
 388 0184 97000000 		call	_ZdlPv
 388      E7800000 
 389              	.LVL26:
 390 018c 83308101 		ld	ra,24(sp)
 391              		.cfi_restore 1
 392 0190 03340101 		ld	s0,16(sp)
 393              		.cfi_restore 8
 394              		.cfi_def_cfa 2, 32
 395 0194 83348100 		ld	s1,8(sp)
 396              		.cfi_restore 9
 397              	.LVL27:
 398 0198 13010102 		addi	sp,sp,32
 399              		.cfi_def_cfa_offset 0
 400 019c 67800000 		jr	ra
GAS LISTING /tmp/cc5BZUeL.s 			page 10


 401              		.cfi_endproc
 402              	.LFE35:
 404              		.section	.text._ZN14PeriodicThreadD0Ev,"axG",@progbits,_ZN14PeriodicThreadD5Ev,comdat
 405              		.align	2
 406              		.weak	_ZN14PeriodicThreadD0Ev
 408              	_ZN14PeriodicThreadD0Ev:
 409              	.LFB45:
  32:src/../h/syscall_cpp.hpp **** public:
 410              		.loc 1 32 7 is_stmt 1
 411              		.cfi_startproc
 412              	.LVL28:
 413 0000 130101FE 		addi	sp,sp,-32
 414              		.cfi_def_cfa_offset 32
 415 0004 233C1100 		sd	ra,24(sp)
 416 0008 23388100 		sd	s0,16(sp)
 417 000c 23349100 		sd	s1,8(sp)
 418              		.cfi_offset 1, -8
 419              		.cfi_offset 8, -16
 420              		.cfi_offset 9, -24
 421 0010 13040102 		addi	s0,sp,32
 422              		.cfi_def_cfa 8, 0
 423 0014 93040500 		mv	s1,a0
 424              	.LVL29:
 425              	.LBB8:
 426              	.LBB9:
  32:src/../h/syscall_cpp.hpp **** public:
 427              		.loc 1 32 7 is_stmt 0
 428 0018 97070000 		lla	a5,_ZTV14PeriodicThread+16
 428      93870700 
 429 0020 2330F500 		sd	a5,0(a0)
 430 0024 97000000 		call	_ZN6ThreadD2Ev
 430      E7800000 
 431              	.LVL30:
 432              	.LBE9:
 433              	.LBE8:
 434 002c 13850400 		mv	a0,s1
 435 0030 97000000 		call	_ZdlPv
 435      E7800000 
 436              	.LVL31:
 437 0038 83308101 		ld	ra,24(sp)
 438              		.cfi_restore 1
 439 003c 03340101 		ld	s0,16(sp)
 440              		.cfi_restore 8
 441              		.cfi_def_cfa 2, 32
 442 0040 83348100 		ld	s1,8(sp)
 443              		.cfi_restore 9
 444              	.LVL32:
 445 0044 13010102 		addi	sp,sp,32
 446              		.cfi_def_cfa_offset 0
 447 0048 67800000 		jr	ra
 448              		.cfi_endproc
 449              	.LFE45:
 451              		.text
 452              		.align	2
 453              		.globl	_ZN6ThreadC2EPFvPvES0_
 455              	_ZN6ThreadC2EPFvPvES0_:
 456              	.LFB11:
GAS LISTING /tmp/cc5BZUeL.s 			page 11


  10:src/syscall_cpp.cpp ****     thread_t handle;
 457              		.loc 2 10 1 is_stmt 1
 458              		.cfi_startproc
 459              	.LVL33:
 460 01a0 130101FD 		addi	sp,sp,-48
 461              		.cfi_def_cfa_offset 48
 462 01a4 23341102 		sd	ra,40(sp)
 463 01a8 23308102 		sd	s0,32(sp)
 464 01ac 233C9100 		sd	s1,24(sp)
 465              		.cfi_offset 1, -8
 466              		.cfi_offset 8, -16
 467              		.cfi_offset 9, -24
 468 01b0 13040103 		addi	s0,sp,48
 469              		.cfi_def_cfa 8, 0
 470 01b4 93040500 		mv	s1,a0
 471              	.LBB10:
  10:src/syscall_cpp.cpp ****     thread_t handle;
 472              		.loc 2 10 67 is_stmt 0
 473 01b8 97070000 		lla	a5,_ZTV6Thread+16
 473      93870700 
 474 01c0 2330F500 		sd	a5,0(a0)
 475 01c4 2338B500 		sd	a1,16(a0)
 476 01c8 233CC500 		sd	a2,24(a0)
 477              	.LBB11:
  11:src/syscall_cpp.cpp ****     thread_create(&handle,body,arg);
 478              		.loc 2 11 5 is_stmt 1
  12:src/syscall_cpp.cpp ****     myHandle=handle;
 479              		.loc 2 12 5
  12:src/syscall_cpp.cpp ****     myHandle=handle;
 480              		.loc 2 12 18 is_stmt 0
 481 01cc 130584FD 		addi	a0,s0,-40
 482              	.LVL34:
 483 01d0 97000000 		call	_Z13thread_createPP3TCBPFvPvES2_@plt
 483      E7800000 
 484              	.LVL35:
  13:src/syscall_cpp.cpp **** }
 485              		.loc 2 13 5 is_stmt 1
  13:src/syscall_cpp.cpp **** }
 486              		.loc 2 13 13 is_stmt 0
 487 01d8 833784FD 		ld	a5,-40(s0)
 488 01dc 23B4F400 		sd	a5,8(s1)
 489              	.LBE11:
 490              	.LBE10:
  14:src/syscall_cpp.cpp **** Thread::Thread() {
 491              		.loc 2 14 1
 492 01e0 83308102 		ld	ra,40(sp)
 493              		.cfi_restore 1
 494 01e4 03340102 		ld	s0,32(sp)
 495              		.cfi_restore 8
 496              		.cfi_def_cfa 2, 48
 497 01e8 83348101 		ld	s1,24(sp)
 498              		.cfi_restore 9
 499              	.LVL36:
 500 01ec 13010103 		addi	sp,sp,48
 501              		.cfi_def_cfa_offset 0
 502 01f0 67800000 		jr	ra
 503              		.cfi_endproc
GAS LISTING /tmp/cc5BZUeL.s 			page 12


 504              	.LFE11:
 506              		.globl	_ZN6ThreadC1EPFvPvES0_
 507              		.set	_ZN6ThreadC1EPFvPvES0_,_ZN6ThreadC2EPFvPvES0_
 508              		.align	2
 509              		.globl	_ZN6ThreadC2Ev
 511              	_ZN6ThreadC2Ev:
 512              	.LFB14:
  15:src/syscall_cpp.cpp **** 
 513              		.loc 2 15 1 is_stmt 1
 514              		.cfi_startproc
 515              	.LVL37:
 516 01f4 130101FF 		addi	sp,sp,-16
 517              		.cfi_def_cfa_offset 16
 518 01f8 23348100 		sd	s0,8(sp)
 519              		.cfi_offset 8, -8
 520 01fc 13040101 		addi	s0,sp,16
 521              		.cfi_def_cfa 8, 0
 522              	.LBB12:
  15:src/syscall_cpp.cpp **** 
 523              		.loc 2 15 16 is_stmt 0
 524 0200 97070000 		lla	a5,_ZTV6Thread+16
 524      93870700 
 525 0208 2330F500 		sd	a5,0(a0)
 526              	.LBE12:
  17:src/syscall_cpp.cpp **** void Thread::dispatch() {
 527              		.loc 2 17 1
 528 020c 03348100 		ld	s0,8(sp)
 529              		.cfi_restore 8
 530              		.cfi_def_cfa 2, 16
 531 0210 13010101 		addi	sp,sp,16
 532              		.cfi_def_cfa_offset 0
 533 0214 67800000 		jr	ra
 534              		.cfi_endproc
 535              	.LFE14:
 537              		.globl	_ZN6ThreadC1Ev
 538              		.set	_ZN6ThreadC1Ev,_ZN6ThreadC2Ev
 539              		.align	2
 540              		.globl	_ZN6Thread8dispatchEv
 542              	_ZN6Thread8dispatchEv:
 543              	.LFB16:
  18:src/syscall_cpp.cpp ****     thread_dispatch();
 544              		.loc 2 18 25 is_stmt 1
 545              		.cfi_startproc
 546 0218 130101FF 		addi	sp,sp,-16
 547              		.cfi_def_cfa_offset 16
 548 021c 23341100 		sd	ra,8(sp)
 549 0220 23308100 		sd	s0,0(sp)
 550              		.cfi_offset 1, -8
 551              		.cfi_offset 8, -16
 552 0224 13040101 		addi	s0,sp,16
 553              		.cfi_def_cfa 8, 0
  19:src/syscall_cpp.cpp **** }
 554              		.loc 2 19 5
  19:src/syscall_cpp.cpp **** }
 555              		.loc 2 19 20 is_stmt 0
 556 0228 97000000 		call	_Z15thread_dispatchv@plt
 556      E7800000 
GAS LISTING /tmp/cc5BZUeL.s 			page 13


 557              	.LVL38:
  20:src/syscall_cpp.cpp **** 
 558              		.loc 2 20 1
 559 0230 83308100 		ld	ra,8(sp)
 560              		.cfi_restore 1
 561 0234 03340100 		ld	s0,0(sp)
 562              		.cfi_restore 8
 563              		.cfi_def_cfa 2, 16
 564 0238 13010101 		addi	sp,sp,16
 565              		.cfi_def_cfa_offset 0
 566 023c 67800000 		jr	ra
 567              		.cfi_endproc
 568              	.LFE16:
 570              		.align	2
 571              		.globl	_ZN6Thread5startEv
 573              	_ZN6Thread5startEv:
 574              	.LFB17:
  22:src/syscall_cpp.cpp ****     class RunAdapter{
 575              		.loc 2 22 21 is_stmt 1
 576              		.cfi_startproc
 577              	.LVL39:
 578 0240 130101FD 		addi	sp,sp,-48
 579              		.cfi_def_cfa_offset 48
 580 0244 23341102 		sd	ra,40(sp)
 581 0248 23308102 		sd	s0,32(sp)
 582 024c 233C9100 		sd	s1,24(sp)
 583              		.cfi_offset 1, -8
 584              		.cfi_offset 8, -16
 585              		.cfi_offset 9, -24
 586 0250 13040103 		addi	s0,sp,48
 587              		.cfi_def_cfa 8, 0
 588 0254 93040500 		mv	s1,a0
  23:src/syscall_cpp.cpp ****     public:
 589              		.loc 2 23 5
  30:src/syscall_cpp.cpp ****     body=RunAdapter::adapter;
 590              		.loc 2 30 5
  31:src/syscall_cpp.cpp ****     arg=this;
 591              		.loc 2 31 5
  31:src/syscall_cpp.cpp ****     arg=this;
 592              		.loc 2 31 9 is_stmt 0
 593 0258 97050000 		lla	a1,_ZZN6Thread5startEvEN10RunAdapter7adapterEPv
 593      93850500 
 594 0260 2338B500 		sd	a1,16(a0)
  32:src/syscall_cpp.cpp ****     int status=thread_create(&handle,body,arg);
 595              		.loc 2 32 5 is_stmt 1
  32:src/syscall_cpp.cpp ****     int status=thread_create(&handle,body,arg);
 596              		.loc 2 32 8 is_stmt 0
 597 0264 233CA500 		sd	a0,24(a0)
  33:src/syscall_cpp.cpp ****     myHandle=handle;
 598              		.loc 2 33 5 is_stmt 1
  33:src/syscall_cpp.cpp ****     myHandle=handle;
 599              		.loc 2 33 29 is_stmt 0
 600 0268 13060500 		mv	a2,a0
 601 026c 130584FD 		addi	a0,s0,-40
 602              	.LVL40:
 603 0270 97000000 		call	_Z13thread_createPP3TCBPFvPvES2_@plt
 603      E7800000 
GAS LISTING /tmp/cc5BZUeL.s 			page 14


 604              	.LVL41:
  34:src/syscall_cpp.cpp ****     return status;
 605              		.loc 2 34 5 is_stmt 1
  34:src/syscall_cpp.cpp ****     return status;
 606              		.loc 2 34 13 is_stmt 0
 607 0278 833784FD 		ld	a5,-40(s0)
 608 027c 23B4F400 		sd	a5,8(s1)
  35:src/syscall_cpp.cpp **** }
 609              		.loc 2 35 5 is_stmt 1
  36:src/syscall_cpp.cpp **** 
 610              		.loc 2 36 1 is_stmt 0
 611 0280 83308102 		ld	ra,40(sp)
 612              		.cfi_restore 1
 613 0284 03340102 		ld	s0,32(sp)
 614              		.cfi_restore 8
 615              		.cfi_def_cfa 2, 48
 616 0288 83348101 		ld	s1,24(sp)
 617              		.cfi_restore 9
 618              	.LVL42:
 619 028c 13010103 		addi	sp,sp,48
 620              		.cfi_def_cfa_offset 0
 621 0290 67800000 		jr	ra
 622              		.cfi_endproc
 623              	.LFE17:
 625              		.align	2
 626              		.globl	_ZN6Thread5sleepEm
 628              	_ZN6Thread5sleepEm:
 629              	.LFB19:
  38:src/syscall_cpp.cpp ****     return time_sleep(t);
 630              		.loc 2 38 29 is_stmt 1
 631              		.cfi_startproc
 632              	.LVL43:
 633 0294 130101FF 		addi	sp,sp,-16
 634              		.cfi_def_cfa_offset 16
 635 0298 23341100 		sd	ra,8(sp)
 636 029c 23308100 		sd	s0,0(sp)
 637              		.cfi_offset 1, -8
 638              		.cfi_offset 8, -16
 639 02a0 13040101 		addi	s0,sp,16
 640              		.cfi_def_cfa 8, 0
  39:src/syscall_cpp.cpp **** }
 641              		.loc 2 39 5
  39:src/syscall_cpp.cpp **** }
 642              		.loc 2 39 22 is_stmt 0
 643 02a4 97000000 		call	_Z10time_sleepm@plt
 643      E7800000 
 644              	.LVL44:
  40:src/syscall_cpp.cpp **** Thread::~Thread(){
 645              		.loc 2 40 1
 646 02ac 83308100 		ld	ra,8(sp)
 647              		.cfi_restore 1
 648 02b0 03340100 		ld	s0,0(sp)
 649              		.cfi_restore 8
 650              		.cfi_def_cfa 2, 16
 651 02b4 13010101 		addi	sp,sp,16
 652              		.cfi_def_cfa_offset 0
 653 02b8 67800000 		jr	ra
GAS LISTING /tmp/cc5BZUeL.s 			page 15


 654              		.cfi_endproc
 655              	.LFE19:
 657              		.align	2
 658              		.globl	_ZN14PeriodicThread3runEv
 660              	_ZN14PeriodicThread3runEv:
 661              	.LFB28:
  53:src/syscall_cpp.cpp ****     while(period){
 662              		.loc 2 53 28 is_stmt 1
 663              		.cfi_startproc
 664              	.LVL45:
 665 02bc 130101FE 		addi	sp,sp,-32
 666              		.cfi_def_cfa_offset 32
 667 02c0 233C1100 		sd	ra,24(sp)
 668 02c4 23388100 		sd	s0,16(sp)
 669 02c8 23349100 		sd	s1,8(sp)
 670              		.cfi_offset 1, -8
 671              		.cfi_offset 8, -16
 672              		.cfi_offset 9, -24
 673 02cc 13040102 		addi	s0,sp,32
 674              		.cfi_def_cfa 8, 0
 675 02d0 93040500 		mv	s1,a0
 676              	.LVL46:
 677              	.L37:
  54:src/syscall_cpp.cpp ****         sleep(period);
 678              		.loc 2 54 5
  54:src/syscall_cpp.cpp ****         sleep(period);
 679              		.loc 2 54 11
 680 02d4 03B50402 		ld	a0,32(s1)
 681 02d8 63000502 		beqz	a0,.L35
  55:src/syscall_cpp.cpp ****         periodicActivation();
 682              		.loc 2 55 9
  55:src/syscall_cpp.cpp ****         periodicActivation();
 683              		.loc 2 55 14 is_stmt 0
 684 02dc 97000000 		call	_ZN6Thread5sleepEm
 684      E7800000 
 685              	.LVL47:
  56:src/syscall_cpp.cpp ****     }
 686              		.loc 2 56 9 is_stmt 1
  56:src/syscall_cpp.cpp ****     }
 687              		.loc 2 56 28 is_stmt 0
 688 02e4 83B70400 		ld	a5,0(s1)
 689 02e8 83B78701 		ld	a5,24(a5)
  56:src/syscall_cpp.cpp ****     }
 690              		.loc 2 56 27
 691 02ec 13850400 		mv	a0,s1
 692 02f0 E7800700 		jalr	a5
 693              	.LVL48:
  54:src/syscall_cpp.cpp ****         sleep(period);
 694              		.loc 2 54 5
 695 02f4 6FF01FFE 		j	.L37
 696              	.L35:
  58:src/syscall_cpp.cpp **** 
 697              		.loc 2 58 1
 698 02f8 83308101 		ld	ra,24(sp)
 699              		.cfi_restore 1
 700 02fc 03340101 		ld	s0,16(sp)
 701              		.cfi_restore 8
GAS LISTING /tmp/cc5BZUeL.s 			page 16


 702              		.cfi_def_cfa 2, 32
 703 0300 83348100 		ld	s1,8(sp)
 704              		.cfi_restore 9
 705              	.LVL49:
 706 0304 13010102 		addi	sp,sp,32
 707              		.cfi_def_cfa_offset 0
 708 0308 67800000 		jr	ra
 709              		.cfi_endproc
 710              	.LFE28:
 712              		.align	2
 713              		.globl	_ZN14PeriodicThreadC2Em
 715              	_ZN14PeriodicThreadC2Em:
 716              	.LFB25:
  45:src/syscall_cpp.cpp **** 
 717              		.loc 2 45 1 is_stmt 1
 718              		.cfi_startproc
 719              	.LVL50:
 720 030c 130101FE 		addi	sp,sp,-32
 721              		.cfi_def_cfa_offset 32
 722 0310 233C1100 		sd	ra,24(sp)
 723 0314 23388100 		sd	s0,16(sp)
 724 0318 23349100 		sd	s1,8(sp)
 725 031c 23302101 		sd	s2,0(sp)
 726              		.cfi_offset 1, -8
 727              		.cfi_offset 8, -16
 728              		.cfi_offset 9, -24
 729              		.cfi_offset 18, -32
 730 0320 13040102 		addi	s0,sp,32
 731              		.cfi_def_cfa 8, 0
 732 0324 93040500 		mv	s1,a0
 733 0328 13890500 		mv	s2,a1
 734              	.LBB13:
  45:src/syscall_cpp.cpp **** 
 735              		.loc 2 45 60 is_stmt 0
 736 032c 97000000 		call	_ZN6ThreadC2Ev
 736      E7800000 
 737              	.LVL51:
 738 0334 97070000 		lla	a5,_ZTV14PeriodicThread+16
 738      93870700 
 739 033c 23B0F400 		sd	a5,0(s1)
 740 0340 23B02403 		sd	s2,32(s1)
 741              	.LBE13:
  47:src/syscall_cpp.cpp **** 
 742              		.loc 2 47 1
 743 0344 83308101 		ld	ra,24(sp)
 744              		.cfi_restore 1
 745 0348 03340101 		ld	s0,16(sp)
 746              		.cfi_restore 8
 747              		.cfi_def_cfa 2, 32
 748 034c 83348100 		ld	s1,8(sp)
 749              		.cfi_restore 9
 750              	.LVL52:
 751 0350 03390100 		ld	s2,0(sp)
 752              		.cfi_restore 18
 753              	.LVL53:
 754 0354 13010102 		addi	sp,sp,32
 755              		.cfi_def_cfa_offset 0
GAS LISTING /tmp/cc5BZUeL.s 			page 17


 756 0358 67800000 		jr	ra
 757              		.cfi_endproc
 758              	.LFE25:
 760              		.globl	_ZN14PeriodicThreadC1Em
 761              		.set	_ZN14PeriodicThreadC1Em,_ZN14PeriodicThreadC2Em
 762              		.align	2
 763              		.globl	_ZN14PeriodicThread9terminateEv
 765              	_ZN14PeriodicThread9terminateEv:
 766              	.LFB27:
  49:src/syscall_cpp.cpp ****     period=0;
 767              		.loc 2 49 34 is_stmt 1
 768              		.cfi_startproc
 769              	.LVL54:
 770 035c 130101FF 		addi	sp,sp,-16
 771              		.cfi_def_cfa_offset 16
 772 0360 23348100 		sd	s0,8(sp)
 773              		.cfi_offset 8, -8
 774 0364 13040101 		addi	s0,sp,16
 775              		.cfi_def_cfa 8, 0
  50:src/syscall_cpp.cpp **** }
 776              		.loc 2 50 5
  50:src/syscall_cpp.cpp **** }
 777              		.loc 2 50 11 is_stmt 0
 778 0368 23300502 		sd	zero,32(a0)
  51:src/syscall_cpp.cpp **** 
 779              		.loc 2 51 1
 780 036c 03348100 		ld	s0,8(sp)
 781              		.cfi_restore 8
 782              		.cfi_def_cfa 2, 16
 783 0370 13010101 		addi	sp,sp,16
 784              		.cfi_def_cfa_offset 0
 785 0374 67800000 		jr	ra
 786              		.cfi_endproc
 787              	.LFE27:
 789              		.align	2
 790              		.globl	_ZN9SemaphoreC2Ej
 792              	_ZN9SemaphoreC2Ej:
 793              	.LFB30:
  60:src/syscall_cpp.cpp ****     sem_t handle;
 794              		.loc 2 60 1 is_stmt 1
 795              		.cfi_startproc
 796              	.LVL55:
 797 0378 130101FD 		addi	sp,sp,-48
 798              		.cfi_def_cfa_offset 48
 799 037c 23341102 		sd	ra,40(sp)
 800 0380 23308102 		sd	s0,32(sp)
 801 0384 233C9100 		sd	s1,24(sp)
 802              		.cfi_offset 1, -8
 803              		.cfi_offset 8, -16
 804              		.cfi_offset 9, -24
 805 0388 13040103 		addi	s0,sp,48
 806              		.cfi_def_cfa 8, 0
 807 038c 93040500 		mv	s1,a0
 808              	.LBB14:
  60:src/syscall_cpp.cpp ****     sem_t handle;
 809              		.loc 2 60 39 is_stmt 0
 810 0390 97070000 		lla	a5,_ZTV9Semaphore+16
GAS LISTING /tmp/cc5BZUeL.s 			page 18


 810      93870700 
 811 0398 2330F500 		sd	a5,0(a0)
 812              	.LBB15:
  61:src/syscall_cpp.cpp ****     sem_open(&handle,init);
 813              		.loc 2 61 5 is_stmt 1
  62:src/syscall_cpp.cpp ****     myHandle=handle;
 814              		.loc 2 62 5
  62:src/syscall_cpp.cpp ****     myHandle=handle;
 815              		.loc 2 62 13 is_stmt 0
 816 039c 130584FD 		addi	a0,s0,-40
 817              	.LVL56:
 818 03a0 97000000 		call	_Z8sem_openPP4SemCj@plt
 818      E7800000 
 819              	.LVL57:
  63:src/syscall_cpp.cpp **** }
 820              		.loc 2 63 5 is_stmt 1
  63:src/syscall_cpp.cpp **** }
 821              		.loc 2 63 13 is_stmt 0
 822 03a8 833784FD 		ld	a5,-40(s0)
 823 03ac 23B4F400 		sd	a5,8(s1)
 824              	.LBE15:
 825              	.LBE14:
  64:src/syscall_cpp.cpp **** Semaphore::~Semaphore() {
 826              		.loc 2 64 1
 827 03b0 83308102 		ld	ra,40(sp)
 828              		.cfi_restore 1
 829 03b4 03340102 		ld	s0,32(sp)
 830              		.cfi_restore 8
 831              		.cfi_def_cfa 2, 48
 832 03b8 83348101 		ld	s1,24(sp)
 833              		.cfi_restore 9
 834              	.LVL58:
 835 03bc 13010103 		addi	sp,sp,48
 836              		.cfi_def_cfa_offset 0
 837 03c0 67800000 		jr	ra
 838              		.cfi_endproc
 839              	.LFE30:
 841              		.globl	_ZN9SemaphoreC1Ej
 842              		.set	_ZN9SemaphoreC1Ej,_ZN9SemaphoreC2Ej
 843              		.align	2
 844              		.globl	_ZN9Semaphore4waitEv
 846              	_ZN9Semaphore4waitEv:
 847              	.LFB36:
  69:src/syscall_cpp.cpp **** 
  70:src/syscall_cpp.cpp **** int Semaphore::wait() {
 848              		.loc 2 70 23 is_stmt 1
 849              		.cfi_startproc
 850              	.LVL59:
 851 03c4 130101FF 		addi	sp,sp,-16
 852              		.cfi_def_cfa_offset 16
 853 03c8 23341100 		sd	ra,8(sp)
 854 03cc 23308100 		sd	s0,0(sp)
 855              		.cfi_offset 1, -8
 856              		.cfi_offset 8, -16
 857 03d0 13040101 		addi	s0,sp,16
 858              		.cfi_def_cfa 8, 0
  71:src/syscall_cpp.cpp ****     return sem_wait(myHandle);
GAS LISTING /tmp/cc5BZUeL.s 			page 19


 859              		.loc 2 71 5
 860              		.loc 2 71 20 is_stmt 0
 861 03d4 03358500 		ld	a0,8(a0)
 862              	.LVL60:
 863 03d8 97000000 		call	_Z8sem_waitP4SemC@plt
 863      E7800000 
 864              	.LVL61:
  72:src/syscall_cpp.cpp **** }
 865              		.loc 2 72 1
 866 03e0 83308100 		ld	ra,8(sp)
 867              		.cfi_restore 1
 868 03e4 03340100 		ld	s0,0(sp)
 869              		.cfi_restore 8
 870              		.cfi_def_cfa 2, 16
 871 03e8 13010101 		addi	sp,sp,16
 872              		.cfi_def_cfa_offset 0
 873 03ec 67800000 		jr	ra
 874              		.cfi_endproc
 875              	.LFE36:
 877              		.align	2
 878              		.globl	_ZN9Semaphore6signalEv
 880              	_ZN9Semaphore6signalEv:
 881              	.LFB37:
  73:src/syscall_cpp.cpp **** 
  74:src/syscall_cpp.cpp **** int Semaphore::signal() {
 882              		.loc 2 74 25 is_stmt 1
 883              		.cfi_startproc
 884              	.LVL62:
 885 03f0 130101FF 		addi	sp,sp,-16
 886              		.cfi_def_cfa_offset 16
 887 03f4 23341100 		sd	ra,8(sp)
 888 03f8 23308100 		sd	s0,0(sp)
 889              		.cfi_offset 1, -8
 890              		.cfi_offset 8, -16
 891 03fc 13040101 		addi	s0,sp,16
 892              		.cfi_def_cfa 8, 0
  75:src/syscall_cpp.cpp ****     return sem_signal(myHandle);
 893              		.loc 2 75 5
 894              		.loc 2 75 22 is_stmt 0
 895 0400 03358500 		ld	a0,8(a0)
 896              	.LVL63:
 897 0404 97000000 		call	_Z10sem_signalP4SemC@plt
 897      E7800000 
 898              	.LVL64:
  76:src/syscall_cpp.cpp **** }
 899              		.loc 2 76 1
 900 040c 83308100 		ld	ra,8(sp)
 901              		.cfi_restore 1
 902 0410 03340100 		ld	s0,0(sp)
 903              		.cfi_restore 8
 904              		.cfi_def_cfa 2, 16
 905 0414 13010101 		addi	sp,sp,16
 906              		.cfi_def_cfa_offset 0
 907 0418 67800000 		jr	ra
 908              		.cfi_endproc
 909              	.LFE37:
 911              		.align	2
GAS LISTING /tmp/cc5BZUeL.s 			page 20


 912              		.globl	_ZN9Semaphore7tryWaitEv
 914              	_ZN9Semaphore7tryWaitEv:
 915              	.LFB38:
  77:src/syscall_cpp.cpp **** 
  78:src/syscall_cpp.cpp **** int Semaphore::tryWait() {
 916              		.loc 2 78 26 is_stmt 1
 917              		.cfi_startproc
 918              	.LVL65:
 919 041c 130101FF 		addi	sp,sp,-16
 920              		.cfi_def_cfa_offset 16
 921 0420 23341100 		sd	ra,8(sp)
 922 0424 23308100 		sd	s0,0(sp)
 923              		.cfi_offset 1, -8
 924              		.cfi_offset 8, -16
 925 0428 13040101 		addi	s0,sp,16
 926              		.cfi_def_cfa 8, 0
  79:src/syscall_cpp.cpp ****     return sem_trywait(myHandle);
 927              		.loc 2 79 5
 928              		.loc 2 79 23 is_stmt 0
 929 042c 03358500 		ld	a0,8(a0)
 930              	.LVL66:
 931 0430 97000000 		call	_Z11sem_trywaitP4SemC@plt
 931      E7800000 
 932              	.LVL67:
  80:src/syscall_cpp.cpp **** }
 933              		.loc 2 80 1
 934 0438 83308100 		ld	ra,8(sp)
 935              		.cfi_restore 1
 936 043c 03340100 		ld	s0,0(sp)
 937              		.cfi_restore 8
 938              		.cfi_def_cfa 2, 16
 939 0440 13010101 		addi	sp,sp,16
 940              		.cfi_def_cfa_offset 0
 941 0444 67800000 		jr	ra
 942              		.cfi_endproc
 943              	.LFE38:
 945              		.align	2
 946              		.globl	_ZN9Semaphore9timedWaitEm
 948              	_ZN9Semaphore9timedWaitEm:
 949              	.LFB39:
  81:src/syscall_cpp.cpp **** 
  82:src/syscall_cpp.cpp **** int Semaphore::timedWait(time_t limit) {
 950              		.loc 2 82 40 is_stmt 1
 951              		.cfi_startproc
 952              	.LVL68:
 953 0448 130101FF 		addi	sp,sp,-16
 954              		.cfi_def_cfa_offset 16
 955 044c 23341100 		sd	ra,8(sp)
 956 0450 23308100 		sd	s0,0(sp)
 957              		.cfi_offset 1, -8
 958              		.cfi_offset 8, -16
 959 0454 13040101 		addi	s0,sp,16
 960              		.cfi_def_cfa 8, 0
  83:src/syscall_cpp.cpp ****     return sem_timedwait(myHandle,limit);
 961              		.loc 2 83 5
 962              		.loc 2 83 25 is_stmt 0
 963 0458 03358500 		ld	a0,8(a0)
GAS LISTING /tmp/cc5BZUeL.s 			page 21


 964              	.LVL69:
 965 045c 97000000 		call	_Z13sem_timedwaitP4SemCm@plt
 965      E7800000 
 966              	.LVL70:
  84:src/syscall_cpp.cpp **** }
 967              		.loc 2 84 1
 968 0464 83308100 		ld	ra,8(sp)
 969              		.cfi_restore 1
 970 0468 03340100 		ld	s0,0(sp)
 971              		.cfi_restore 8
 972              		.cfi_def_cfa 2, 16
 973 046c 13010101 		addi	sp,sp,16
 974              		.cfi_def_cfa_offset 0
 975 0470 67800000 		jr	ra
 976              		.cfi_endproc
 977              	.LFE39:
 979              		.align	2
 980              		.globl	_ZN7Console4getcEv
 982              	_ZN7Console4getcEv:
 983              	.LFB40:
  85:src/syscall_cpp.cpp **** char Console::getc() {
 984              		.loc 2 85 22 is_stmt 1
 985              		.cfi_startproc
 986 0474 130101FF 		addi	sp,sp,-16
 987              		.cfi_def_cfa_offset 16
 988 0478 23341100 		sd	ra,8(sp)
 989 047c 23308100 		sd	s0,0(sp)
 990              		.cfi_offset 1, -8
 991              		.cfi_offset 8, -16
 992 0480 13040101 		addi	s0,sp,16
 993              		.cfi_def_cfa 8, 0
  86:src/syscall_cpp.cpp ****     return ::getc();
 994              		.loc 2 86 5
 995              		.loc 2 86 18 is_stmt 0
 996 0484 97000000 		call	_Z4getcv@plt
 996      E7800000 
 997              	.LVL71:
  87:src/syscall_cpp.cpp **** }
 998              		.loc 2 87 1
 999 048c 83308100 		ld	ra,8(sp)
 1000              		.cfi_restore 1
 1001 0490 03340100 		ld	s0,0(sp)
 1002              		.cfi_restore 8
 1003              		.cfi_def_cfa 2, 16
 1004 0494 13010101 		addi	sp,sp,16
 1005              		.cfi_def_cfa_offset 0
 1006 0498 67800000 		jr	ra
 1007              		.cfi_endproc
 1008              	.LFE40:
 1010              		.align	2
 1011              		.globl	_ZN7Console4putcEc
 1013              	_ZN7Console4putcEc:
 1014              	.LFB41:
  88:src/syscall_cpp.cpp **** 
  89:src/syscall_cpp.cpp **** void Console::putc(char c) {
 1015              		.loc 2 89 28 is_stmt 1
 1016              		.cfi_startproc
GAS LISTING /tmp/cc5BZUeL.s 			page 22


 1017              	.LVL72:
 1018 049c 130101FF 		addi	sp,sp,-16
 1019              		.cfi_def_cfa_offset 16
 1020 04a0 23341100 		sd	ra,8(sp)
 1021 04a4 23308100 		sd	s0,0(sp)
 1022              		.cfi_offset 1, -8
 1023              		.cfi_offset 8, -16
 1024 04a8 13040101 		addi	s0,sp,16
 1025              		.cfi_def_cfa 8, 0
  90:src/syscall_cpp.cpp ****     ::putc(c);
 1026              		.loc 2 90 5
 1027              		.loc 2 90 11 is_stmt 0
 1028 04ac 97000000 		call	_Z4putcc@plt
 1028      E7800000 
 1029              	.LVL73:
  91:src/syscall_cpp.cpp **** }...
 1030              		.loc 2 91 1
 1031 04b4 83308100 		ld	ra,8(sp)
 1032              		.cfi_restore 1
 1033 04b8 03340100 		ld	s0,0(sp)
 1034              		.cfi_restore 8
 1035              		.cfi_def_cfa 2, 16
 1036 04bc 13010101 		addi	sp,sp,16
 1037              		.cfi_def_cfa_offset 0
 1038 04c0 67800000 		jr	ra
 1039              		.cfi_endproc
 1040              	.LFE41:
 1042              		.weak	_ZTV6Thread
 1043              		.section	.data.rel.ro.local._ZTV6Thread,"awG",@progbits,_ZTV6Thread,comdat
 1044              		.align	3
 1047              	_ZTV6Thread:
 1048 0000 00000000 		.dword	0
 1048      00000000 
 1049 0008 00000000 		.dword	0
 1049      00000000 
 1050 0010 00000000 		.dword	_ZN6ThreadD1Ev
 1050      00000000 
 1051 0018 00000000 		.dword	_ZN6ThreadD0Ev
 1051      00000000 
 1052 0020 00000000 		.dword	_ZN6Thread3runEv
 1052      00000000 
 1053              		.weak	_ZTV14PeriodicThread
 1054              		.section	.data.rel.ro.local._ZTV14PeriodicThread,"awG",@progbits,_ZTV14PeriodicThread,comdat
 1055              		.align	3
 1058              	_ZTV14PeriodicThread:
 1059 0000 00000000 		.dword	0
 1059      00000000 
 1060 0008 00000000 		.dword	0
 1060      00000000 
 1061 0010 00000000 		.dword	_ZN14PeriodicThreadD1Ev
 1061      00000000 
 1062 0018 00000000 		.dword	_ZN14PeriodicThreadD0Ev
 1062      00000000 
 1063 0020 00000000 		.dword	_ZN14PeriodicThread3runEv
 1063      00000000 
 1064 0028 00000000 		.dword	_ZN14PeriodicThread18periodicActivationEv
 1064      00000000 
GAS LISTING /tmp/cc5BZUeL.s 			page 23


 1065              		.weak	_ZTV9Semaphore
 1066              		.section	.data.rel.ro.local._ZTV9Semaphore,"awG",@progbits,_ZTV9Semaphore,comdat
 1067              		.align	3
 1070              	_ZTV9Semaphore:
 1071 0000 00000000 		.dword	0
 1071      00000000 
 1072 0008 00000000 		.dword	0
 1072      00000000 
 1073 0010 00000000 		.dword	_ZN9SemaphoreD1Ev
 1073      00000000 
 1074 0018 00000000 		.dword	_ZN9SemaphoreD0Ev
 1074      00000000 
 1075              		.text
 1076              	.Letext0:
 1077              		.file 3 "src/../h/../lib/hw.h"
 1078              		.file 4 "src/../h/syscall_c.hpp"
 1079              		.file 5 "src/../h/TCB.hpp"
 1080              		.file 6 "src/../h/SemC.hpp"
 1081              		.file 7 "src/../h/BlockedQueue.hpp"
 5438              		.align	3
 5441              	DW.ref.__gxx_personality_v0:
 5442 0000 00000000 		.dword	__gxx_personality_v0
 5442      00000000 
 5443              		.ident	"GCC: (Ubuntu 9.4.0-1ubuntu1~20.04) 9.4.0"
 5444              		.section	.note.GNU-stack,"",@progbits
GAS LISTING /tmp/cc5BZUeL.s 			page 24

