GAS LISTING /tmp/ccaSCE7c.s 			page 1


   1              		.file	"timedWaitTest.cpp"
   2              		.option pic
   3              		.option norelax
   4              		.text
   5              	.Ltext0:
   6              		.section	.rodata._ZN2T13runEv.str1.8,"aMS",@progbits,1
   7              		.align	3
   8              	.LC0:
   9 0000 50727669 		.string	"Prvi\n"
   9      0A00
  10 0006 0000     		.align	3
  11              	.LC1:
  12 0008 44727567 		.string	"Drugi\n"
  12      690A00
  13              		.section	.text._ZN2T13runEv,"axG",@progbits,_ZN2T13runEv,comdat
  14              		.align	2
  15              		.weak	_ZN2T13runEv
  17              	_ZN2T13runEv:
  18              	.LFB6:
  19              		.file 1 "src/timedWaitTest.cpp"
   1:src/timedWaitTest.cpp **** #include "../test/timedWaitTest.hpp"
   2:src/timedWaitTest.cpp **** #include "../test//printing.hpp"
   3:src/timedWaitTest.cpp **** static Semaphore* semem;
   4:src/timedWaitTest.cpp **** class T1:public Thread{
   5:src/timedWaitTest.cpp **** public:
   6:src/timedWaitTest.cpp ****     T1(time_t w):waitTime(w){
   7:src/timedWaitTest.cpp **** 
   8:src/timedWaitTest.cpp ****     }
   9:src/timedWaitTest.cpp ****     bool getOver() const{
  10:src/timedWaitTest.cpp ****         return over;
  11:src/timedWaitTest.cpp ****     }
  12:src/timedWaitTest.cpp **** protected:
  13:src/timedWaitTest.cpp ****     void run() override{
  20              		.loc 1 13 10
  21              		.cfi_startproc
  22              	.LVL0:
  23 0000 130101FE 		addi	sp,sp,-32
  24              		.cfi_def_cfa_offset 32
  25 0004 233C1100 		sd	ra,24(sp)
  26 0008 23388100 		sd	s0,16(sp)
  27 000c 23349100 		sd	s1,8(sp)
  28              		.cfi_offset 1, -8
  29              		.cfi_offset 8, -16
  30              		.cfi_offset 9, -24
  31 0010 13040102 		addi	s0,sp,32
  32              		.cfi_def_cfa 8, 0
  33 0014 93040500 		mv	s1,a0
  14:src/timedWaitTest.cpp ****         sem->timedWait(waitTime);
  34              		.loc 1 14 9
  35              		.loc 1 14 23 is_stmt 0
  36 0018 83350502 		ld	a1,32(a0)
  37 001c 03358502 		ld	a0,40(a0)
  38              	.LVL1:
  39 0020 97000000 		call	_ZN9Semaphore9timedWaitEm@plt
  39      E7800000 
  40              	.LVL2:
  15:src/timedWaitTest.cpp ****         printString("Prvi\n");
GAS LISTING /tmp/ccaSCE7c.s 			page 2


  41              		.loc 1 15 9 is_stmt 1
  42              		.loc 1 15 20 is_stmt 0
  43 0028 17050000 		lla	a0,.LC0
  43      13050500 
  44 0030 97000000 		call	_Z11printStringPKc@plt
  44      E7800000 
  45              	.LVL3:
  16:src/timedWaitTest.cpp ****         sem->timedWait(waitTime);
  46              		.loc 1 16 9 is_stmt 1
  47              		.loc 1 16 23 is_stmt 0
  48 0038 83B50402 		ld	a1,32(s1)
  49 003c 03B58402 		ld	a0,40(s1)
  50 0040 97000000 		call	_ZN9Semaphore9timedWaitEm@plt
  50      E7800000 
  51              	.LVL4:
  17:src/timedWaitTest.cpp ****         printString("Drugi\n");
  52              		.loc 1 17 9 is_stmt 1
  53              		.loc 1 17 20 is_stmt 0
  54 0048 17050000 		lla	a0,.LC1
  54      13050500 
  55 0050 97000000 		call	_Z11printStringPKc@plt
  55      E7800000 
  56              	.LVL5:
  18:src/timedWaitTest.cpp ****         over=true;
  57              		.loc 1 18 9 is_stmt 1
  58              		.loc 1 18 13 is_stmt 0
  59 0058 93071000 		li	a5,1
  60 005c 2388F402 		sb	a5,48(s1)
  19:src/timedWaitTest.cpp ****     }
  61              		.loc 1 19 5
  62 0060 83308101 		ld	ra,24(sp)
  63              		.cfi_restore 1
  64 0064 03340101 		ld	s0,16(sp)
  65              		.cfi_restore 8
  66              		.cfi_def_cfa 2, 32
  67 0068 83348100 		ld	s1,8(sp)
  68              		.cfi_restore 9
  69              	.LVL6:
  70 006c 13010102 		addi	sp,sp,32
  71              		.cfi_def_cfa_offset 0
  72 0070 67800000 		jr	ra
  73              		.cfi_endproc
  74              	.LFE6:
  76              		.section	.text._ZN2T1D2Ev,"axG",@progbits,_ZN2T1D5Ev,comdat
  77              		.align	2
  78              		.weak	_ZN2T1D2Ev
  80              	_ZN2T1D2Ev:
  81              	.LFB18:
   4:src/timedWaitTest.cpp **** public:
  82              		.loc 1 4 7 is_stmt 1
  83              		.cfi_startproc
  84              	.LVL7:
  85 0000 130101FF 		addi	sp,sp,-16
  86              		.cfi_def_cfa_offset 16
  87 0004 23341100 		sd	ra,8(sp)
  88 0008 23308100 		sd	s0,0(sp)
  89              		.cfi_offset 1, -8
GAS LISTING /tmp/ccaSCE7c.s 			page 3


  90              		.cfi_offset 8, -16
  91 000c 13040101 		addi	s0,sp,16
  92              		.cfi_def_cfa 8, 0
  93              	.LBB18:
   4:src/timedWaitTest.cpp **** public:
  94              		.loc 1 4 7 is_stmt 0
  95 0010 97070000 		lla	a5,_ZTV2T1+16
  95      93870700 
  96 0018 2330F500 		sd	a5,0(a0)
  97 001c 97000000 		call	_ZN6ThreadD2Ev@plt
  97      E7800000 
  98              	.LVL8:
  99              	.LBE18:
 100 0024 83308100 		ld	ra,8(sp)
 101              		.cfi_restore 1
 102 0028 03340100 		ld	s0,0(sp)
 103              		.cfi_restore 8
 104              		.cfi_def_cfa 2, 16
 105 002c 13010101 		addi	sp,sp,16
 106              		.cfi_def_cfa_offset 0
 107 0030 67800000 		jr	ra
 108              		.cfi_endproc
 109              	.LFE18:
 111              		.weak	_ZN2T1D1Ev
 112              		.set	_ZN2T1D1Ev,_ZN2T1D2Ev
 113              		.section	.text._ZN2T1D0Ev,"axG",@progbits,_ZN2T1D5Ev,comdat
 114              		.align	2
 115              		.weak	_ZN2T1D0Ev
 117              	_ZN2T1D0Ev:
 118              	.LFB20:
   4:src/timedWaitTest.cpp **** public:
 119              		.loc 1 4 7 is_stmt 1
 120              		.cfi_startproc
 121              	.LVL9:
 122 0000 130101FE 		addi	sp,sp,-32
 123              		.cfi_def_cfa_offset 32
 124 0004 233C1100 		sd	ra,24(sp)
 125 0008 23388100 		sd	s0,16(sp)
 126 000c 23349100 		sd	s1,8(sp)
 127              		.cfi_offset 1, -8
 128              		.cfi_offset 8, -16
 129              		.cfi_offset 9, -24
 130 0010 13040102 		addi	s0,sp,32
 131              		.cfi_def_cfa 8, 0
 132 0014 93040500 		mv	s1,a0
 133              	.LVL10:
 134              	.LBB19:
 135              	.LBB20:
   4:src/timedWaitTest.cpp **** public:
 136              		.loc 1 4 7 is_stmt 0
 137 0018 97070000 		lla	a5,_ZTV2T1+16
 137      93870700 
 138 0020 2330F500 		sd	a5,0(a0)
 139 0024 97000000 		call	_ZN6ThreadD2Ev@plt
 139      E7800000 
 140              	.LVL11:
 141              	.LBE20:
GAS LISTING /tmp/ccaSCE7c.s 			page 4


 142              	.LBE19:
 143 002c 13850400 		mv	a0,s1
 144 0030 97000000 		call	_ZdlPv@plt
 144      E7800000 
 145              	.LVL12:
 146 0038 83308101 		ld	ra,24(sp)
 147              		.cfi_restore 1
 148 003c 03340101 		ld	s0,16(sp)
 149              		.cfi_restore 8
 150              		.cfi_def_cfa 2, 32
 151 0040 83348100 		ld	s1,8(sp)
 152              		.cfi_restore 9
 153              	.LVL13:
 154 0044 13010102 		addi	sp,sp,32
 155              		.cfi_def_cfa_offset 0
 156 0048 67800000 		jr	ra
 157              		.cfi_endproc
 158              	.LFE20:
 160              		.section	.text._ZN2T2D2Ev,"axG",@progbits,_ZN2T2D5Ev,comdat
 161              		.align	2
 162              		.weak	_ZN2T2D2Ev
 164              	_ZN2T2D2Ev:
 165              	.LFB14:
  20:src/timedWaitTest.cpp **** private:
  21:src/timedWaitTest.cpp ****     time_t waitTime;
  22:src/timedWaitTest.cpp ****     Semaphore* sem=semem;
  23:src/timedWaitTest.cpp ****     bool over=false;
  24:src/timedWaitTest.cpp **** };
  25:src/timedWaitTest.cpp **** class T2:public Thread{
 166              		.loc 1 25 7 is_stmt 1
 167              		.cfi_startproc
 168              	.LVL14:
 169 0000 130101FF 		addi	sp,sp,-16
 170              		.cfi_def_cfa_offset 16
 171 0004 23341100 		sd	ra,8(sp)
 172 0008 23308100 		sd	s0,0(sp)
 173              		.cfi_offset 1, -8
 174              		.cfi_offset 8, -16
 175 000c 13040101 		addi	s0,sp,16
 176              		.cfi_def_cfa 8, 0
 177              	.LBB21:
 178              		.loc 1 25 7 is_stmt 0
 179 0010 97070000 		lla	a5,_ZTV2T2+16
 179      93870700 
 180 0018 2330F500 		sd	a5,0(a0)
 181 001c 97000000 		call	_ZN6ThreadD2Ev@plt
 181      E7800000 
 182              	.LVL15:
 183              	.LBE21:
 184 0024 83308100 		ld	ra,8(sp)
 185              		.cfi_restore 1
 186 0028 03340100 		ld	s0,0(sp)
 187              		.cfi_restore 8
 188              		.cfi_def_cfa 2, 16
 189 002c 13010101 		addi	sp,sp,16
 190              		.cfi_def_cfa_offset 0
 191 0030 67800000 		jr	ra
GAS LISTING /tmp/ccaSCE7c.s 			page 5


 192              		.cfi_endproc
 193              	.LFE14:
 195              		.weak	_ZN2T2D1Ev
 196              		.set	_ZN2T2D1Ev,_ZN2T2D2Ev
 197              		.section	.text._ZN2T2D0Ev,"axG",@progbits,_ZN2T2D5Ev,comdat
 198              		.align	2
 199              		.weak	_ZN2T2D0Ev
 201              	_ZN2T2D0Ev:
 202              	.LFB16:
 203              		.loc 1 25 7 is_stmt 1
 204              		.cfi_startproc
 205              	.LVL16:
 206 0000 130101FE 		addi	sp,sp,-32
 207              		.cfi_def_cfa_offset 32
 208 0004 233C1100 		sd	ra,24(sp)
 209 0008 23388100 		sd	s0,16(sp)
 210 000c 23349100 		sd	s1,8(sp)
 211              		.cfi_offset 1, -8
 212              		.cfi_offset 8, -16
 213              		.cfi_offset 9, -24
 214 0010 13040102 		addi	s0,sp,32
 215              		.cfi_def_cfa 8, 0
 216 0014 93040500 		mv	s1,a0
 217              	.LVL17:
 218              	.LBB22:
 219              	.LBB23:
 220              		.loc 1 25 7 is_stmt 0
 221 0018 97070000 		lla	a5,_ZTV2T2+16
 221      93870700 
 222 0020 2330F500 		sd	a5,0(a0)
 223 0024 97000000 		call	_ZN6ThreadD2Ev@plt
 223      E7800000 
 224              	.LVL18:
 225              	.LBE23:
 226              	.LBE22:
 227 002c 13850400 		mv	a0,s1
 228 0030 97000000 		call	_ZdlPv@plt
 228      E7800000 
 229              	.LVL19:
 230 0038 83308101 		ld	ra,24(sp)
 231              		.cfi_restore 1
 232 003c 03340101 		ld	s0,16(sp)
 233              		.cfi_restore 8
 234              		.cfi_def_cfa 2, 32
 235 0040 83348100 		ld	s1,8(sp)
 236              		.cfi_restore 9
 237              	.LVL20:
 238 0044 13010102 		addi	sp,sp,32
 239              		.cfi_def_cfa_offset 0
 240 0048 67800000 		jr	ra
 241              		.cfi_endproc
 242              	.LFE16:
 244              		.section	.text._ZN2T23runEv,"axG",@progbits,_ZN2T23runEv,comdat
 245              		.align	2
 246              		.weak	_ZN2T23runEv
 248              	_ZN2T23runEv:
 249              	.LFB11:
GAS LISTING /tmp/ccaSCE7c.s 			page 6


  26:src/timedWaitTest.cpp **** public:
  27:src/timedWaitTest.cpp ****     T2(){
  28:src/timedWaitTest.cpp **** 
  29:src/timedWaitTest.cpp ****     }
  30:src/timedWaitTest.cpp ****     bool getOver() const{return over;}
  31:src/timedWaitTest.cpp **** protected:
  32:src/timedWaitTest.cpp ****     void run() override{
 250              		.loc 1 32 10 is_stmt 1
 251              		.cfi_startproc
 252              	.LVL21:
 253 0000 130101FE 		addi	sp,sp,-32
 254              		.cfi_def_cfa_offset 32
 255 0004 233C1100 		sd	ra,24(sp)
 256 0008 23388100 		sd	s0,16(sp)
 257 000c 23349100 		sd	s1,8(sp)
 258              		.cfi_offset 1, -8
 259              		.cfi_offset 8, -16
 260              		.cfi_offset 9, -24
 261 0010 13040102 		addi	s0,sp,32
 262              		.cfi_def_cfa 8, 0
 263 0014 93040500 		mv	s1,a0
  33:src/timedWaitTest.cpp ****         sleep(20);
 264              		.loc 1 33 9
 265              		.loc 1 33 14 is_stmt 0
 266 0018 13054001 		li	a0,20
 267              	.LVL22:
 268 001c 97000000 		call	_ZN6Thread5sleepEm@plt
 268      E7800000 
 269              	.LVL23:
  34:src/timedWaitTest.cpp ****         sem->signal();
 270              		.loc 1 34 9 is_stmt 1
 271              		.loc 1 34 20 is_stmt 0
 272 0024 03B50402 		ld	a0,32(s1)
 273 0028 97000000 		call	_ZN9Semaphore6signalEv@plt
 273      E7800000 
 274              	.LVL24:
  35:src/timedWaitTest.cpp ****         over=true;
 275              		.loc 1 35 9 is_stmt 1
 276              		.loc 1 35 13 is_stmt 0
 277 0030 93071000 		li	a5,1
 278 0034 2384F402 		sb	a5,40(s1)
  36:src/timedWaitTest.cpp ****     }
 279              		.loc 1 36 5
 280 0038 83308101 		ld	ra,24(sp)
 281              		.cfi_restore 1
 282 003c 03340101 		ld	s0,16(sp)
 283              		.cfi_restore 8
 284              		.cfi_def_cfa 2, 32
 285 0040 83348100 		ld	s1,8(sp)
 286              		.cfi_restore 9
 287              	.LVL25:
 288 0044 13010102 		addi	sp,sp,32
 289              		.cfi_def_cfa_offset 0
 290 0048 67800000 		jr	ra
 291              		.cfi_endproc
 292              	.LFE11:
 294              		.section	.rodata.str1.8,"aMS",@progbits,1
GAS LISTING /tmp/ccaSCE7c.s 			page 7


 295              		.align	3
 296              	.LC2:
 297 0000 610A00   		.string	"a\n"
 298 0003 00000000 		.align	3
 298      00
 299              	.LC3:
 300 0008 620A00   		.string	"b\n"
 301              		.text
 302              		.align	2
 303              		.globl	_Z13timedWaitTestv
 305              	_Z13timedWaitTestv:
 306              	.LFB12:
  37:src/timedWaitTest.cpp **** private:
  38:src/timedWaitTest.cpp ****     Semaphore* sem=semem;
  39:src/timedWaitTest.cpp ****     bool over=false;
  40:src/timedWaitTest.cpp **** };
  41:src/timedWaitTest.cpp **** void timedWaitTest(){
 307              		.loc 1 41 21 is_stmt 1
 308              		.cfi_startproc
 309              		.cfi_personality 0x9b,DW.ref.__gxx_personality_v0
 310              		.cfi_lsda 0x1b,.LLSDA12
 311 0000 130101FE 		addi	sp,sp,-32
 312              		.cfi_def_cfa_offset 32
 313 0004 233C1100 		sd	ra,24(sp)
 314 0008 23388100 		sd	s0,16(sp)
 315 000c 23349100 		sd	s1,8(sp)
 316 0010 23302101 		sd	s2,0(sp)
 317              		.cfi_offset 1, -8
 318              		.cfi_offset 8, -16
 319              		.cfi_offset 9, -24
 320              		.cfi_offset 18, -32
 321 0014 13040102 		addi	s0,sp,32
 322              		.cfi_def_cfa 8, 0
  42:src/timedWaitTest.cpp ****     semem=new Semaphore(0);
 323              		.loc 1 42 5
 324              		.loc 1 42 26 is_stmt 0
 325 0018 13050001 		li	a0,16
 326              	.LEHB0:
 327 001c 97000000 		call	_Znwm@plt
 327      E7800000 
 328              	.LVL26:
 329              	.LEHE0:
 330 0024 93040500 		mv	s1,a0
 331 0028 93050000 		li	a1,0
 332              	.LEHB1:
 333 002c 97000000 		call	_ZN9SemaphoreC1Ej@plt
 333      E7800000 
 334              	.LVL27:
 335              	.LEHE1:
 336              		.loc 1 42 10 discriminator 2
 337 0034 97070000 		sd	s1,.LANCHOR0,a5
 337      23B09700 
  43:src/timedWaitTest.cpp ****     printString("a\n");
 338              		.loc 1 43 5 is_stmt 1 discriminator 2
 339              		.loc 1 43 16 is_stmt 0 discriminator 2
 340 003c 17050000 		lla	a0,.LC2
 340      13050500 
GAS LISTING /tmp/ccaSCE7c.s 			page 8


 341              	.LEHB2:
 342 0044 97000000 		call	_Z11printStringPKc@plt
 342      E7800000 
 343              	.LVL28:
  44:src/timedWaitTest.cpp ****     T1* a=new T1(100);
 344              		.loc 1 44 5 is_stmt 1 discriminator 2
 345              		.loc 1 44 21 is_stmt 0 discriminator 2
 346 004c 13058003 		li	a0,56
 347 0050 97000000 		call	_Znwm@plt
 347      E7800000 
 348              	.LVL29:
 349              	.LEHE2:
 350 0058 93040500 		mv	s1,a0
 351              	.LVL30:
 352              	.LEHB3:
 353              	.LBB24:
 354              	.LBB25:
   6:src/timedWaitTest.cpp **** 
 355              		.loc 1 6 28 discriminator 2
 356 005c 97000000 		call	_ZN6ThreadC2Ev@plt
 356      E7800000 
 357              	.LVL31:
 358              	.LEHE3:
   6:src/timedWaitTest.cpp **** 
 359              		.loc 1 6 28
 360 0064 97070000 		lla	a5,_ZTV2T1+16
 360      93870700 
 361 006c 23B0F400 		sd	a5,0(s1)
 362 0070 93074006 		li	a5,100
 363 0074 23B0F402 		sd	a5,32(s1)
 364 0078 97070000 		ld	a5,.LANCHOR0
 364      83B70700 
 365 0080 23B4F402 		sd	a5,40(s1)
 366 0084 23880402 		sb	zero,48(s1)
 367              	.LVL32:
 368              	.LBE25:
 369              	.LBE24:
  45:src/timedWaitTest.cpp ****     printString("b\n");
 370              		.loc 1 45 5 is_stmt 1
 371              		.loc 1 45 16 is_stmt 0
 372 0088 17050000 		lla	a0,.LC3
 372      13050500 
 373              	.LEHB4:
 374 0090 97000000 		call	_Z11printStringPKc@plt
 374      E7800000 
 375              	.LVL33:
  46:src/timedWaitTest.cpp ****     T2* b=new T2();
 376              		.loc 1 46 5 is_stmt 1
 377              		.loc 1 46 18 is_stmt 0
 378 0098 13050003 		li	a0,48
 379 009c 97000000 		call	_Znwm@plt
 379      E7800000 
 380              	.LVL34:
 381              	.LEHE4:
 382 00a4 13090500 		mv	s2,a0
 383              	.LVL35:
 384              	.LEHB5:
GAS LISTING /tmp/ccaSCE7c.s 			page 9


 385              	.LBB26:
 386              	.LBB27:
  27:src/timedWaitTest.cpp **** 
 387              		.loc 1 27 9
 388 00a8 97000000 		call	_ZN6ThreadC2Ev@plt
 388      E7800000 
 389              	.LVL36:
 390              	.LEHE5:
 391 00b0 97070000 		lla	a5,_ZTV2T2+16
 391      93870700 
 392 00b8 2330F900 		sd	a5,0(s2)
 393 00bc 97070000 		ld	a5,.LANCHOR0
 393      83B70700 
 394 00c4 2330F902 		sd	a5,32(s2)
 395 00c8 23040902 		sb	zero,40(s2)
 396              	.LVL37:
 397              	.LBE27:
 398              	.LBE26:
  47:src/timedWaitTest.cpp ****     a->start();
 399              		.loc 1 47 5 is_stmt 1
 400              		.loc 1 47 13 is_stmt 0
 401 00cc 13850400 		mv	a0,s1
 402              	.LEHB6:
 403 00d0 97000000 		call	_ZN6Thread5startEv@plt
 403      E7800000 
 404              	.LVL38:
  48:src/timedWaitTest.cpp ****     b->start();
 405              		.loc 1 48 5 is_stmt 1
 406              		.loc 1 48 13 is_stmt 0
 407 00d8 13050900 		mv	a0,s2
 408 00dc 97000000 		call	_ZN6Thread5startEv@plt
 408      E7800000 
 409              	.LVL39:
 410              	.LEHE6:
 411              	.L14:
  49:src/timedWaitTest.cpp ****     while(!(a->getOver()&&b->getOver())){}
 412              		.loc 1 49 5 is_stmt 1
 413              		.loc 1 49 11
 414              	.LBB28:
 415              	.LBB29:
  10:src/timedWaitTest.cpp ****     }
 416              		.loc 1 10 9
  10:src/timedWaitTest.cpp ****     }
 417              		.loc 1 10 16 is_stmt 0
 418 00e4 83C70403 		lbu	a5,48(s1)
 419              	.LVL40:
 420              	.LBE29:
 421              	.LBE28:
 422              		.loc 1 49 11
 423 00e8 E38E07FE 		beqz	a5,.L14
 424              	.LVL41:
 425              	.LBB30:
 426              	.LBB31:
  30:src/timedWaitTest.cpp **** protected:
 427              		.loc 1 30 26 is_stmt 1
  30:src/timedWaitTest.cpp **** protected:
 428              		.loc 1 30 33 is_stmt 0
GAS LISTING /tmp/ccaSCE7c.s 			page 10


 429 00ec 83478902 		lbu	a5,40(s2)
 430              	.LVL42:
 431              	.LBE31:
 432              	.LBE30:
 433              		.loc 1 49 11
 434 00f0 E38A07FE 		beqz	a5,.L14
  50:src/timedWaitTest.cpp **** }
 435              		.loc 1 50 1
 436 00f4 83308101 		ld	ra,24(sp)
 437              		.cfi_remember_state
 438              		.cfi_restore 1
 439 00f8 03340101 		ld	s0,16(sp)
 440              		.cfi_restore 8
 441              		.cfi_def_cfa 2, 32
 442 00fc 83348100 		ld	s1,8(sp)
 443              		.cfi_restore 9
 444              	.LVL43:
 445 0100 03390100 		ld	s2,0(sp)
 446              		.cfi_restore 18
 447              	.LVL44:
 448 0104 13010102 		addi	sp,sp,32
 449              		.cfi_def_cfa_offset 0
 450 0108 67800000 		jr	ra
 451              	.L19:
 452              		.cfi_restore_state
 453 010c 13090500 		mv	s2,a0
  42:src/timedWaitTest.cpp ****     printString("a\n");
 454              		.loc 1 42 26
 455 0110 13850400 		mv	a0,s1
 456 0114 97000000 		call	_ZdlPv@plt
 456      E7800000 
 457              	.LVL45:
 458 011c 13050900 		mv	a0,s2
 459              	.LEHB7:
 460 0120 97000000 		call	_Unwind_Resume@plt
 460      E7800000 
 461              	.LVL46:
 462              	.LEHE7:
 463              	.L20:
 464 0128 13090500 		mv	s2,a0
  44:src/timedWaitTest.cpp ****     printString("b\n");
 465              		.loc 1 44 21
 466 012c 13850400 		mv	a0,s1
 467 0130 97000000 		call	_ZdlPv@plt
 467      E7800000 
 468              	.LVL47:
 469 0138 13050900 		mv	a0,s2
 470              	.LEHB8:
 471 013c 97000000 		call	_Unwind_Resume@plt
 471      E7800000 
 472              	.LVL48:
 473              	.LEHE8:
 474              	.L21:
 475 0144 93040500 		mv	s1,a0
 476              	.LVL49:
  46:src/timedWaitTest.cpp ****     a->start();
 477              		.loc 1 46 18
GAS LISTING /tmp/ccaSCE7c.s 			page 11


 478 0148 13050900 		mv	a0,s2
 479 014c 97000000 		call	_ZdlPv@plt
 479      E7800000 
 480              	.LVL50:
 481 0154 13850400 		mv	a0,s1
 482              	.LEHB9:
 483 0158 97000000 		call	_Unwind_Resume@plt
 483      E7800000 
 484              	.LVL51:
 485              	.LEHE9:
 486              		.cfi_endproc
 487              	.LFE12:
 488              		.globl	__gxx_personality_v0
 489              		.section	.gcc_except_table,"a",@progbits
 490              	.LLSDA12:
 491 0000 FF       		.byte	0xff
 492 0001 FF       		.byte	0xff
 493 0002 03       		.byte	0x3
 494 0003 8201     		.byte	0x82,0x1
 495 0005 00000000 		.4byte	.LEHB0-.LFB12
 496 0009 00000000 		.4byte	.LEHE0-.LEHB0
 497 000d 00000000 		.4byte	0
 498 0011 00       		.byte	0
 499 0012 00000000 		.4byte	.LEHB1-.LFB12
 500 0016 00000000 		.4byte	.LEHE1-.LEHB1
 501 001a 00000000 		.4byte	.L19-.LFB12
 502 001e 00       		.byte	0
 503 001f 00000000 		.4byte	.LEHB2-.LFB12
 504 0023 00000000 		.4byte	.LEHE2-.LEHB2
 505 0027 00000000 		.4byte	0
 506 002b 00       		.byte	0
 507 002c 00000000 		.4byte	.LEHB3-.LFB12
 508 0030 00000000 		.4byte	.LEHE3-.LEHB3
 509 0034 00000000 		.4byte	.L20-.LFB12
 510 0038 00       		.byte	0
 511 0039 00000000 		.4byte	.LEHB4-.LFB12
 512 003d 00000000 		.4byte	.LEHE4-.LEHB4
 513 0041 00000000 		.4byte	0
 514 0045 00       		.byte	0
 515 0046 00000000 		.4byte	.LEHB5-.LFB12
 516 004a 00000000 		.4byte	.LEHE5-.LEHB5
 517 004e 00000000 		.4byte	.L21-.LFB12
 518 0052 00       		.byte	0
 519 0053 00000000 		.4byte	.LEHB6-.LFB12
 520 0057 00000000 		.4byte	.LEHE6-.LEHB6
 521 005b 00000000 		.4byte	0
 522 005f 00       		.byte	0
 523 0060 00000000 		.4byte	.LEHB7-.LFB12
 524 0064 00000000 		.4byte	.LEHE7-.LEHB7
 525 0068 00000000 		.4byte	0
 526 006c 00       		.byte	0
 527 006d 00000000 		.4byte	.LEHB8-.LFB12
 528 0071 00000000 		.4byte	.LEHE8-.LEHB8
 529 0075 00000000 		.4byte	0
 530 0079 00       		.byte	0
 531 007a 00000000 		.4byte	.LEHB9-.LFB12
 532 007e 00000000 		.4byte	.LEHE9-.LEHB9
GAS LISTING /tmp/ccaSCE7c.s 			page 12


 533 0082 00000000 		.4byte	0
 534 0086 00       		.byte	0
 535              		.text
 537              		.weak	_ZTV2T1
 538              		.section	.data.rel.ro.local._ZTV2T1,"awG",@progbits,_ZTV2T1,comdat
 539              		.align	3
 542              	_ZTV2T1:
 543 0000 00000000 		.dword	0
 543      00000000 
 544 0008 00000000 		.dword	0
 544      00000000 
 545 0010 00000000 		.dword	_ZN2T1D1Ev
 545      00000000 
 546 0018 00000000 		.dword	_ZN2T1D0Ev
 546      00000000 
 547 0020 00000000 		.dword	_ZN2T13runEv
 547      00000000 
 548              		.weak	_ZTV2T2
 549              		.section	.data.rel.ro.local._ZTV2T2,"awG",@progbits,_ZTV2T2,comdat
 550              		.align	3
 553              	_ZTV2T2:
 554 0000 00000000 		.dword	0
 554      00000000 
 555 0008 00000000 		.dword	0
 555      00000000 
 556 0010 00000000 		.dword	_ZN2T2D1Ev
 556      00000000 
 557 0018 00000000 		.dword	_ZN2T2D0Ev
 557      00000000 
 558 0020 00000000 		.dword	_ZN2T23runEv
 558      00000000 
 559              		.bss
 560              		.align	3
 561              		.set	.LANCHOR0,. + 0
 564              	_ZL5semem:
 565 0000 00000000 		.zero	8
 565      00000000 
 566              		.text
 567              	.Letext0:
 568              		.file 2 "src/../test/../h/../lib/hw.h"
 569              		.file 3 "src/../test/../h/syscall_cpp.hpp"
 570              		.file 4 "src/../test/../h/syscall_c.hpp"
 571              		.file 5 "src/../test//printing.hpp"
 2650              		.align	3
 2653              	DW.ref.__gxx_personality_v0:
 2654 0000 00000000 		.dword	__gxx_personality_v0
 2654      00000000 
 2655              		.ident	"GCC: (Ubuntu 9.4.0-1ubuntu1~20.04) 9.4.0"
 2656              		.section	.note.GNU-stack,"",@progbits
GAS LISTING /tmp/ccaSCE7c.s 			page 13

