GAS LISTING /tmp/ccJgzNCd.s 			page 1


   1              		.file	"userMain.cpp"
   2              		.option pic
   3              		.option norelax
   4              		.text
   5              	.Ltext0:
   6              		.section	.rodata.str1.8,"aMS",@progbits,1
   7              		.align	3
   8              	.LC0:
   9 0000 556E6573 		.string	"Unesite broj testa? [1-7]\n"
   9      69746520 
   9      62726F6A 
   9      20746573 
   9      74613F20 
  10 001b 00000000 		.align	3
  10      00
  11              	.LC1:
  12 0020 54455354 		.string	"TEST 1 (zadatak 2, niti C API i sinhrona promena konteksta)\n"
  12      20312028 
  12      7A616461 
  12      74616B20 
  12      322C206E 
  13 005d 000000   		.align	3
  14              	.LC2:
  15 0060 54455354 		.string	"TEST 2 (zadatak 2., niti CPP API i sinhrona promena konteksta)\n"
  15      20322028 
  15      7A616461 
  15      74616B20 
  15      322E2C20 
  16              		.align	3
  17              	.LC3:
  18 00a0 54455354 		.string	"TEST 3 (zadatak 3., kompletan C API sa semaforima, sinhrona promena konteksta)\n"
  18      20332028 
  18      7A616461 
  18      74616B20 
  18      332E2C20 
  19              		.align	3
  20              	.LC4:
  21 00f0 54455354 		.string	"TEST 4 (zadatak 3., kompletan CPP API sa semaforima, sinhrona promena konteksta)\n"
  21      20342028 
  21      7A616461 
  21      74616B20 
  21      332E2C20 
  22 0142 00000000 		.align	3
  22      0000
  23              	.LC5:
  24 0148 54455354 		.string	"TEST 5 (zadatak 4., thread_sleep test C API)\n"
  24      20352028 
  24      7A616461 
  24      74616B20 
  24      342E2C20 
  25 0176 0000     		.align	3
  26              	.LC6:
  27 0178 54455354 		.string	"TEST 6 (zadatak 4. CPP API i asinhrona promena konteksta)\n"
  27      20362028 
  27      7A616461 
  27      74616B20 
  27      342E2043 
GAS LISTING /tmp/ccJgzNCd.s 			page 2


  28 01b3 00000000 		.align	3
  28      00
  29              	.LC7:
  30 01b8 54657374 		.string	"Test se nije uspesno zavrsio\n"
  30      20736520 
  30      6E696A65 
  30      20757370 
  30      65736E6F 
  31 01d6 0000     		.align	3
  32              	.LC8:
  33 01d8 54455354 		.string	"TEST 7 (zadatak 2., testiranje da li se korisnicki kod izvrsava u korisnickom rezimu)\n"
  33      20372028 
  33      7A616461 
  33      74616B20 
  33      322E2C20 
  34 022f 00       		.align	3
  35              	.LC9:
  36 0230 54455354 		.string	"TEST 8"
  36      203800
  37 0237 00       		.align	3
  38              	.LC10:
  39 0238 54455354 		.string	"TEST 9"
  39      203900
  40 023f 00       		.align	3
  41              	.LC11:
  42 0240 54455354 		.string	"TEST 0\n"
  42      20300A00 
  43              		.align	3
  44              	.LC12:
  45 0248 4E697374 		.string	"Niste uneli odgovarajuci broj za test\n"
  45      6520756E 
  45      656C6920 
  45      6F64676F 
  45      76617261 
  46              		.text
  47              		.align	2
  48              		.globl	_Z8userMainv
  50              	_Z8userMainv:
  51              	.LFB2:
  52              		.file 1 "src/userMain.cpp"
   1:src/userMain.cpp **** #include "../test/printing.hpp"
   2:src/userMain.cpp **** #include "../test/periodicTest.hpp"
   3:src/userMain.cpp **** #include "../test/timedWaitTest.hpp"
   4:src/userMain.cpp **** #include "../test/allocTest.hpp"
   5:src/userMain.cpp **** #define LEVEL_1_IMPLEMENTED 0
   6:src/userMain.cpp **** #define LEVEL_2_IMPLEMENTED 1
   7:src/userMain.cpp **** #define LEVEL_3_IMPLEMENTED 1
   8:src/userMain.cpp **** #define LEVEL_4_IMPLEMENTED 1
   9:src/userMain.cpp **** 
  10:src/userMain.cpp **** #if LEVEL_2_IMPLEMENTED == 1
  11:src/userMain.cpp **** // TEST 1 (zadatak 2, niti C API i sinhrona promena konteksta)
  12:src/userMain.cpp **** #include "../test/Threads_C_API_test.hpp"
  13:src/userMain.cpp **** // TEST 2 (zadatak 2., niti CPP API i sinhrona promena konteksta)
  14:src/userMain.cpp **** #include "../test/Threads_CPP_API_test.hpp"
  15:src/userMain.cpp **** // TEST 7 (zadatak 2., testiranje da li se korisnicki kod izvrsava u korisnickom rezimu)
  16:src/userMain.cpp **** #include "../test/System_Mode_test.hpp"
  17:src/userMain.cpp **** #endif
GAS LISTING /tmp/ccJgzNCd.s 			page 3


  18:src/userMain.cpp **** 
  19:src/userMain.cpp **** #if LEVEL_3_IMPLEMENTED == 1
  20:src/userMain.cpp **** // TEST 3 (zadatak 3., kompletan C API sa semaforima, sinhrona promena konteksta)
  21:src/userMain.cpp **** #include "../test/ConsumerProducer_C_API_test.hpp"
  22:src/userMain.cpp **** // TEST 4 (zadatak 3., kompletan CPP API sa semaforima, sinhrona promena konteksta)
  23:src/userMain.cpp **** #include "../test/ConsumerProducer_CPP_Sync_API_test.hpp"
  24:src/userMain.cpp **** #endif
  25:src/userMain.cpp **** 
  26:src/userMain.cpp **** #if LEVEL_4_IMPLEMENTED == 1
  27:src/userMain.cpp **** // TEST 5 (zadatak 4., thread_sleep test C API)
  28:src/userMain.cpp **** #include "../test/ThreadSleep_C_API_test.hpp"
  29:src/userMain.cpp **** // TEST 6 (zadatak 4. CPP API i asinhrona promena konteksta)
  30:src/userMain.cpp **** #include "../test/ConsumerProducer_CPP_API_test.hpp"
  31:src/userMain.cpp **** #include "../test/System_Mode_test.hpp"
  32:src/userMain.cpp **** 
  33:src/userMain.cpp **** #endif
  34:src/userMain.cpp **** 
  35:src/userMain.cpp **** void userMain() {
  53              		.loc 1 35 17
  54              		.cfi_startproc
  55 0000 130101FE 		addi	sp,sp,-32
  56              		.cfi_def_cfa_offset 32
  57 0004 233C1100 		sd	ra,24(sp)
  58 0008 23388100 		sd	s0,16(sp)
  59 000c 23349100 		sd	s1,8(sp)
  60              		.cfi_offset 1, -8
  61              		.cfi_offset 8, -16
  62              		.cfi_offset 9, -24
  63 0010 13040102 		addi	s0,sp,32
  64              		.cfi_def_cfa 8, 0
  36:src/userMain.cpp ****     /*for(int i=0;i<5;i++){
  37:src/userMain.cpp ****         char c=getc();
  38:src/userMain.cpp ****         putc(c);
  39:src/userMain.cpp ****     }*/
  40:src/userMain.cpp ****     printString("Unesite broj testa? [1-7]\n");
  65              		.loc 1 40 5
  66              		.loc 1 40 16 is_stmt 0
  67 0014 17050000 		lla	a0,.LC0
  67      13050500 
  68 001c 97000000 		call	_Z11printStringPKc@plt
  68      E7800000 
  69              	.LVL0:
  41:src/userMain.cpp ****     int test = getc() - '0';
  70              		.loc 1 41 5 is_stmt 1
  71              		.loc 1 41 20 is_stmt 0
  72 0024 97000000 		call	_Z4getcv@plt
  72      E7800000 
  73              	.LVL1:
  74              		.loc 1 41 25
  75 002c 9B0405FD 		addiw	s1,a0,-48
  76              	.LVL2:
  42:src/userMain.cpp ****     getc(); // Enter posle broja
  77              		.loc 1 42 5 is_stmt 1
  78              		.loc 1 42 9 is_stmt 0
  79 0030 97000000 		call	_Z4getcv@plt
  79      E7800000 
  80              	.LVL3:
GAS LISTING /tmp/ccJgzNCd.s 			page 4


  43:src/userMain.cpp ****     //int test=1;
  44:src/userMain.cpp ****     if ((test >= 1 && test <= 2) || test == 7) {
  81              		.loc 1 44 5 is_stmt 1
  45:src/userMain.cpp ****         if (LEVEL_2_IMPLEMENTED == 0) {
  46:src/userMain.cpp ****             printString("Nije navedeno da je zadatak 2 implementiran\n");
  47:src/userMain.cpp ****             return;
  48:src/userMain.cpp ****         }
  49:src/userMain.cpp ****     }
  50:src/userMain.cpp **** 
  51:src/userMain.cpp ****     if (test >= 3 && test <= 4) {
  82              		.loc 1 51 5
  52:src/userMain.cpp ****         if (LEVEL_3_IMPLEMENTED == 0) {
  53:src/userMain.cpp ****             printString("Nije navedeno da je zadatak 3 implementiran\n");
  54:src/userMain.cpp ****             return;
  55:src/userMain.cpp ****         }
  56:src/userMain.cpp ****     }
  57:src/userMain.cpp **** 
  58:src/userMain.cpp ****     if (test >= 5 && test <= 6) {
  83              		.loc 1 58 5
  59:src/userMain.cpp ****         if (LEVEL_4_IMPLEMENTED == 0) {
  60:src/userMain.cpp ****             printString("Nije navedeno da je zadatak 4 implementiran\n");
  61:src/userMain.cpp ****             return;
  62:src/userMain.cpp ****         }
  63:src/userMain.cpp ****     }
  64:src/userMain.cpp **** 
  65:src/userMain.cpp ****     switch (test) {
  84              		.loc 1 65 5
  85 0038 93079000 		li	a5,9
  86 003c 63EC9714 		bgtu	s1,a5,.L2
  87 0040 93942400 		slli	s1,s1,2
  88 0044 17070000 		lla	a4,.L4
  88      13070700 
  89 004c B384E400 		add	s1,s1,a4
  90 0050 83A70400 		lw	a5,0(s1)
  91 0054 B387E700 		add	a5,a5,a4
  92 0058 67800700 		jr	a5
  93              		.section	.rodata
  94              		.align	2
  95              		.align	2
  96              	.L4:
  97 0000 00000000 		.word	.L13-.L4
  98 0004 00000000 		.word	.L12-.L4
  99 0008 00000000 		.word	.L11-.L4
 100 000c 00000000 		.word	.L10-.L4
 101 0010 00000000 		.word	.L9-.L4
 102 0014 00000000 		.word	.L8-.L4
 103 0018 00000000 		.word	.L7-.L4
 104 001c 00000000 		.word	.L6-.L4
 105 0020 00000000 		.word	.L5-.L4
 106 0024 00000000 		.word	.L3-.L4
 107              		.text
 108              	.L12:
  66:src/userMain.cpp ****         case 1:
 109              		.loc 1 66 9
  67:src/userMain.cpp **** #if LEVEL_2_IMPLEMENTED == 1
  68:src/userMain.cpp ****             Threads_C_API_test();
 110              		.loc 1 68 13
GAS LISTING /tmp/ccJgzNCd.s 			page 5


 111              		.loc 1 68 31 is_stmt 0
 112 005c 97000000 		call	_Z18Threads_C_API_testv@plt
 112      E7800000 
 113              	.LVL4:
  69:src/userMain.cpp ****             printString("TEST 1 (zadatak 2, niti C API i sinhrona promena konteksta)\n");
 114              		.loc 1 69 13 is_stmt 1
 115              		.loc 1 69 24 is_stmt 0
 116 0064 17050000 		lla	a0,.LC1
 116      13050500 
 117 006c 97000000 		call	_Z11printStringPKc@plt
 117      E7800000 
 118              	.LVL5:
  70:src/userMain.cpp **** #endif
  71:src/userMain.cpp ****             break;
 119              		.loc 1 71 13 is_stmt 1
 120              	.L1:
  72:src/userMain.cpp ****         case 2:
  73:src/userMain.cpp **** #if LEVEL_2_IMPLEMENTED == 1
  74:src/userMain.cpp ****             Threads_CPP_API_test();
  75:src/userMain.cpp ****             printString("TEST 2 (zadatak 2., niti CPP API i sinhrona promena konteksta)\n");
  76:src/userMain.cpp **** #endif
  77:src/userMain.cpp ****             break;
  78:src/userMain.cpp ****         case 3:
  79:src/userMain.cpp **** #if LEVEL_3_IMPLEMENTED == 1
  80:src/userMain.cpp ****             producerConsumer_C_API();
  81:src/userMain.cpp ****             printString("TEST 3 (zadatak 3., kompletan C API sa semaforima, sinhrona promena kontek
  82:src/userMain.cpp **** #endif
  83:src/userMain.cpp ****             break;
  84:src/userMain.cpp ****         case 4:
  85:src/userMain.cpp **** #if LEVEL_3_IMPLEMENTED == 1
  86:src/userMain.cpp ****             producerConsumer_CPP_Sync_API();
  87:src/userMain.cpp ****             printString("TEST 4 (zadatak 3., kompletan CPP API sa semaforima, sinhrona promena kont
  88:src/userMain.cpp **** #endif
  89:src/userMain.cpp ****             break;
  90:src/userMain.cpp ****         case 5:
  91:src/userMain.cpp **** #if LEVEL_4_IMPLEMENTED == 1
  92:src/userMain.cpp ****             testSleeping();
  93:src/userMain.cpp ****             printString("TEST 5 (zadatak 4., thread_sleep test C API)\n");
  94:src/userMain.cpp **** #endif
  95:src/userMain.cpp ****             break;
  96:src/userMain.cpp ****         case 6:
  97:src/userMain.cpp **** #if LEVEL_4_IMPLEMENTED == 1
  98:src/userMain.cpp ****             testConsumerProducer();
  99:src/userMain.cpp ****             printString("TEST 6 (zadatak 4. CPP API i asinhrona promena konteksta)\n");
 100:src/userMain.cpp **** #endif
 101:src/userMain.cpp ****             break;
 102:src/userMain.cpp ****         case 7:
 103:src/userMain.cpp **** #if LEVEL_2_IMPLEMENTED == 1
 104:src/userMain.cpp ****             System_Mode_test();
 105:src/userMain.cpp ****             printString("Test se nije uspesno zavrsio\n");
 106:src/userMain.cpp ****             printString("TEST 7 (zadatak 2., testiranje da li se korisnicki kod izvrsava u korisnic
 107:src/userMain.cpp **** #endif
 108:src/userMain.cpp ****             break;
 109:src/userMain.cpp ****         case 8:
 110:src/userMain.cpp **** #if LEVEL_4_IMPLEMENTED == 1
 111:src/userMain.cpp ****             periodicTest();
 112:src/userMain.cpp ****             printString("TEST 8");
GAS LISTING /tmp/ccJgzNCd.s 			page 6


 113:src/userMain.cpp ****             break;
 114:src/userMain.cpp ****         case 9:
 115:src/userMain.cpp ****             timedWaitTest();
 116:src/userMain.cpp ****             printString("TEST 9");
 117:src/userMain.cpp ****             break;
 118:src/userMain.cpp ****         case 0:
 119:src/userMain.cpp ****             allocTest();
 120:src/userMain.cpp ****             printString("TEST 0\n");
 121:src/userMain.cpp ****             break;
 122:src/userMain.cpp **** #endif
 123:src/userMain.cpp ****         default:
 124:src/userMain.cpp ****             printString("Niste uneli odgovarajuci broj za test\n");
 125:src/userMain.cpp ****     }
 126:src/userMain.cpp **** }...
 121              		.loc 1 126 1 is_stmt 0
 122 0074 83308101 		ld	ra,24(sp)
 123              		.cfi_remember_state
 124              		.cfi_restore 1
 125 0078 03340101 		ld	s0,16(sp)
 126              		.cfi_restore 8
 127              		.cfi_def_cfa 2, 32
 128 007c 83348100 		ld	s1,8(sp)
 129              		.cfi_restore 9
 130 0080 13010102 		addi	sp,sp,32
 131              		.cfi_def_cfa_offset 0
 132 0084 67800000 		jr	ra
 133              	.L11:
 134              		.cfi_restore_state
  72:src/userMain.cpp ****         case 2:
 135              		.loc 1 72 9 is_stmt 1
  74:src/userMain.cpp ****             Threads_CPP_API_test();
 136              		.loc 1 74 13
  74:src/userMain.cpp ****             Threads_CPP_API_test();
 137              		.loc 1 74 33 is_stmt 0
 138 0088 97000000 		call	_Z20Threads_CPP_API_testv@plt
 138      E7800000 
 139              	.LVL6:
  75:src/userMain.cpp ****             printString("TEST 2 (zadatak 2., niti CPP API i sinhrona promena konteksta)\n");
 140              		.loc 1 75 13 is_stmt 1
  75:src/userMain.cpp ****             printString("TEST 2 (zadatak 2., niti CPP API i sinhrona promena konteksta)\n");
 141              		.loc 1 75 24 is_stmt 0
 142 0090 17050000 		lla	a0,.LC2
 142      13050500 
 143 0098 97000000 		call	_Z11printStringPKc@plt
 143      E7800000 
 144              	.LVL7:
  77:src/userMain.cpp ****             break;
 145              		.loc 1 77 13 is_stmt 1
 146 00a0 6FF05FFD 		j	.L1
 147              	.L10:
  78:src/userMain.cpp ****         case 3:
 148              		.loc 1 78 9
  80:src/userMain.cpp ****             producerConsumer_C_API();
 149              		.loc 1 80 13
  80:src/userMain.cpp ****             producerConsumer_C_API();
 150              		.loc 1 80 35 is_stmt 0
 151 00a4 97000000 		call	_Z22producerConsumer_C_APIv@plt
GAS LISTING /tmp/ccJgzNCd.s 			page 7


 151      E7800000 
 152              	.LVL8:
  81:src/userMain.cpp ****             printString("TEST 3 (zadatak 3., kompletan C API sa semaforima, sinhrona promena kontek
 153              		.loc 1 81 13 is_stmt 1
  81:src/userMain.cpp ****             printString("TEST 3 (zadatak 3., kompletan C API sa semaforima, sinhrona promena kontek
 154              		.loc 1 81 24 is_stmt 0
 155 00ac 17050000 		lla	a0,.LC3
 155      13050500 
 156 00b4 97000000 		call	_Z11printStringPKc@plt
 156      E7800000 
 157              	.LVL9:
  83:src/userMain.cpp ****             break;
 158              		.loc 1 83 13 is_stmt 1
 159 00bc 6FF09FFB 		j	.L1
 160              	.L9:
  84:src/userMain.cpp ****         case 4:
 161              		.loc 1 84 9
  86:src/userMain.cpp ****             producerConsumer_CPP_Sync_API();
 162              		.loc 1 86 13
  86:src/userMain.cpp ****             producerConsumer_CPP_Sync_API();
 163              		.loc 1 86 42 is_stmt 0
 164 00c0 97000000 		call	_Z29producerConsumer_CPP_Sync_APIv@plt
 164      E7800000 
 165              	.LVL10:
  87:src/userMain.cpp ****             printString("TEST 4 (zadatak 3., kompletan CPP API sa semaforima, sinhrona promena kont
 166              		.loc 1 87 13 is_stmt 1
  87:src/userMain.cpp ****             printString("TEST 4 (zadatak 3., kompletan CPP API sa semaforima, sinhrona promena kont
 167              		.loc 1 87 24 is_stmt 0
 168 00c8 17050000 		lla	a0,.LC4
 168      13050500 
 169 00d0 97000000 		call	_Z11printStringPKc@plt
 169      E7800000 
 170              	.LVL11:
  89:src/userMain.cpp ****             break;
 171              		.loc 1 89 13 is_stmt 1
 172 00d8 6FF0DFF9 		j	.L1
 173              	.L8:
  90:src/userMain.cpp ****         case 5:
 174              		.loc 1 90 9
  92:src/userMain.cpp ****             testSleeping();
 175              		.loc 1 92 13
  92:src/userMain.cpp ****             testSleeping();
 176              		.loc 1 92 25 is_stmt 0
 177 00dc 97000000 		call	_Z12testSleepingv@plt
 177      E7800000 
 178              	.LVL12:
  93:src/userMain.cpp ****             printString("TEST 5 (zadatak 4., thread_sleep test C API)\n");
 179              		.loc 1 93 13 is_stmt 1
  93:src/userMain.cpp ****             printString("TEST 5 (zadatak 4., thread_sleep test C API)\n");
 180              		.loc 1 93 24 is_stmt 0
 181 00e4 17050000 		lla	a0,.LC5
 181      13050500 
 182 00ec 97000000 		call	_Z11printStringPKc@plt
 182      E7800000 
 183              	.LVL13:
  95:src/userMain.cpp ****             break;
 184              		.loc 1 95 13 is_stmt 1
GAS LISTING /tmp/ccJgzNCd.s 			page 8


 185 00f4 6FF01FF8 		j	.L1
 186              	.L7:
  96:src/userMain.cpp ****         case 6:
 187              		.loc 1 96 9
  98:src/userMain.cpp ****             testConsumerProducer();
 188              		.loc 1 98 13
  98:src/userMain.cpp ****             testConsumerProducer();
 189              		.loc 1 98 33 is_stmt 0
 190 00f8 97000000 		call	_Z20testConsumerProducerv@plt
 190      E7800000 
 191              	.LVL14:
  99:src/userMain.cpp ****             printString("TEST 6 (zadatak 4. CPP API i asinhrona promena konteksta)\n");
 192              		.loc 1 99 13 is_stmt 1
  99:src/userMain.cpp ****             printString("TEST 6 (zadatak 4. CPP API i asinhrona promena konteksta)\n");
 193              		.loc 1 99 24 is_stmt 0
 194 0100 17050000 		lla	a0,.LC6
 194      13050500 
 195 0108 97000000 		call	_Z11printStringPKc@plt
 195      E7800000 
 196              	.LVL15:
 101:src/userMain.cpp ****             break;
 197              		.loc 1 101 13 is_stmt 1
 198 0110 6FF05FF6 		j	.L1
 199              	.L6:
 102:src/userMain.cpp ****         case 7:
 200              		.loc 1 102 9
 104:src/userMain.cpp ****             System_Mode_test();
 201              		.loc 1 104 13
 104:src/userMain.cpp ****             System_Mode_test();
 202              		.loc 1 104 29 is_stmt 0
 203 0114 97000000 		call	_Z16System_Mode_testv@plt
 203      E7800000 
 204              	.LVL16:
 105:src/userMain.cpp ****             printString("Test se nije uspesno zavrsio\n");
 205              		.loc 1 105 13 is_stmt 1
 105:src/userMain.cpp ****             printString("Test se nije uspesno zavrsio\n");
 206              		.loc 1 105 24 is_stmt 0
 207 011c 17050000 		lla	a0,.LC7
 207      13050500 
 208 0124 97000000 		call	_Z11printStringPKc@plt
 208      E7800000 
 209              	.LVL17:
 106:src/userMain.cpp ****             printString("TEST 7 (zadatak 2., testiranje da li se korisnicki kod izvrsava u korisnic
 210              		.loc 1 106 13 is_stmt 1
 106:src/userMain.cpp ****             printString("TEST 7 (zadatak 2., testiranje da li se korisnicki kod izvrsava u korisnic
 211              		.loc 1 106 24 is_stmt 0
 212 012c 17050000 		lla	a0,.LC8
 212      13050500 
 213 0134 97000000 		call	_Z11printStringPKc@plt
 213      E7800000 
 214              	.LVL18:
 108:src/userMain.cpp ****             break;
 215              		.loc 1 108 13 is_stmt 1
 216 013c 6FF09FF3 		j	.L1
 217              	.L5:
 109:src/userMain.cpp ****         case 8:
 218              		.loc 1 109 9
GAS LISTING /tmp/ccJgzNCd.s 			page 9


 111:src/userMain.cpp ****             periodicTest();
 219              		.loc 1 111 13
 111:src/userMain.cpp ****             periodicTest();
 220              		.loc 1 111 25 is_stmt 0
 221 0140 97000000 		call	_Z12periodicTestv@plt
 221      E7800000 
 222              	.LVL19:
 112:src/userMain.cpp ****             printString("TEST 8");
 223              		.loc 1 112 13 is_stmt 1
 112:src/userMain.cpp ****             printString("TEST 8");
 224              		.loc 1 112 24 is_stmt 0
 225 0148 17050000 		lla	a0,.LC9
 225      13050500 
 226 0150 97000000 		call	_Z11printStringPKc@plt
 226      E7800000 
 227              	.LVL20:
 113:src/userMain.cpp ****             break;
 228              		.loc 1 113 13 is_stmt 1
 229 0158 6FF0DFF1 		j	.L1
 230              	.L3:
 114:src/userMain.cpp ****         case 9:
 231              		.loc 1 114 9
 115:src/userMain.cpp ****             timedWaitTest();
 232              		.loc 1 115 13
 115:src/userMain.cpp ****             timedWaitTest();
 233              		.loc 1 115 26 is_stmt 0
 234 015c 97000000 		call	_Z13timedWaitTestv@plt
 234      E7800000 
 235              	.LVL21:
 116:src/userMain.cpp ****             printString("TEST 9");
 236              		.loc 1 116 13 is_stmt 1
 116:src/userMain.cpp ****             printString("TEST 9");
 237              		.loc 1 116 24 is_stmt 0
 238 0164 17050000 		lla	a0,.LC10
 238      13050500 
 239 016c 97000000 		call	_Z11printStringPKc@plt
 239      E7800000 
 240              	.LVL22:
 117:src/userMain.cpp ****             break;
 241              		.loc 1 117 13 is_stmt 1
 242 0174 6FF01FF0 		j	.L1
 243              	.L13:
 118:src/userMain.cpp ****         case 0:
 244              		.loc 1 118 9
 119:src/userMain.cpp ****             allocTest();
 245              		.loc 1 119 13
 119:src/userMain.cpp ****             allocTest();
 246              		.loc 1 119 22 is_stmt 0
 247 0178 97000000 		call	_Z9allocTestv@plt
 247      E7800000 
 248              	.LVL23:
 120:src/userMain.cpp ****             printString("TEST 0\n");
 249              		.loc 1 120 13 is_stmt 1
 120:src/userMain.cpp ****             printString("TEST 0\n");
 250              		.loc 1 120 24 is_stmt 0
 251 0180 17050000 		lla	a0,.LC11
 251      13050500 
GAS LISTING /tmp/ccJgzNCd.s 			page 10


 252 0188 97000000 		call	_Z11printStringPKc@plt
 252      E7800000 
 253              	.LVL24:
 121:src/userMain.cpp ****             break;
 254              		.loc 1 121 13 is_stmt 1
 255 0190 6FF05FEE 		j	.L1
 256              	.L2:
 123:src/userMain.cpp ****         default:
 257              		.loc 1 123 9
 124:src/userMain.cpp ****             printString("Niste uneli odgovarajuci broj za test\n");
 258              		.loc 1 124 13
 124:src/userMain.cpp ****             printString("Niste uneli odgovarajuci broj za test\n");
 259              		.loc 1 124 24 is_stmt 0
 260 0194 17050000 		lla	a0,.LC12
 260      13050500 
 261 019c 97000000 		call	_Z11printStringPKc@plt
 261      E7800000 
 262              	.LVL25:
 263 01a4 6FF01FED 		j	.L1
 264              		.cfi_endproc
 265              	.LFE2:
 267              	.Letext0:
 268              		.file 2 "src/../test/../h/../lib/hw.h"
 269              		.file 3 "src/../test/printing.hpp"
 270              		.file 4 "src/../test/../h/syscall_c.hpp"
 271              		.file 5 "src/../test/Threads_C_API_test.hpp"
 272              		.file 6 "src/../test/Threads_CPP_API_test.hpp"
 273              		.file 7 "src/../test/ConsumerProducer_C_API_test.hpp"
 274              		.file 8 "src/../test/ConsumerProducer_CPP_Sync_API_test.hpp"
 275              		.file 9 "src/../test/ThreadSleep_C_API_test.hpp"
 276              		.file 10 "src/../test/ConsumerProducer_CPP_API_test.hpp"
 277              		.file 11 "src/../test/System_Mode_test.hpp"
 278              		.file 12 "src/../test/periodicTest.hpp"
 279              		.file 13 "src/../test/timedWaitTest.hpp"
 280              		.file 14 "src/../test/allocTest.hpp"
GAS LISTING /tmp/ccJgzNCd.s 			page 11

