GAS LISTING /tmp/ccW6QXLo.s 			page 1


   1              		.file	"allocTest.cpp"
   2              		.option pic
   3              		.option norelax
   4              		.text
   5              	.Ltext0:
   6              		.section	.text._ZN1K3runEv,"axG",@progbits,_ZN1K3runEv,comdat
   7              		.align	2
   8              		.weak	_ZN1K3runEv
  10              	_ZN1K3runEv:
  11              	.LFB5:
  12              		.file 1 "test/allocTest.cpp"
   1:test/allocTest.cpp **** #include "allocTest.hpp"
   2:test/allocTest.cpp **** class K:public Thread{
   3:test/allocTest.cpp **** public:
   4:test/allocTest.cpp ****     K(int ii):i(ii){}
   5:test/allocTest.cpp **** protected:
   6:test/allocTest.cpp ****     void run() override{
  13              		.loc 1 6 10
  14              		.cfi_startproc
  15              	.LVL0:
  16 0000 130101FF 		addi	sp,sp,-16
  17              		.cfi_def_cfa_offset 16
  18 0004 23341100 		sd	ra,8(sp)
  19 0008 23308100 		sd	s0,0(sp)
  20              		.cfi_offset 1, -8
  21              		.cfi_offset 8, -16
  22 000c 13040101 		addi	s0,sp,16
  23              		.cfi_def_cfa 8, 0
   7:test/allocTest.cpp ****         putc('0'+i);
  24              		.loc 1 7 9
  25              		.loc 1 7 18 is_stmt 0
  26 0010 03250502 		lw	a0,32(a0)
  27              	.LVL1:
  28              		.loc 1 7 13
  29 0014 1B050503 		addiw	a0,a0,48
  30 0018 1375F50F 		andi	a0,a0,0xff
  31 001c 97000000 		call	_Z4putcc@plt
  31      E7800000 
  32              	.LVL2:
   8:test/allocTest.cpp ****         putc('\n');
  33              		.loc 1 8 9 is_stmt 1
  34              		.loc 1 8 13 is_stmt 0
  35 0024 1305A000 		li	a0,10
  36 0028 97000000 		call	_Z4putcc@plt
  36      E7800000 
  37              	.LVL3:
   9:test/allocTest.cpp ****     }
  38              		.loc 1 9 5
  39 0030 83308100 		ld	ra,8(sp)
  40              		.cfi_restore 1
  41 0034 03340100 		ld	s0,0(sp)
  42              		.cfi_restore 8
  43              		.cfi_def_cfa 2, 16
  44 0038 13010101 		addi	sp,sp,16
  45              		.cfi_def_cfa_offset 0
  46 003c 67800000 		jr	ra
  47              		.cfi_endproc
GAS LISTING /tmp/ccW6QXLo.s 			page 2


  48              	.LFE5:
  50              		.section	.text._ZN1KD2Ev,"axG",@progbits,_ZN1KD5Ev,comdat
  51              		.align	2
  52              		.weak	_ZN1KD2Ev
  54              	_ZN1KD2Ev:
  55              	.LFB8:
   2:test/allocTest.cpp **** protected:
  56              		.loc 1 2 7 is_stmt 1
  57              		.cfi_startproc
  58              	.LVL4:
  59 0000 130101FF 		addi	sp,sp,-16
  60              		.cfi_def_cfa_offset 16
  61 0004 23341100 		sd	ra,8(sp)
  62 0008 23308100 		sd	s0,0(sp)
  63              		.cfi_offset 1, -8
  64              		.cfi_offset 8, -16
  65 000c 13040101 		addi	s0,sp,16
  66              		.cfi_def_cfa 8, 0
  67              	.LBB10:
   2:test/allocTest.cpp **** protected:
  68              		.loc 1 2 7 is_stmt 0
  69 0010 97070000 		lla	a5,_ZTV1K+16
  69      93870700 
  70 0018 2330F500 		sd	a5,0(a0)
  71 001c 97000000 		call	_ZN6ThreadD2Ev@plt
  71      E7800000 
  72              	.LVL5:
  73              	.LBE10:
  74 0024 83308100 		ld	ra,8(sp)
  75              		.cfi_restore 1
  76 0028 03340100 		ld	s0,0(sp)
  77              		.cfi_restore 8
  78              		.cfi_def_cfa 2, 16
  79 002c 13010101 		addi	sp,sp,16
  80              		.cfi_def_cfa_offset 0
  81 0030 67800000 		jr	ra
  82              		.cfi_endproc
  83              	.LFE8:
  85              		.weak	_ZN1KD1Ev
  86              		.set	_ZN1KD1Ev,_ZN1KD2Ev
  87              		.section	.text._ZN1KD0Ev,"axG",@progbits,_ZN1KD5Ev,comdat
  88              		.align	2
  89              		.weak	_ZN1KD0Ev
  91              	_ZN1KD0Ev:
  92              	.LFB10:
   2:test/allocTest.cpp **** protected:
  93              		.loc 1 2 7 is_stmt 1
  94              		.cfi_startproc
  95              	.LVL6:
  96 0000 130101FE 		addi	sp,sp,-32
  97              		.cfi_def_cfa_offset 32
  98 0004 233C1100 		sd	ra,24(sp)
  99 0008 23388100 		sd	s0,16(sp)
 100 000c 23349100 		sd	s1,8(sp)
 101              		.cfi_offset 1, -8
 102              		.cfi_offset 8, -16
 103              		.cfi_offset 9, -24
GAS LISTING /tmp/ccW6QXLo.s 			page 3


 104 0010 13040102 		addi	s0,sp,32
 105              		.cfi_def_cfa 8, 0
 106 0014 93040500 		mv	s1,a0
 107              	.LVL7:
 108              	.LBB11:
 109              	.LBB12:
   2:test/allocTest.cpp **** protected:
 110              		.loc 1 2 7 is_stmt 0
 111 0018 97070000 		lla	a5,_ZTV1K+16
 111      93870700 
 112 0020 2330F500 		sd	a5,0(a0)
 113 0024 97000000 		call	_ZN6ThreadD2Ev@plt
 113      E7800000 
 114              	.LVL8:
 115              	.LBE12:
 116              	.LBE11:
 117 002c 13850400 		mv	a0,s1
 118 0030 97000000 		call	_ZdlPv@plt
 118      E7800000 
 119              	.LVL9:
 120 0038 83308101 		ld	ra,24(sp)
 121              		.cfi_restore 1
 122 003c 03340101 		ld	s0,16(sp)
 123              		.cfi_restore 8
 124              		.cfi_def_cfa 2, 32
 125 0040 83348100 		ld	s1,8(sp)
 126              		.cfi_restore 9
 127              	.LVL10:
 128 0044 13010102 		addi	sp,sp,32
 129              		.cfi_def_cfa_offset 0
 130 0048 67800000 		jr	ra
 131              		.cfi_endproc
 132              	.LFE10:
 134              		.text
 135              		.align	2
 136              		.globl	_Z9allocTestv
 138              	_Z9allocTestv:
 139              	.LFB6:
  10:test/allocTest.cpp **** private:
  11:test/allocTest.cpp ****     int i;
  12:test/allocTest.cpp **** };
  13:test/allocTest.cpp **** void allocTest(){
 140              		.loc 1 13 17 is_stmt 1
 141              		.cfi_startproc
 142              		.cfi_personality 0x9b,DW.ref.__gxx_personality_v0
 143              		.cfi_lsda 0x1b,.LLSDA6
 144 0000 130101CC 		addi	sp,sp,-832
 145              		.cfi_def_cfa_offset 832
 146 0004 233C1132 		sd	ra,824(sp)
 147 0008 23388132 		sd	s0,816(sp)
 148 000c 23349132 		sd	s1,808(sp)
 149 0010 23302133 		sd	s2,800(sp)
 150              		.cfi_offset 1, -8
 151              		.cfi_offset 8, -16
 152              		.cfi_offset 9, -24
 153              		.cfi_offset 18, -32
 154 0014 13040134 		addi	s0,sp,832
GAS LISTING /tmp/ccW6QXLo.s 			page 4


 155              		.cfi_def_cfa 8, 0
  14:test/allocTest.cpp ****     K* arr[100];
 156              		.loc 1 14 5
  15:test/allocTest.cpp ****     for(int i=0;i<100;i++){
 157              		.loc 1 15 5
 158              	.LVL11:
 159              	.LBB13:
 160              		.loc 1 15 13 is_stmt 0
 161 0018 13090000 		li	s2,0
 162 001c 6F004003 		j	.L9
 163              	.LVL12:
 164              	.L16:
 165              	.LBB14:
 166              	.LBB15:
   4:test/allocTest.cpp **** protected:
 167              		.loc 1 4 19
 168 0020 97070000 		lla	a5,_ZTV1K+16
 168      93870700 
 169 0028 23B0F400 		sd	a5,0(s1)
 170 002c 23A02403 		sw	s2,32(s1)
 171              	.LVL13:
 172              	.LBE15:
 173              	.LBE14:
  16:test/allocTest.cpp ****         arr[i]=new K(i);
 174              		.loc 1 16 15
 175 0030 93173900 		slli	a5,s2,3
 176 0034 130704FE 		addi	a4,s0,-32
 177 0038 B307F700 		add	a5,a4,a5
 178 003c 23B097CE 		sd	s1,-800(a5)
  17:test/allocTest.cpp ****         arr[i]->start();
 179              		.loc 1 17 9 is_stmt 1
 180              		.loc 1 17 22 is_stmt 0
 181 0040 13850400 		mv	a0,s1
 182              	.LEHB0:
 183 0044 97000000 		call	_ZN6Thread5startEv@plt
 183      E7800000 
 184              	.LVL14:
  15:test/allocTest.cpp ****         arr[i]=new K(i);
 185              		.loc 1 15 5 is_stmt 1
 186 004c 1B091900 		addiw	s2,s2,1
 187              	.LVL15:
 188              	.L9:
  15:test/allocTest.cpp ****         arr[i]=new K(i);
 189              		.loc 1 15 18 discriminator 1
 190 0050 93073006 		li	a5,99
 191 0054 63C02703 		bgt	s2,a5,.L8
  16:test/allocTest.cpp ****         arr[i]=new K(i);
 192              		.loc 1 16 9
  16:test/allocTest.cpp ****         arr[i]=new K(i);
 193              		.loc 1 16 23 is_stmt 0
 194 0058 13058002 		li	a0,40
 195 005c 97000000 		call	_Znwm@plt
 195      E7800000 
 196              	.LVL16:
 197              	.LEHE0:
 198 0064 93040500 		mv	s1,a0
 199              	.LVL17:
GAS LISTING /tmp/ccW6QXLo.s 			page 5


 200              	.LEHB1:
 201              	.LBB17:
 202              	.LBB16:
   4:test/allocTest.cpp **** protected:
 203              		.loc 1 4 19
 204 0068 97000000 		call	_ZN6ThreadC2Ev@plt
 204      E7800000 
 205              	.LVL18:
 206              	.LEHE1:
 207 0070 6FF01FFB 		j	.L16
 208              	.LVL19:
 209              	.L8:
 210              	.LBE16:
 211              	.LBE17:
 212              	.LBE13:
  18:test/allocTest.cpp ****     }
  19:test/allocTest.cpp ****     thread_dispatch();
 213              		.loc 1 19 5 is_stmt 1
 214              	.LEHB2:
 215              		.loc 1 19 20 is_stmt 0
 216 0074 97000000 		call	_Z15thread_dispatchv@plt
 216      E7800000 
 217              	.LVL20:
 218              	.LEHE2:
 219              	.LBB18:
  20:test/allocTest.cpp ****     for(int i=0;i<10;i++){
 220              		.loc 1 20 13
 221 007c 93040000 		li	s1,0
 222 0080 6F008000 		j	.L12
 223              	.LVL21:
 224              	.L11:
 225              		.loc 1 20 5 is_stmt 1 discriminator 2
 226 0084 9B841400 		addiw	s1,s1,1
 227              	.LVL22:
 228              	.L12:
 229              		.loc 1 20 18 discriminator 1
 230 0088 93079000 		li	a5,9
 231 008c 63C29704 		bgt	s1,a5,.L7
  21:test/allocTest.cpp ****         delete arr[i];
 232              		.loc 1 21 9
 233              		.loc 1 21 21 is_stmt 0
 234 0090 93973400 		slli	a5,s1,3
 235 0094 130704FE 		addi	a4,s0,-32
 236 0098 B307F700 		add	a5,a4,a5
 237 009c 03B507CE 		ld	a0,-800(a5)
 238              		.loc 1 21 22
 239 00a0 E30205FE 		beqz	a0,.L11
 240              		.loc 1 21 21 discriminator 1
 241 00a4 83370500 		ld	a5,0(a0)
 242 00a8 83B78700 		ld	a5,8(a5)
 243 00ac E7800700 		jalr	a5
 244              	.LVL23:
 245 00b0 6FF05FFD 		j	.L11
 246              	.LVL24:
 247              	.L14:
 248 00b4 13090500 		mv	s2,a0
 249              	.LVL25:
GAS LISTING /tmp/ccW6QXLo.s 			page 6


 250              	.LBE18:
 251              	.LBB19:
  16:test/allocTest.cpp ****         arr[i]->start();
 252              		.loc 1 16 23
 253 00b8 13850400 		mv	a0,s1
 254 00bc 97000000 		call	_ZdlPv@plt
 254      E7800000 
 255              	.LVL26:
 256 00c4 13050900 		mv	a0,s2
 257              	.LEHB3:
 258 00c8 97000000 		call	_Unwind_Resume@plt
 258      E7800000 
 259              	.LVL27:
 260              	.LEHE3:
 261              	.L7:
 262              	.LBE19:
  22:test/allocTest.cpp ****     }
  23:test/allocTest.cpp **** }...
 263              		.loc 1 23 1
 264 00d0 83308133 		ld	ra,824(sp)
 265              		.cfi_restore 1
 266 00d4 03340133 		ld	s0,816(sp)
 267              		.cfi_restore 8
 268              		.cfi_def_cfa 2, 832
 269 00d8 83348132 		ld	s1,808(sp)
 270              		.cfi_restore 9
 271              	.LVL28:
 272 00dc 03390132 		ld	s2,800(sp)
 273              		.cfi_restore 18
 274              	.LVL29:
 275 00e0 13010134 		addi	sp,sp,832
 276              		.cfi_def_cfa_offset 0
 277 00e4 67800000 		jr	ra
 278              		.cfi_endproc
 279              	.LFE6:
 280              		.globl	__gxx_personality_v0
 281              		.section	.gcc_except_table,"a",@progbits
 282              	.LLSDA6:
 283 0000 FF       		.byte	0xff
 284 0001 FF       		.byte	0xff
 285 0002 03       		.byte	0x3
 286 0003 34       		.byte	0x34
 287 0004 00000000 		.4byte	.LEHB0-.LFB6
 288 0008 00000000 		.4byte	.LEHE0-.LEHB0
 289 000c 00000000 		.4byte	0
 290 0010 00       		.byte	0
 291 0011 00000000 		.4byte	.LEHB1-.LFB6
 292 0015 00000000 		.4byte	.LEHE1-.LEHB1
 293 0019 00000000 		.4byte	.L14-.LFB6
 294 001d 00       		.byte	0
 295 001e 00000000 		.4byte	.LEHB2-.LFB6
 296 0022 00000000 		.4byte	.LEHE2-.LEHB2
 297 0026 00000000 		.4byte	0
 298 002a 00       		.byte	0
 299 002b 00000000 		.4byte	.LEHB3-.LFB6
 300 002f 00000000 		.4byte	.LEHE3-.LEHB3
 301 0033 00000000 		.4byte	0
GAS LISTING /tmp/ccW6QXLo.s 			page 7


 302 0037 00       		.byte	0
 303              		.text
 305              		.weak	_ZTV1K
 306              		.section	.data.rel.ro.local._ZTV1K,"awG",@progbits,_ZTV1K,comdat
 307              		.align	3
 310              	_ZTV1K:
 311 0000 00000000 		.dword	0
 311      00000000 
 312 0008 00000000 		.dword	0
 312      00000000 
 313 0010 00000000 		.dword	_ZN1KD1Ev
 313      00000000 
 314 0018 00000000 		.dword	_ZN1KD0Ev
 314      00000000 
 315 0020 00000000 		.dword	_ZN1K3runEv
 315      00000000 
 316              		.text
 317              	.Letext0:
 318              		.file 2 "test/../h/../lib/hw.h"
 319              		.file 3 "test/../h/syscall_c.hpp"
 320              		.file 4 "test/../h/syscall_cpp.hpp"
 1827              		.align	3
 1830              	DW.ref.__gxx_personality_v0:
 1831 0000 00000000 		.dword	__gxx_personality_v0
 1831      00000000 
 1832              		.ident	"GCC: (Ubuntu 9.4.0-1ubuntu1~20.04) 9.4.0"
 1833              		.section	.note.GNU-stack,"",@progbits
GAS LISTING /tmp/ccW6QXLo.s 			page 8

